Archive member included because of file (symbol)

../liblv2.a(sprx.o)           main.o (_sys_process_atexitspawn)
e:/psdk3v2/psdk3v2-master/ps3dev/ppu/bin/../lib/gcc/powerpc64-ps3-elf/4.5.2/../../../../powerpc64-ps3-elf/lib\libsysbase.a(syscalls.o)
                              e:/psdk3v2/psdk3v2-master/ps3dev/ppu/bin/../lib/gcc/powerpc64-ps3-elf/4.5.2/../../../../powerpc64-ps3-elf/lib/lv2-crt0.o (__syscalls)
e:/psdk3v2/psdk3v2-master/ps3dev/ppu/bin/../lib/gcc/powerpc64-ps3-elf/4.5.2/../../../../powerpc64-ps3-elf/lib\libc.a(lib_a-exit.o)
                              e:/psdk3v2/psdk3v2-master/ps3dev/ppu/bin/../lib/gcc/powerpc64-ps3-elf/4.5.2/../../../../powerpc64-ps3-elf/lib/lv2-crt0.o (exit)
e:/psdk3v2/psdk3v2-master/ps3dev/ppu/bin/../lib/gcc/powerpc64-ps3-elf/4.5.2/../../../../powerpc64-ps3-elf/lib\libc.a(lib_a-fclose.o)
                              main.o (fclose)
e:/psdk3v2/psdk3v2-master/ps3dev/ppu/bin/../lib/gcc/powerpc64-ps3-elf/4.5.2/../../../../powerpc64-ps3-elf/lib\libc.a(lib_a-fflush.o)
                              e:/psdk3v2/psdk3v2-master/ps3dev/ppu/bin/../lib/gcc/powerpc64-ps3-elf/4.5.2/../../../../powerpc64-ps3-elf/lib\libc.a(lib_a-fclose.o) (_fflush_r)
e:/psdk3v2/psdk3v2-master/ps3dev/ppu/bin/../lib/gcc/powerpc64-ps3-elf/4.5.2/../../../../powerpc64-ps3-elf/lib\libc.a(lib_a-fgets.o)
                              main.o (fgets)
e:/psdk3v2/psdk3v2-master/ps3dev/ppu/bin/../lib/gcc/powerpc64-ps3-elf/4.5.2/../../../../powerpc64-ps3-elf/lib\libc.a(lib_a-findfp.o)
                              e:/psdk3v2/psdk3v2-master/ps3dev/ppu/bin/../lib/gcc/powerpc64-ps3-elf/4.5.2/../../../../powerpc64-ps3-elf/lib\libc.a(lib_a-fclose.o) (__sfp_lock_acquire)
e:/psdk3v2/psdk3v2-master/ps3dev/ppu/bin/../lib/gcc/powerpc64-ps3-elf/4.5.2/../../../../powerpc64-ps3-elf/lib\libc.a(lib_a-fopen.o)
                              main.o (fopen)
e:/psdk3v2/psdk3v2-master/ps3dev/ppu/bin/../lib/gcc/powerpc64-ps3-elf/4.5.2/../../../../powerpc64-ps3-elf/lib\libc.a(lib_a-fread.o)
                              main.o (fread)
e:/psdk3v2/psdk3v2-master/ps3dev/ppu/bin/../lib/gcc/powerpc64-ps3-elf/4.5.2/../../../../powerpc64-ps3-elf/lib\libc.a(lib_a-freer.o)
                              e:/psdk3v2/psdk3v2-master/ps3dev/ppu/bin/../lib/gcc/powerpc64-ps3-elf/4.5.2/../../../../powerpc64-ps3-elf/lib\libc.a(lib_a-fclose.o) (_free_r)
e:/psdk3v2/psdk3v2-master/ps3dev/ppu/bin/../lib/gcc/powerpc64-ps3-elf/4.5.2/../../../../powerpc64-ps3-elf/lib\libc.a(lib_a-fseek.o)
                              e:/psdk3v2/psdk3v2-master/ps3dev/ppu/bin/../lib/gcc/powerpc64-ps3-elf/4.5.2/../../../../powerpc64-ps3-elf/lib\libc.a(lib_a-fopen.o) (_fseek_r)
e:/psdk3v2/psdk3v2-master/ps3dev/ppu/bin/../lib/gcc/powerpc64-ps3-elf/4.5.2/../../../../powerpc64-ps3-elf/lib\libc.a(lib_a-ftell.o)
                              main.o (ftell)
e:/psdk3v2/psdk3v2-master/ps3dev/ppu/bin/../lib/gcc/powerpc64-ps3-elf/4.5.2/../../../../powerpc64-ps3-elf/lib\libc.a(lib_a-fwalk.o)
                              e:/psdk3v2/psdk3v2-master/ps3dev/ppu/bin/../lib/gcc/powerpc64-ps3-elf/4.5.2/../../../../powerpc64-ps3-elf/lib\libc.a(lib_a-findfp.o) (_fwalk)
e:/psdk3v2/psdk3v2-master/ps3dev/ppu/bin/../lib/gcc/powerpc64-ps3-elf/4.5.2/../../../../powerpc64-ps3-elf/lib\libc.a(lib_a-fwrite.o)
                              main.o (fwrite)
e:/psdk3v2/psdk3v2-master/ps3dev/ppu/bin/../lib/gcc/powerpc64-ps3-elf/4.5.2/../../../../powerpc64-ps3-elf/lib\libc.a(lib_a-getreent.o)
                              e:/psdk3v2/psdk3v2-master/ps3dev/ppu/bin/../lib/gcc/powerpc64-ps3-elf/4.5.2/../../../../powerpc64-ps3-elf/lib\libc.a(lib_a-fclose.o) (__getreent)
e:/psdk3v2/psdk3v2-master/ps3dev/ppu/bin/../lib/gcc/powerpc64-ps3-elf/4.5.2/../../../../powerpc64-ps3-elf/lib\libc.a(lib_a-impure.o)
                              e:/psdk3v2/psdk3v2-master/ps3dev/ppu/bin/../lib/gcc/powerpc64-ps3-elf/4.5.2/../../../../powerpc64-ps3-elf/lib\libc.a(lib_a-exit.o) (_global_impure_ptr)
e:/psdk3v2/psdk3v2-master/ps3dev/ppu/bin/../lib/gcc/powerpc64-ps3-elf/4.5.2/../../../../powerpc64-ps3-elf/lib\libc.a(lib_a-lock_recursive.o)
                              e:/psdk3v2/psdk3v2-master/ps3dev/ppu/bin/../lib/gcc/powerpc64-ps3-elf/4.5.2/../../../../powerpc64-ps3-elf/lib\libc.a(lib_a-findfp.o) (__libc_lock_init_recursive)
e:/psdk3v2/psdk3v2-master/ps3dev/ppu/bin/../lib/gcc/powerpc64-ps3-elf/4.5.2/../../../../powerpc64-ps3-elf/lib\libc.a(lib_a-makebuf.o)
                              e:/psdk3v2/psdk3v2-master/ps3dev/ppu/bin/../lib/gcc/powerpc64-ps3-elf/4.5.2/../../../../powerpc64-ps3-elf/lib\libc.a(lib_a-fseek.o) (__smakebuf_r)
e:/psdk3v2/psdk3v2-master/ps3dev/ppu/bin/../lib/gcc/powerpc64-ps3-elf/4.5.2/../../../../powerpc64-ps3-elf/lib\libc.a(lib_a-malloc.o)
                              main.o (malloc)
e:/psdk3v2/psdk3v2-master/ps3dev/ppu/bin/../lib/gcc/powerpc64-ps3-elf/4.5.2/../../../../powerpc64-ps3-elf/lib\libc.a(lib_a-mallocr.o)
                              e:/psdk3v2/psdk3v2-master/ps3dev/ppu/bin/../lib/gcc/powerpc64-ps3-elf/4.5.2/../../../../powerpc64-ps3-elf/lib\libc.a(lib_a-findfp.o) (_malloc_r)
e:/psdk3v2/psdk3v2-master/ps3dev/ppu/bin/../lib/gcc/powerpc64-ps3-elf/4.5.2/../../../../powerpc64-ps3-elf/lib\libc.a(lib_a-memchr.o)
                              e:/psdk3v2/psdk3v2-master/ps3dev/ppu/bin/../lib/gcc/powerpc64-ps3-elf/4.5.2/../../../../powerpc64-ps3-elf/lib\libc.a(lib_a-fgets.o) (memchr)
e:/psdk3v2/psdk3v2-master/ps3dev/ppu/bin/../lib/gcc/powerpc64-ps3-elf/4.5.2/../../../../powerpc64-ps3-elf/lib\libc.a(lib_a-memcpy.o)
                              e:/psdk3v2/psdk3v2-master/ps3dev/ppu/bin/../lib/gcc/powerpc64-ps3-elf/4.5.2/../../../../powerpc64-ps3-elf/lib\libc.a(lib_a-fgets.o) (memcpy)
e:/psdk3v2/psdk3v2-master/ps3dev/ppu/bin/../lib/gcc/powerpc64-ps3-elf/4.5.2/../../../../powerpc64-ps3-elf/lib\libc.a(lib_a-memset.o)
                              e:/psdk3v2/psdk3v2-master/ps3dev/ppu/bin/../lib/gcc/powerpc64-ps3-elf/4.5.2/../../../../powerpc64-ps3-elf/lib\libc.a(lib_a-findfp.o) (memset)
e:/psdk3v2/psdk3v2-master/ps3dev/ppu/bin/../lib/gcc/powerpc64-ps3-elf/4.5.2/../../../../powerpc64-ps3-elf/lib\libc.a(lib_a-mlock.o)
                              e:/psdk3v2/psdk3v2-master/ps3dev/ppu/bin/../lib/gcc/powerpc64-ps3-elf/4.5.2/../../../../powerpc64-ps3-elf/lib\libc.a(lib_a-freer.o) (__malloc_lock)
e:/psdk3v2/psdk3v2-master/ps3dev/ppu/bin/../lib/gcc/powerpc64-ps3-elf/4.5.2/../../../../powerpc64-ps3-elf/lib\libc.a(lib_a-printf.o)
                              main.o (printf)
e:/psdk3v2/psdk3v2-master/ps3dev/ppu/bin/../lib/gcc/powerpc64-ps3-elf/4.5.2/../../../../powerpc64-ps3-elf/lib\libc.a(lib_a-putchar.o)
                              main.o (putchar)
e:/psdk3v2/psdk3v2-master/ps3dev/ppu/bin/../lib/gcc/powerpc64-ps3-elf/4.5.2/../../../../powerpc64-ps3-elf/lib\libc.a(lib_a-puts.o)
                              main.o (puts)
e:/psdk3v2/psdk3v2-master/ps3dev/ppu/bin/../lib/gcc/powerpc64-ps3-elf/4.5.2/../../../../powerpc64-ps3-elf/lib\libc.a(lib_a-rand.o)
                              main.o (srand)
e:/psdk3v2/psdk3v2-master/ps3dev/ppu/bin/../lib/gcc/powerpc64-ps3-elf/4.5.2/../../../../powerpc64-ps3-elf/lib\libc.a(lib_a-refill.o)
                              e:/psdk3v2/psdk3v2-master/ps3dev/ppu/bin/../lib/gcc/powerpc64-ps3-elf/4.5.2/../../../../powerpc64-ps3-elf/lib\libc.a(lib_a-fgets.o) (__srefill_r)
e:/psdk3v2/psdk3v2-master/ps3dev/ppu/bin/../lib/gcc/powerpc64-ps3-elf/4.5.2/../../../../powerpc64-ps3-elf/lib\libc.a(lib_a-sprintf.o)
                              main.o (sprintf)
e:/psdk3v2/psdk3v2-master/ps3dev/ppu/bin/../lib/gcc/powerpc64-ps3-elf/4.5.2/../../../../powerpc64-ps3-elf/lib\libc.a(lib_a-stdio.o)
                              e:/psdk3v2/psdk3v2-master/ps3dev/ppu/bin/../lib/gcc/powerpc64-ps3-elf/4.5.2/../../../../powerpc64-ps3-elf/lib\libc.a(lib_a-findfp.o) (__sread)
e:/psdk3v2/psdk3v2-master/ps3dev/ppu/bin/../lib/gcc/powerpc64-ps3-elf/4.5.2/../../../../powerpc64-ps3-elf/lib\libc.a(lib_a-strlen.o)
                              main.o (strlen)
e:/psdk3v2/psdk3v2-master/ps3dev/ppu/bin/../lib/gcc/powerpc64-ps3-elf/4.5.2/../../../../powerpc64-ps3-elf/lib\libc.a(lib_a-svfprintf.o)
                              e:/psdk3v2/psdk3v2-master/ps3dev/ppu/bin/../lib/gcc/powerpc64-ps3-elf/4.5.2/../../../../powerpc64-ps3-elf/lib\libc.a(lib_a-sprintf.o) (_svfprintf_r)
e:/psdk3v2/psdk3v2-master/ps3dev/ppu/bin/../lib/gcc/powerpc64-ps3-elf/4.5.2/../../../../powerpc64-ps3-elf/lib\libc.a(lib_a-time.o)
                              main.o (time)
e:/psdk3v2/psdk3v2-master/ps3dev/ppu/bin/../lib/gcc/powerpc64-ps3-elf/4.5.2/../../../../powerpc64-ps3-elf/lib\libc.a(lib_a-vfprintf.o)
                              e:/psdk3v2/psdk3v2-master/ps3dev/ppu/bin/../lib/gcc/powerpc64-ps3-elf/4.5.2/../../../../powerpc64-ps3-elf/lib\libc.a(lib_a-printf.o) (_vfprintf_r)
e:/psdk3v2/psdk3v2-master/ps3dev/ppu/bin/../lib/gcc/powerpc64-ps3-elf/4.5.2/../../../../powerpc64-ps3-elf/lib\libc.a(lib_a-wsetup.o)
                              e:/psdk3v2/psdk3v2-master/ps3dev/ppu/bin/../lib/gcc/powerpc64-ps3-elf/4.5.2/../../../../powerpc64-ps3-elf/lib\libc.a(lib_a-vfprintf.o) (__swsetup_r)
e:/psdk3v2/psdk3v2-master/ps3dev/ppu/bin/../lib/gcc/powerpc64-ps3-elf/4.5.2/../../../../powerpc64-ps3-elf/lib\libc.a(lib_a-__call_atexit.o)
                              e:/psdk3v2/psdk3v2-master/ps3dev/ppu/bin/../lib/gcc/powerpc64-ps3-elf/4.5.2/../../../../powerpc64-ps3-elf/lib\libc.a(lib_a-exit.o) (__call_exitprocs)
e:/psdk3v2/psdk3v2-master/ps3dev/ppu/bin/../lib/gcc/powerpc64-ps3-elf/4.5.2/../../../../powerpc64-ps3-elf/lib\libc.a(lib_a-dtoa.o)
                              e:/psdk3v2/psdk3v2-master/ps3dev/ppu/bin/../lib/gcc/powerpc64-ps3-elf/4.5.2/../../../../powerpc64-ps3-elf/lib\libc.a(lib_a-svfprintf.o) (_dtoa_r)
e:/psdk3v2/psdk3v2-master/ps3dev/ppu/bin/../lib/gcc/powerpc64-ps3-elf/4.5.2/../../../../powerpc64-ps3-elf/lib\libc.a(lib_a-flags.o)
                              e:/psdk3v2/psdk3v2-master/ps3dev/ppu/bin/../lib/gcc/powerpc64-ps3-elf/4.5.2/../../../../powerpc64-ps3-elf/lib\libc.a(lib_a-fopen.o) (__sflags)
e:/psdk3v2/psdk3v2-master/ps3dev/ppu/bin/../lib/gcc/powerpc64-ps3-elf/4.5.2/../../../../powerpc64-ps3-elf/lib\libc.a(lib_a-fvwrite.o)
                              e:/psdk3v2/psdk3v2-master/ps3dev/ppu/bin/../lib/gcc/powerpc64-ps3-elf/4.5.2/../../../../powerpc64-ps3-elf/lib\libc.a(lib_a-fwrite.o) (__sfvwrite_r)
e:/psdk3v2/psdk3v2-master/ps3dev/ppu/bin/../lib/gcc/powerpc64-ps3-elf/4.5.2/../../../../powerpc64-ps3-elf/lib\libc.a(lib_a-locale.o)
                              e:/psdk3v2/psdk3v2-master/ps3dev/ppu/bin/../lib/gcc/powerpc64-ps3-elf/4.5.2/../../../../powerpc64-ps3-elf/lib\libc.a(lib_a-svfprintf.o) (_localeconv_r)
e:/psdk3v2/psdk3v2-master/ps3dev/ppu/bin/../lib/gcc/powerpc64-ps3-elf/4.5.2/../../../../powerpc64-ps3-elf/lib\libc.a(lib_a-lock_internal.o)
                              e:/psdk3v2/psdk3v2-master/ps3dev/ppu/bin/../lib/gcc/powerpc64-ps3-elf/4.5.2/../../../../powerpc64-ps3-elf/lib\libc.a(lib_a-lock_recursive.o) (__libc_auto_lock_allocate)
e:/psdk3v2/psdk3v2-master/ps3dev/ppu/bin/../lib/gcc/powerpc64-ps3-elf/4.5.2/../../../../powerpc64-ps3-elf/lib\libc.a(lib_a-memmove.o)
                              e:/psdk3v2/psdk3v2-master/ps3dev/ppu/bin/../lib/gcc/powerpc64-ps3-elf/4.5.2/../../../../powerpc64-ps3-elf/lib\libc.a(lib_a-fvwrite.o) (memmove)
e:/psdk3v2/psdk3v2-master/ps3dev/ppu/bin/../lib/gcc/powerpc64-ps3-elf/4.5.2/../../../../powerpc64-ps3-elf/lib\libc.a(lib_a-mprec.o)
                              e:/psdk3v2/psdk3v2-master/ps3dev/ppu/bin/../lib/gcc/powerpc64-ps3-elf/4.5.2/../../../../powerpc64-ps3-elf/lib\libc.a(lib_a-dtoa.o) (_Balloc)
e:/psdk3v2/psdk3v2-master/ps3dev/ppu/bin/../lib/gcc/powerpc64-ps3-elf/4.5.2/../../../../powerpc64-ps3-elf/lib\libc.a(lib_a-putc.o)
                              e:/psdk3v2/psdk3v2-master/ps3dev/ppu/bin/../lib/gcc/powerpc64-ps3-elf/4.5.2/../../../../powerpc64-ps3-elf/lib\libc.a(lib_a-putchar.o) (_putc_r)
e:/psdk3v2/psdk3v2-master/ps3dev/ppu/bin/../lib/gcc/powerpc64-ps3-elf/4.5.2/../../../../powerpc64-ps3-elf/lib\libc.a(lib_a-reallocr.o)
                              e:/psdk3v2/psdk3v2-master/ps3dev/ppu/bin/../lib/gcc/powerpc64-ps3-elf/4.5.2/../../../../powerpc64-ps3-elf/lib\libc.a(lib_a-fvwrite.o) (_realloc_r)
e:/psdk3v2/psdk3v2-master/ps3dev/ppu/bin/../lib/gcc/powerpc64-ps3-elf/4.5.2/../../../../powerpc64-ps3-elf/lib\libc.a(lib_a-s_fpclassify.o)
                              e:/psdk3v2/psdk3v2-master/ps3dev/ppu/bin/../lib/gcc/powerpc64-ps3-elf/4.5.2/../../../../powerpc64-ps3-elf/lib\libc.a(lib_a-svfprintf.o) (__fpclassifyd)
e:/psdk3v2/psdk3v2-master/ps3dev/ppu/bin/../lib/gcc/powerpc64-ps3-elf/4.5.2/../../../../powerpc64-ps3-elf/lib\libc.a(lib_a-strcmp.o)
                              e:/psdk3v2/psdk3v2-master/ps3dev/ppu/bin/../lib/gcc/powerpc64-ps3-elf/4.5.2/../../../../powerpc64-ps3-elf/lib\libc.a(lib_a-locale.o) (strcmp)
e:/psdk3v2/psdk3v2-master/ps3dev/ppu/bin/../lib/gcc/powerpc64-ps3-elf/4.5.2/../../../../powerpc64-ps3-elf/lib\libc.a(lib_a-svfiprintf.o)
                              e:/psdk3v2/psdk3v2-master/ps3dev/ppu/bin/../lib/gcc/powerpc64-ps3-elf/4.5.2/../../../../powerpc64-ps3-elf/lib\libc.a(lib_a-svfprintf.o) (__ssprint_r)
e:/psdk3v2/psdk3v2-master/ps3dev/ppu/bin/../lib/gcc/powerpc64-ps3-elf/4.5.2/../../../../powerpc64-ps3-elf/lib\libc.a(lib_a-vfiprintf.o)
                              e:/psdk3v2/psdk3v2-master/ps3dev/ppu/bin/../lib/gcc/powerpc64-ps3-elf/4.5.2/../../../../powerpc64-ps3-elf/lib\libc.a(lib_a-vfprintf.o) (__sprint_r)
e:/psdk3v2/psdk3v2-master/ps3dev/ppu/bin/../lib/gcc/powerpc64-ps3-elf/4.5.2/../../../../powerpc64-ps3-elf/lib\libc.a(lib_a-wbuf.o)
                              e:/psdk3v2/psdk3v2-master/ps3dev/ppu/bin/../lib/gcc/powerpc64-ps3-elf/4.5.2/../../../../powerpc64-ps3-elf/lib\libc.a(lib_a-putc.o) (__swbuf_r)
e:/psdk3v2/psdk3v2-master/ps3dev/ppu/bin/../lib/gcc/powerpc64-ps3-elf/4.5.2/../../../../powerpc64-ps3-elf/lib\libc.a(lib_a-__atexit.o)
                              e:/psdk3v2/psdk3v2-master/ps3dev/ppu/bin/../lib/gcc/powerpc64-ps3-elf/4.5.2/../../../../powerpc64-ps3-elf/lib\libc.a(lib_a-__call_atexit.o) (__atexit_lock)
e:/psdk3v2/psdk3v2-master/ps3dev/ppu/bin/../lib/gcc/powerpc64-ps3-elf/4.5.2/../../../../powerpc64-ps3-elf/lib\libc.a(lib_a-abort.o)
                              e:/psdk3v2/psdk3v2-master/ps3dev/ppu/bin/../lib/gcc/powerpc64-ps3-elf/4.5.2/../../../../powerpc64-ps3-elf/lib\libc.a(lib_a-lock_internal.o) (abort)
e:/psdk3v2/psdk3v2-master/ps3dev/ppu/bin/../lib/gcc/powerpc64-ps3-elf/4.5.2/../../../../powerpc64-ps3-elf/lib\libc.a(lib_a-callocr.o)
                              e:/psdk3v2/psdk3v2-master/ps3dev/ppu/bin/../lib/gcc/powerpc64-ps3-elf/4.5.2/../../../../powerpc64-ps3-elf/lib\libc.a(lib_a-mprec.o) (_calloc_r)
e:/psdk3v2/psdk3v2-master/ps3dev/ppu/bin/../lib/gcc/powerpc64-ps3-elf/4.5.2/../../../../powerpc64-ps3-elf/lib\libc.a(lib_a-fputwc.o)
                              e:/psdk3v2/psdk3v2-master/ps3dev/ppu/bin/../lib/gcc/powerpc64-ps3-elf/4.5.2/../../../../powerpc64-ps3-elf/lib\libc.a(lib_a-vfiprintf.o) (_fputwc_r)
e:/psdk3v2/psdk3v2-master/ps3dev/ppu/bin/../lib/gcc/powerpc64-ps3-elf/4.5.2/../../../../powerpc64-ps3-elf/lib\libc.a(lib_a-signal.o)
                              e:/psdk3v2/psdk3v2-master/ps3dev/ppu/bin/../lib/gcc/powerpc64-ps3-elf/4.5.2/../../../../powerpc64-ps3-elf/lib\libc.a(lib_a-abort.o) (raise)
e:/psdk3v2/psdk3v2-master/ps3dev/ppu/bin/../lib/gcc/powerpc64-ps3-elf/4.5.2/../../../../powerpc64-ps3-elf/lib\libc.a(lib_a-wcrtomb.o)
                              e:/psdk3v2/psdk3v2-master/ps3dev/ppu/bin/../lib/gcc/powerpc64-ps3-elf/4.5.2/../../../../powerpc64-ps3-elf/lib\libc.a(lib_a-fputwc.o) (_wcrtomb_r)
e:/psdk3v2/psdk3v2-master/ps3dev/ppu/bin/../lib/gcc/powerpc64-ps3-elf/4.5.2/../../../../powerpc64-ps3-elf/lib\libc.a(lib_a-wctomb_r.o)
                              e:/psdk3v2/psdk3v2-master/ps3dev/ppu/bin/../lib/gcc/powerpc64-ps3-elf/4.5.2/../../../../powerpc64-ps3-elf/lib\libc.a(lib_a-wcrtomb.o) (__wctomb)
e:/PSDK3v2/PSDK3v2-master/psl1ght/ppu/lib\librt.a(sbrk.o)
                              e:/psdk3v2/psdk3v2-master/ps3dev/ppu/bin/../lib/gcc/powerpc64-ps3-elf/4.5.2/../../../../powerpc64-ps3-elf/lib/lv2-crt0.o (__librt_sbrk_r)
e:/PSDK3v2/PSDK3v2-master/psl1ght/ppu/lib\librt.a(exit.o)
                              e:/psdk3v2/psdk3v2-master/ps3dev/ppu/bin/../lib/gcc/powerpc64-ps3-elf/4.5.2/../../../../powerpc64-ps3-elf/lib/lv2-crt0.o (__librt_exit)
e:/PSDK3v2/PSDK3v2-master/psl1ght/ppu/lib\librt.a(close.o)
                              e:/psdk3v2/psdk3v2-master/ps3dev/ppu/bin/../lib/gcc/powerpc64-ps3-elf/4.5.2/../../../../powerpc64-ps3-elf/lib/lv2-crt0.o (__librt_close_r)
e:/PSDK3v2/PSDK3v2-master/psl1ght/ppu/lib\librt.a(lseek.o)
                              e:/psdk3v2/psdk3v2-master/ps3dev/ppu/bin/../lib/gcc/powerpc64-ps3-elf/4.5.2/../../../../powerpc64-ps3-elf/lib/lv2-crt0.o (__librt_lseek_r)
e:/PSDK3v2/PSDK3v2-master/psl1ght/ppu/lib\librt.a(read.o)
                              e:/psdk3v2/psdk3v2-master/ps3dev/ppu/bin/../lib/gcc/powerpc64-ps3-elf/4.5.2/../../../../powerpc64-ps3-elf/lib/lv2-crt0.o (__librt_read_r)
e:/PSDK3v2/PSDK3v2-master/psl1ght/ppu/lib\librt.a(open.o)
                              e:/psdk3v2/psdk3v2-master/ps3dev/ppu/bin/../lib/gcc/powerpc64-ps3-elf/4.5.2/../../../../powerpc64-ps3-elf/lib/lv2-crt0.o (__librt_open_r)
e:/PSDK3v2/PSDK3v2-master/psl1ght/ppu/lib\librt.a(sleep.o)
                              e:/psdk3v2/psdk3v2-master/ps3dev/ppu/bin/../lib/gcc/powerpc64-ps3-elf/4.5.2/../../../../powerpc64-ps3-elf/lib/lv2-crt0.o (__librt_usleep_r)
e:/PSDK3v2/PSDK3v2-master/psl1ght/ppu/lib\librt.a(write.o)
                              e:/psdk3v2/psdk3v2-master/ps3dev/ppu/bin/../lib/gcc/powerpc64-ps3-elf/4.5.2/../../../../powerpc64-ps3-elf/lib/lv2-crt0.o (__librt_write_r)
e:/PSDK3v2/PSDK3v2-master/psl1ght/ppu/lib\librt.a(fstat.o)
                              e:/psdk3v2/psdk3v2-master/ps3dev/ppu/bin/../lib/gcc/powerpc64-ps3-elf/4.5.2/../../../../powerpc64-ps3-elf/lib/lv2-crt0.o (__librt_fstat_r)
e:/PSDK3v2/PSDK3v2-master/psl1ght/ppu/lib\librt.a(socket.o)
                              e:/PSDK3v2/PSDK3v2-master/psl1ght/ppu/lib\librt.a(write.o) (send)
e:/PSDK3v2/PSDK3v2-master/psl1ght/ppu/lib\librt.a(lock.o)
                              e:/psdk3v2/psdk3v2-master/ps3dev/ppu/bin/../lib/gcc/powerpc64-ps3-elf/4.5.2/../../../../powerpc64-ps3-elf/lib/lv2-crt0.o (__librt_sys_lwmutex_create_r)
e:/PSDK3v2/PSDK3v2-master/psl1ght/ppu/lib\librt.a(dirent.o)
                              e:/psdk3v2/psdk3v2-master/ps3dev/ppu/bin/../lib/gcc/powerpc64-ps3-elf/4.5.2/../../../../powerpc64-ps3-elf/lib/lv2-crt0.o (__librt_opendir_r)
e:/PSDK3v2/PSDK3v2-master/psl1ght/ppu/lib\librt.a(mkdir.o)
                              e:/psdk3v2/psdk3v2-master/ps3dev/ppu/bin/../lib/gcc/powerpc64-ps3-elf/4.5.2/../../../../powerpc64-ps3-elf/lib/lv2-crt0.o (__librt_mkdir_r)
e:/PSDK3v2/PSDK3v2-master/psl1ght/ppu/lib\librt.a(times.o)
                              e:/psdk3v2/psdk3v2-master/ps3dev/ppu/bin/../lib/gcc/powerpc64-ps3-elf/4.5.2/../../../../powerpc64-ps3-elf/lib/lv2-crt0.o (__librt_times_r)
e:/PSDK3v2/PSDK3v2-master/psl1ght/ppu/lib\librt.a(umask.o)
                              e:/psdk3v2/psdk3v2-master/ps3dev/ppu/bin/../lib/gcc/powerpc64-ps3-elf/4.5.2/../../../../powerpc64-ps3-elf/lib/lv2-crt0.o (__librt_umask_r)
e:/PSDK3v2/PSDK3v2-master/psl1ght/ppu/lib\librt.a(lv2errno.o)
                              e:/PSDK3v2/PSDK3v2-master/psl1ght/ppu/lib\librt.a(socket.o) (lv2errno)
e:/PSDK3v2/PSDK3v2-master/psl1ght/ppu/lib\librt.a(heap.o)
                              e:/PSDK3v2/PSDK3v2-master/psl1ght/ppu/lib\librt.a(sbrk.o) (heapInit)
e:/PSDK3v2/PSDK3v2-master/psl1ght/ppu/lib\librt.a(chmod.o)
                              e:/psdk3v2/psdk3v2-master/ps3dev/ppu/bin/../lib/gcc/powerpc64-ps3-elf/4.5.2/../../../../powerpc64-ps3-elf/lib/lv2-crt0.o (__librt_chmod_r)
e:/PSDK3v2/PSDK3v2-master/psl1ght/ppu/lib\librt.a(rmdir.o)
                              e:/psdk3v2/psdk3v2-master/ps3dev/ppu/bin/../lib/gcc/powerpc64-ps3-elf/4.5.2/../../../../powerpc64-ps3-elf/lib/lv2-crt0.o (__librt_rmdir_r)
e:/PSDK3v2/PSDK3v2-master/psl1ght/ppu/lib\librt.a(isatty.o)
                              e:/psdk3v2/psdk3v2-master/ps3dev/ppu/bin/../lib/gcc/powerpc64-ps3-elf/4.5.2/../../../../powerpc64-ps3-elf/lib/lv2-crt0.o (__librt_isatty_r)
e:/PSDK3v2/PSDK3v2-master/psl1ght/ppu/lib\librt.a(gettod.o)
                              e:/psdk3v2/psdk3v2-master/ps3dev/ppu/bin/../lib/gcc/powerpc64-ps3-elf/4.5.2/../../../../powerpc64-ps3-elf/lib/lv2-crt0.o (__librt_gettod_r)
e:/PSDK3v2/PSDK3v2-master/psl1ght/ppu/lib\librt.a(settod.o)
                              e:/psdk3v2/psdk3v2-master/ps3dev/ppu/bin/../lib/gcc/powerpc64-ps3-elf/4.5.2/../../../../powerpc64-ps3-elf/lib/lv2-crt0.o (__librt_settod_r)
e:/psdk3v2/psdk3v2-master/ps3dev/ppu/bin/../lib/gcc/powerpc64-ps3-elf/4.5.2/../../../../powerpc64-ps3-elf/lib\libsysbase.a(close.o)
                              e:/psdk3v2/psdk3v2-master/ps3dev/ppu/bin/../lib/gcc/powerpc64-ps3-elf/4.5.2/../../../../powerpc64-ps3-elf/lib\libc.a(lib_a-stdio.o) (_close_r)
e:/psdk3v2/psdk3v2-master/ps3dev/ppu/bin/../lib/gcc/powerpc64-ps3-elf/4.5.2/../../../../powerpc64-ps3-elf/lib\libsysbase.a(sbrk.o)
                              e:/psdk3v2/psdk3v2-master/ps3dev/ppu/bin/../lib/gcc/powerpc64-ps3-elf/4.5.2/../../../../powerpc64-ps3-elf/lib\libc.a(lib_a-freer.o) (_sbrk_r)
e:/psdk3v2/psdk3v2-master/ps3dev/ppu/bin/../lib/gcc/powerpc64-ps3-elf/4.5.2/../../../../powerpc64-ps3-elf/lib\libsysbase.a(_exit.o)
                              e:/psdk3v2/psdk3v2-master/ps3dev/ppu/bin/../lib/gcc/powerpc64-ps3-elf/4.5.2/../../../../powerpc64-ps3-elf/lib\libc.a(lib_a-exit.o) (_exit)
e:/psdk3v2/psdk3v2-master/ps3dev/ppu/bin/../lib/gcc/powerpc64-ps3-elf/4.5.2/../../../../powerpc64-ps3-elf/lib\libsysbase.a(fstat.o)
                              e:/psdk3v2/psdk3v2-master/ps3dev/ppu/bin/../lib/gcc/powerpc64-ps3-elf/4.5.2/../../../../powerpc64-ps3-elf/lib\libc.a(lib_a-fseek.o) (_fstat_r)
e:/psdk3v2/psdk3v2-master/ps3dev/ppu/bin/../lib/gcc/powerpc64-ps3-elf/4.5.2/../../../../powerpc64-ps3-elf/lib\libsysbase.a(isatty.o)
                              e:/psdk3v2/psdk3v2-master/ps3dev/ppu/bin/../lib/gcc/powerpc64-ps3-elf/4.5.2/../../../../powerpc64-ps3-elf/lib\libc.a(lib_a-makebuf.o) (_isatty_r)
e:/psdk3v2/psdk3v2-master/ps3dev/ppu/bin/../lib/gcc/powerpc64-ps3-elf/4.5.2/../../../../powerpc64-ps3-elf/lib\libsysbase.a(lseek.o)
                              e:/psdk3v2/psdk3v2-master/ps3dev/ppu/bin/../lib/gcc/powerpc64-ps3-elf/4.5.2/../../../../powerpc64-ps3-elf/lib\libc.a(lib_a-stdio.o) (_lseek_r)
e:/psdk3v2/psdk3v2-master/ps3dev/ppu/bin/../lib/gcc/powerpc64-ps3-elf/4.5.2/../../../../powerpc64-ps3-elf/lib\libsysbase.a(open.o)
                              e:/psdk3v2/psdk3v2-master/ps3dev/ppu/bin/../lib/gcc/powerpc64-ps3-elf/4.5.2/../../../../powerpc64-ps3-elf/lib\libc.a(lib_a-fopen.o) (_open_r)
e:/psdk3v2/psdk3v2-master/ps3dev/ppu/bin/../lib/gcc/powerpc64-ps3-elf/4.5.2/../../../../powerpc64-ps3-elf/lib\libsysbase.a(read.o)
                              e:/psdk3v2/psdk3v2-master/ps3dev/ppu/bin/../lib/gcc/powerpc64-ps3-elf/4.5.2/../../../../powerpc64-ps3-elf/lib\libc.a(lib_a-stdio.o) (_read_r)
e:/psdk3v2/psdk3v2-master/ps3dev/ppu/bin/../lib/gcc/powerpc64-ps3-elf/4.5.2/../../../../powerpc64-ps3-elf/lib\libsysbase.a(write.o)
                              e:/psdk3v2/psdk3v2-master/ps3dev/ppu/bin/../lib/gcc/powerpc64-ps3-elf/4.5.2/../../../../powerpc64-ps3-elf/lib\libc.a(lib_a-stdio.o) (_write_r)
e:/psdk3v2/psdk3v2-master/ps3dev/ppu/bin/../lib/gcc/powerpc64-ps3-elf/4.5.2/../../../../powerpc64-ps3-elf/lib\libsysbase.a(lock.o)
                              e:/psdk3v2/psdk3v2-master/ps3dev/ppu/bin/../lib/gcc/powerpc64-ps3-elf/4.5.2/../../../../powerpc64-ps3-elf/lib\libc.a(lib_a-lock_recursive.o) (sys_lwmutex_create)
e:/psdk3v2/psdk3v2-master/ps3dev/ppu/bin/../lib/gcc/powerpc64-ps3-elf/4.5.2/../../../../powerpc64-ps3-elf/lib\libsysbase.a(getpid.o)
                              e:/psdk3v2/psdk3v2-master/ps3dev/ppu/bin/../lib/gcc/powerpc64-ps3-elf/4.5.2/../../../../powerpc64-ps3-elf/lib\libc.a(lib_a-signal.o) (_getpid_r)
e:/psdk3v2/psdk3v2-master/ps3dev/ppu/bin/../lib/gcc/powerpc64-ps3-elf/4.5.2/../../../../powerpc64-ps3-elf/lib\libsysbase.a(kill.o)
                              e:/psdk3v2/psdk3v2-master/ps3dev/ppu/bin/../lib/gcc/powerpc64-ps3-elf/4.5.2/../../../../powerpc64-ps3-elf/lib\libc.a(lib_a-signal.o) (_kill_r)
e:/psdk3v2/psdk3v2-master/ps3dev/ppu/bin/../lib/gcc/powerpc64-ps3-elf/4.5.2/../../../../powerpc64-ps3-elf/lib\libsysbase.a(gettod.o)
                              e:/psdk3v2/psdk3v2-master/ps3dev/ppu/bin/../lib/gcc/powerpc64-ps3-elf/4.5.2/../../../../powerpc64-ps3-elf/lib\libc.a(lib_a-time.o) (_gettimeofday_r)
e:/psdk3v2/psdk3v2-master/ps3dev/ppu/bin/../lib/gcc/powerpc64-ps3-elf/4.5.2/../../../../powerpc64-ps3-elf/lib\libc.a(lib_a-errno.o)
                              e:/PSDK3v2/PSDK3v2-master/psl1ght/ppu/lib\librt.a(socket.o) (__errno)
e:/psdk3v2/psdk3v2-master/ps3dev/ppu/bin/../lib/gcc/powerpc64-ps3-elf/4.5.2/../../../../powerpc64-ps3-elf/lib\libc.a(lib_a-sscanf.o)
                              e:/PSDK3v2/PSDK3v2-master/psl1ght/ppu/lib\librt.a(socket.o) (sscanf)
e:/psdk3v2/psdk3v2-master/ps3dev/ppu/bin/../lib/gcc/powerpc64-ps3-elf/4.5.2/../../../../powerpc64-ps3-elf/lib\libc.a(lib_a-strncpy.o)
                              e:/PSDK3v2/PSDK3v2-master/psl1ght/ppu/lib\librt.a(dirent.o) (strncpy)
e:/psdk3v2/psdk3v2-master/ps3dev/ppu/bin/../lib/gcc/powerpc64-ps3-elf/4.5.2/../../../../powerpc64-ps3-elf/lib\libc.a(lib_a-svfscanf.o)
                              e:/psdk3v2/psdk3v2-master/ps3dev/ppu/bin/../lib/gcc/powerpc64-ps3-elf/4.5.2/../../../../powerpc64-ps3-elf/lib\libc.a(lib_a-sscanf.o) (__ssvfscanf_r)
e:/psdk3v2/psdk3v2-master/ps3dev/ppu/bin/../lib/gcc/powerpc64-ps3-elf/4.5.2/../../../../powerpc64-ps3-elf/lib\libc.a(lib_a-ctype_.o)
                              e:/psdk3v2/psdk3v2-master/ps3dev/ppu/bin/../lib/gcc/powerpc64-ps3-elf/4.5.2/../../../../powerpc64-ps3-elf/lib\libc.a(lib_a-svfscanf.o) (__ctype_ptr__)
e:/psdk3v2/psdk3v2-master/ps3dev/ppu/bin/../lib/gcc/powerpc64-ps3-elf/4.5.2/../../../../powerpc64-ps3-elf/lib\libc.a(lib_a-iswspace.o)
                              e:/psdk3v2/psdk3v2-master/ps3dev/ppu/bin/../lib/gcc/powerpc64-ps3-elf/4.5.2/../../../../powerpc64-ps3-elf/lib\libc.a(lib_a-svfscanf.o) (iswspace)
e:/psdk3v2/psdk3v2-master/ps3dev/ppu/bin/../lib/gcc/powerpc64-ps3-elf/4.5.2/../../../../powerpc64-ps3-elf/lib\libc.a(lib_a-mbrtowc.o)
                              e:/psdk3v2/psdk3v2-master/ps3dev/ppu/bin/../lib/gcc/powerpc64-ps3-elf/4.5.2/../../../../powerpc64-ps3-elf/lib\libc.a(lib_a-svfscanf.o) (_mbrtowc_r)
e:/psdk3v2/psdk3v2-master/ps3dev/ppu/bin/../lib/gcc/powerpc64-ps3-elf/4.5.2/../../../../powerpc64-ps3-elf/lib\libc.a(lib_a-mbtowc_r.o)
                              e:/psdk3v2/psdk3v2-master/ps3dev/ppu/bin/../lib/gcc/powerpc64-ps3-elf/4.5.2/../../../../powerpc64-ps3-elf/lib\libc.a(lib_a-mbrtowc.o) (__mbtowc)
e:/psdk3v2/psdk3v2-master/ps3dev/ppu/bin/../lib/gcc/powerpc64-ps3-elf/4.5.2/../../../../powerpc64-ps3-elf/lib\libc.a(lib_a-sccl.o)
                              e:/psdk3v2/psdk3v2-master/ps3dev/ppu/bin/../lib/gcc/powerpc64-ps3-elf/4.5.2/../../../../powerpc64-ps3-elf/lib\libc.a(lib_a-svfscanf.o) (__sccl)
e:/psdk3v2/psdk3v2-master/ps3dev/ppu/bin/../lib/gcc/powerpc64-ps3-elf/4.5.2/../../../../powerpc64-ps3-elf/lib\libc.a(lib_a-sf_nan.o)
                              e:/psdk3v2/psdk3v2-master/ps3dev/ppu/bin/../lib/gcc/powerpc64-ps3-elf/4.5.2/../../../../powerpc64-ps3-elf/lib\libc.a(lib_a-svfscanf.o) (nanf)
e:/psdk3v2/psdk3v2-master/ps3dev/ppu/bin/../lib/gcc/powerpc64-ps3-elf/4.5.2/../../../../powerpc64-ps3-elf/lib\libc.a(lib_a-strtod.o)
                              e:/psdk3v2/psdk3v2-master/ps3dev/ppu/bin/../lib/gcc/powerpc64-ps3-elf/4.5.2/../../../../powerpc64-ps3-elf/lib\libc.a(lib_a-svfscanf.o) (_strtod_r)
e:/psdk3v2/psdk3v2-master/ps3dev/ppu/bin/../lib/gcc/powerpc64-ps3-elf/4.5.2/../../../../powerpc64-ps3-elf/lib\libc.a(lib_a-strtol.o)
                              e:/psdk3v2/psdk3v2-master/ps3dev/ppu/bin/../lib/gcc/powerpc64-ps3-elf/4.5.2/../../../../powerpc64-ps3-elf/lib\libc.a(lib_a-svfscanf.o) (_strtol_r)
e:/psdk3v2/psdk3v2-master/ps3dev/ppu/bin/../lib/gcc/powerpc64-ps3-elf/4.5.2/../../../../powerpc64-ps3-elf/lib\libc.a(lib_a-strtoll_r.o)
                              e:/psdk3v2/psdk3v2-master/ps3dev/ppu/bin/../lib/gcc/powerpc64-ps3-elf/4.5.2/../../../../powerpc64-ps3-elf/lib\libc.a(lib_a-svfscanf.o) (_strtoll_r)
e:/psdk3v2/psdk3v2-master/ps3dev/ppu/bin/../lib/gcc/powerpc64-ps3-elf/4.5.2/../../../../powerpc64-ps3-elf/lib\libc.a(lib_a-strtoul.o)
                              e:/psdk3v2/psdk3v2-master/ps3dev/ppu/bin/../lib/gcc/powerpc64-ps3-elf/4.5.2/../../../../powerpc64-ps3-elf/lib\libc.a(lib_a-svfscanf.o) (_strtoul_r)
e:/psdk3v2/psdk3v2-master/ps3dev/ppu/bin/../lib/gcc/powerpc64-ps3-elf/4.5.2/../../../../powerpc64-ps3-elf/lib\libc.a(lib_a-strtoull_r.o)
                              e:/psdk3v2/psdk3v2-master/ps3dev/ppu/bin/../lib/gcc/powerpc64-ps3-elf/4.5.2/../../../../powerpc64-ps3-elf/lib\libc.a(lib_a-svfscanf.o) (_strtoull_r)
e:/psdk3v2/psdk3v2-master/ps3dev/ppu/bin/../lib/gcc/powerpc64-ps3-elf/4.5.2/../../../../powerpc64-ps3-elf/lib\libc.a(lib_a-svfiscanf.o)
                              e:/psdk3v2/psdk3v2-master/ps3dev/ppu/bin/../lib/gcc/powerpc64-ps3-elf/4.5.2/../../../../powerpc64-ps3-elf/lib\libc.a(lib_a-svfscanf.o) (_sungetc_r)
e:/psdk3v2/psdk3v2-master/ps3dev/ppu/bin/../lib/gcc/powerpc64-ps3-elf/4.5.2/../../../../powerpc64-ps3-elf/lib\libc.a(lib_a-ungetc.o)
                              e:/psdk3v2/psdk3v2-master/ps3dev/ppu/bin/../lib/gcc/powerpc64-ps3-elf/4.5.2/../../../../powerpc64-ps3-elf/lib\libc.a(lib_a-svfiscanf.o) (__submore)
e:/psdk3v2/psdk3v2-master/ps3dev/ppu/bin/../lib/gcc/powerpc64-ps3-elf/4.5.2/../../../../powerpc64-ps3-elf/lib\libc.a(lib_a-gdtoa-gethex.o)
                              e:/psdk3v2/psdk3v2-master/ps3dev/ppu/bin/../lib/gcc/powerpc64-ps3-elf/4.5.2/../../../../powerpc64-ps3-elf/lib\libc.a(lib_a-strtod.o) (__gethex)
e:/psdk3v2/psdk3v2-master/ps3dev/ppu/bin/../lib/gcc/powerpc64-ps3-elf/4.5.2/../../../../powerpc64-ps3-elf/lib\libc.a(lib_a-gdtoa-hexnan.o)
                              e:/psdk3v2/psdk3v2-master/ps3dev/ppu/bin/../lib/gcc/powerpc64-ps3-elf/4.5.2/../../../../powerpc64-ps3-elf/lib\libc.a(lib_a-strtod.o) (__hexnan)
e:/psdk3v2/psdk3v2-master/ps3dev/ppu/bin/../lib/gcc/powerpc64-ps3-elf/4.5.2/../../../../powerpc64-ps3-elf/lib\libc.a(lib_a-strncmp.o)
                              e:/psdk3v2/psdk3v2-master/ps3dev/ppu/bin/../lib/gcc/powerpc64-ps3-elf/4.5.2/../../../../powerpc64-ps3-elf/lib\libc.a(lib_a-strtod.o) (strncmp)

Allocating common symbols
Common symbol       size              file

__hexdig            0x100             e:/psdk3v2/psdk3v2-master/ps3dev/ppu/bin/../lib/gcc/powerpc64-ps3-elf/4.5.2/../../../../powerpc64-ps3-elf/lib\libc.a(lib_a-gdtoa-gethex.o)
buffer              0x10000           main.o
stat1               0x34              main.o

Discarded input sections

 .note.GNU-stack
                0x0000000000000000        0x0 ../liblv2.a(sprx.o)

Memory Configuration

Name             Origin             Length             Attributes
*default*        0x0000000000000000 0xffffffffffffffff

Linker script and memory map

                0x0000000000010000                PROVIDE (__executable_start, 0x10000)
                0x0000000000010200                . = (0x10000 + SIZEOF_HEADERS)

.interp
 *(.interp)

.hash
 *(.hash)

.dynsym
 *(.dynsym)

.dynstr
 *(.dynstr)

.gnu.version
 *(.gnu.version)

.gnu.version_d
 *(.gnu.version_d)

.gnu.version_r
 *(.gnu.version_r)

.rel.dyn
 *(.rel.init)
 *(.rel.text .rel.text.* .rel.gnu.linkonce.t.*)
 *(.rel.fini)
 *(.rel.rodata .rel.rodata.* .rel.gnu.linkonce.r.*)
 *(.rel.data.rel.ro*)
 *(.rel.data .rel.data.* .rel.gnu.linkonce.d.*)
 *(.rel.tdata .rel.tdata.* .rel.gnu.linkonce.td.*)
 *(.rel.tbss .rel.tbss.* .rel.gnu.linkonce.tb.*)
 *(.rel.ctors)
 *(.rel.dtors)
 *(.rel.got)
 *(.rel.sdata .rel.sdata.* .rel.gnu.linkonce.s.*)
 *(.rel.sbss .rel.sbss.* .rel.gnu.linkonce.sb.*)
 *(.rel.sdata2 .rel.sdata2.* .rel.gnu.linkonce.s2.*)
 *(.rel.sbss2 .rel.sbss2.* .rel.gnu.linkonce.sb2.*)
 *(.rel.bss .rel.bss.* .rel.gnu.linkonce.b.*)

.rela.dyn       0x0000000000010200        0x0
 *(.rela.init)
 *(.rela.text .rela.text.* .rela.gnu.linkonce.t.*)
 *(.rela.fini)
 *(.rela.rodata .rela.rodata.* .rela.gnu.linkonce.r.*)
 *(.rela.data .rela.data.* .rela.gnu.linkonce.d.*)
 *(.rela.tdata .rela.tdata.* .rela.gnu.linkonce.td.*)
 *(.rela.tbss .rela.tbss.* .rela.gnu.linkonce.tb.*)
 *(.rela.ctors)
 *(.rela.dtors)
 *(.rela.got)
 *(.rela.toc)
 .rela.toc      0x0000000000000000        0x0 linker stubs
 *(.rela.sdata .rela.sdata.* .rela.gnu.linkonce.s.*)
 *(.rela.sbss .rela.sbss.* .rela.gnu.linkonce.sb.*)
 *(.rela.sdata2 .rela.sdata2.* .rela.gnu.linkonce.s2.*)
 *(.rela.sbss2 .rela.sbss2.* .rela.gnu.linkonce.sb2.*)
 *(.rela.bss .rela.bss.* .rela.gnu.linkonce.b.*)
 .rela.iplt     0x0000000000000000        0x0 linker stubs
 .rela.sys_proc_prx_param
                0x0000000000000000        0x0 linker stubs
 .rela.opd      0x0000000000000000        0x0 linker stubs

.rel.plt
 *(.rel.plt)

.rela.plt
 *(.rela.plt)

.rela.tocbss
 *(.rela.tocbss)

.init           0x0000000000010200       0x2c
 *(.init)
 .init          0x0000000000010200        0xc e:/psdk3v2/psdk3v2-master/ps3dev/ppu/bin/../lib/gcc/powerpc64-ps3-elf/4.5.2/../../../../powerpc64-ps3-elf/lib/lv2-crti.o
                0x0000000000010200                ._init
 .init          0x000000000001020c        0x8 e:/psdk3v2/psdk3v2-master/ps3dev/ppu/bin/../lib/gcc/powerpc64-ps3-elf/4.5.2/crtbegin.o
 .init          0x0000000000010214        0x8 e:/psdk3v2/psdk3v2-master/ps3dev/ppu/bin/../lib/gcc/powerpc64-ps3-elf/4.5.2/crtend.o
 .init          0x000000000001021c       0x10 e:/psdk3v2/psdk3v2-master/ps3dev/ppu/bin/../lib/gcc/powerpc64-ps3-elf/4.5.2/../../../../powerpc64-ps3-elf/lib/lv2-crtn.o

.text           0x0000000000010230    0x1b97c
 *(.text .stub .text.* .gnu.linkonce.t.*)
 .text          0x0000000000010230        0x0 e:/psdk3v2/psdk3v2-master/ps3dev/ppu/bin/../lib/gcc/powerpc64-ps3-elf/4.5.2/../../../../powerpc64-ps3-elf/lib/lv2-crti.o
 .text          0x0000000000010230        0x0 e:/psdk3v2/psdk3v2-master/ps3dev/ppu/bin/../lib/gcc/powerpc64-ps3-elf/4.5.2/crtbegin.o
 .text.__do_global_dtors_aux
                0x0000000000010230       0xc8 e:/psdk3v2/psdk3v2-master/ps3dev/ppu/bin/../lib/gcc/powerpc64-ps3-elf/4.5.2/crtbegin.o
 .text.frame_dummy
                0x00000000000102f8       0x70 e:/psdk3v2/psdk3v2-master/ps3dev/ppu/bin/../lib/gcc/powerpc64-ps3-elf/4.5.2/crtbegin.o
 .text          0x0000000000010368       0x58 e:/psdk3v2/psdk3v2-master/ps3dev/ppu/bin/../lib/gcc/powerpc64-ps3-elf/4.5.2/../../../../powerpc64-ps3-elf/lib/lv2-crt0.o
                0x0000000000010368                ._start
 .text.__syscalls_init
                0x00000000000103c0      0x15c e:/psdk3v2/psdk3v2-master/ps3dev/ppu/bin/../lib/gcc/powerpc64-ps3-elf/4.5.2/../../../../powerpc64-ps3-elf/lib/lv2-crt0.o
 *fill*         0x000000000001051c        0x4 60000000
 .text._initialize
                0x0000000000010520       0x40 e:/psdk3v2/psdk3v2-master/ps3dev/ppu/bin/../lib/gcc/powerpc64-ps3-elf/4.5.2/../../../../powerpc64-ps3-elf/lib/lv2-crt0.o
                0x0000000000010520                ._initialize
 .text          0x0000000000010560        0x0 e:/psdk3v2/psdk3v2-master/ps3dev/ppu/bin/../lib/gcc/powerpc64-ps3-elf/4.5.2/../../../../powerpc64-ps3-elf/lib/lv2-sprx.o
 .text          0x0000000000010560        0x0 main.o
 .text.console_write
                0x0000000000010560       0x44 main.o
                0x0000000000010560                .console_write
 *fill*         0x00000000000105a4        0x4 60000000
 .text.lv2peek  0x00000000000105a8       0x28 main.o
                0x00000000000105a8                .lv2peek
 .text.lv2poke  0x00000000000105d0       0x28 main.o
                0x00000000000105d0                .lv2poke
 .text.lv2peek32
                0x00000000000105f8       0x2c main.o
                0x00000000000105f8                .lv2peek32
 *fill*         0x0000000000010624        0x4 60000000
 .text.lv2poke32
                0x0000000000010628       0x58 main.o
                0x0000000000010628                .lv2poke32
 .text.find_syscall
                0x0000000000010680       0xd4 main.o
                0x0000000000010680                .find_syscall
 *fill*         0x0000000000010754        0x4 60000000
 .text.reverse_search64
                0x0000000000010758       0x98 main.o
                0x0000000000010758                .reverse_search64
 .text.search64
                0x00000000000107f0       0x90 main.o
                0x00000000000107f0                .search64
 .text.find_syscall_table
                0x0000000000010880       0xf4 main.o
                0x0000000000010880                .find_syscall_table
 *fill*         0x0000000000010974        0x4 60000000
 .text.get_lv2_version
                0x0000000000010978       0xc0 main.o
                0x0000000000010978                .get_lv2_version
 .text.get_syscall_table
                0x0000000000010a38       0xa4 main.o
                0x0000000000010a38                .get_syscall_table
 *fill*         0x0000000000010adc        0x4 60000000
 .text.install_syscall
                0x0000000000010ae0       0xf4 main.o
                0x0000000000010ae0                .install_syscall
 *fill*         0x0000000000010bd4        0x4 60000000
 .text.find_vsh_process_obj
                0x0000000000010bd8       0xb4 main.o
                0x0000000000010bd8                .find_vsh_process_obj
 *fill*         0x0000000000010c8c        0x4 60000000
 .text.lv2_memcpy
                0x0000000000010c90       0x2c main.o
                0x0000000000010c90                .lv2_memcpy
 *fill*         0x0000000000010cbc        0x4 60000000
 .text.dump_lv2
                0x0000000000010cc0       0xb4 main.o
                0x0000000000010cc0                .dump_lv2
 *fill*         0x0000000000010d74        0x4 60000000
 .text.write_htab
                0x0000000000010d78       0xcc main.o
                0x0000000000010d78                .write_htab
 *fill*         0x0000000000010e44        0x4 60000000
 .text.lv2_patch_error
                0x0000000000010e48       0xa4 main.o
                0x0000000000010e48                .lv2_patch_error
 *fill*         0x0000000000010eec        0x4 60000000
 .text.print_hex
                0x0000000000010ef0       0x94 main.o
                0x0000000000010ef0                .print_hex
 *fill*         0x0000000000010f84        0x4 60000000
 .text.get_idps
                0x0000000000010f88       0x28 main.o
                0x0000000000010f88                .get_idps
 .text.get_psid
                0x0000000000010fb0       0x28 main.o
                0x0000000000010fb0                .get_psid
 .text.ring_buzzer
                0x0000000000010fd8       0x34 main.o
                0x0000000000010fd8                .ring_buzzer
 *fill*         0x000000000001100c        0x4 60000000
 .text.be64     0x0000000000011010       0x24 main.o
                0x0000000000011010                .be64
 *fill*         0x0000000000011034        0x4 60000000
 .text.be32     0x0000000000011038       0x14 main.o
                0x0000000000011038                .be32
 *fill*         0x000000000001104c        0x4 60000000
 .text.wbe64    0x0000000000011050       0x20 main.o
                0x0000000000011050                .wbe64
 .text.wbe32    0x0000000000011070       0x14 main.o
                0x0000000000011070                .wbe32
 *fill*         0x0000000000011084        0x4 60000000
 .text.wbe16    0x0000000000011088       0x14 main.o
                0x0000000000011088                .wbe16
 *fill*         0x000000000001109c        0x4 60000000
 .text.wbe8     0x00000000000110a0       0x14 main.o
                0x00000000000110a0                .wbe8
 *fill*         0x00000000000110b4        0x4 60000000
 .text.get_rand
                0x00000000000110b8       0x8c main.o
                0x00000000000110b8                .get_rand
 *fill*         0x0000000000011144        0x4 60000000
 .text.load_prx_module
                0x0000000000011148       0x58 main.o
                0x0000000000011148                .load_prx_module
 .text.read_file
                0x00000000000111a0      0x110 main.o
                0x00000000000111a0                .read_file
 .text.write_file
                0x00000000000112b0       0x9c main.o
                0x00000000000112b0                .write_file
 *fill*         0x000000000001134c        0x4 60000000
 .text.load_all_prx
                0x0000000000011350      0x194 main.o
                0x0000000000011350                .load_all_prx
 *fill*         0x00000000000114e4        0x4 60000000
 .text.launchself
                0x00000000000114e8       0x48 main.o
                0x00000000000114e8                .launchself
 .text.launchselfback
                0x0000000000011530       0x48 main.o
                0x0000000000011530                .launchselfback
 .text.sys_fs_mount_ext
                0x0000000000011578       0x44 main.o
                0x0000000000011578                .sys_fs_mount_ext
 *fill*         0x00000000000115bc        0x4 60000000
 .text.sys_fs_umount
                0x00000000000115c0       0x34 main.o
                0x00000000000115c0                .sys_fs_umount
 *fill*         0x00000000000115f4        0x4 60000000
 .text.filestat
                0x00000000000115f8       0x64 main.o
                0x00000000000115f8                .filestat
 *fill*         0x000000000001165c        0x4 60000000
 .text.unlink_secure
                0x0000000000011660       0x8c main.o
                0x0000000000011660                .unlink_secure
 *fill*         0x00000000000116ec        0x4 60000000
 .text.sys_shutdown
                0x00000000000116f0       0x4c main.o
                0x00000000000116f0                .sys_shutdown
 *fill*         0x000000000001173c        0x4 60000000
 .text.mount_flash
                0x0000000000011740       0x8c main.o
                0x0000000000011740                .mount_flash
 *fill*         0x00000000000117cc        0x4 60000000
 .text.file_copy
                0x00000000000117d0      0x23c main.o
                0x00000000000117d0                .file_copy
 *fill*         0x0000000000011a0c        0x4 60000000
 .text.main     0x0000000000011a10      0x184 main.o
                0x0000000000011a10                .main
 .text          0x0000000000011b94        0x0 ../liblv2.a(sprx.o)
 .text          0x0000000000011b94        0x0 e:/psdk3v2/psdk3v2-master/ps3dev/ppu/bin/../lib/gcc/powerpc64-ps3-elf/4.5.2/../../../../powerpc64-ps3-elf/lib\libsysbase.a(syscalls.o)
 .text          0x0000000000011b94        0x0 e:/psdk3v2/psdk3v2-master/ps3dev/ppu/bin/../lib/gcc/powerpc64-ps3-elf/4.5.2/../../../../powerpc64-ps3-elf/lib\libc.a(lib_a-exit.o)
 *fill*         0x0000000000011b94        0x4 60000000
 .text.exit     0x0000000000011b98       0x68 e:/psdk3v2/psdk3v2-master/ps3dev/ppu/bin/../lib/gcc/powerpc64-ps3-elf/4.5.2/../../../../powerpc64-ps3-elf/lib\libc.a(lib_a-exit.o)
                0x0000000000011b98                .exit
 .text          0x0000000000011c00        0x0 e:/psdk3v2/psdk3v2-master/ps3dev/ppu/bin/../lib/gcc/powerpc64-ps3-elf/4.5.2/../../../../powerpc64-ps3-elf/lib\libc.a(lib_a-fclose.o)
 .text._fclose_r
                0x0000000000011c00      0x1ec e:/psdk3v2/psdk3v2-master/ps3dev/ppu/bin/../lib/gcc/powerpc64-ps3-elf/4.5.2/../../../../powerpc64-ps3-elf/lib\libc.a(lib_a-fclose.o)
                0x0000000000011c00                ._fclose_r
 *fill*         0x0000000000011dec        0x4 60000000
 .text.fclose   0x0000000000011df0       0x40 e:/psdk3v2/psdk3v2-master/ps3dev/ppu/bin/../lib/gcc/powerpc64-ps3-elf/4.5.2/../../../../powerpc64-ps3-elf/lib\libc.a(lib_a-fclose.o)
                0x0000000000011df0                .fclose
 .text          0x0000000000011e30        0x0 e:/psdk3v2/psdk3v2-master/ps3dev/ppu/bin/../lib/gcc/powerpc64-ps3-elf/4.5.2/../../../../powerpc64-ps3-elf/lib\libc.a(lib_a-fflush.o)
 .text._fflush_r
                0x0000000000011e30      0x410 e:/psdk3v2/psdk3v2-master/ps3dev/ppu/bin/../lib/gcc/powerpc64-ps3-elf/4.5.2/../../../../powerpc64-ps3-elf/lib\libc.a(lib_a-fflush.o)
                0x0000000000011e30                ._fflush_r
 .text.fflush   0x0000000000012240       0x74 e:/psdk3v2/psdk3v2-master/ps3dev/ppu/bin/../lib/gcc/powerpc64-ps3-elf/4.5.2/../../../../powerpc64-ps3-elf/lib\libc.a(lib_a-fflush.o)
                0x0000000000012240                .fflush
 .text          0x00000000000122b4        0x0 e:/psdk3v2/psdk3v2-master/ps3dev/ppu/bin/../lib/gcc/powerpc64-ps3-elf/4.5.2/../../../../powerpc64-ps3-elf/lib\libc.a(lib_a-fgets.o)
 *fill*         0x00000000000122b4        0x4 60000000
 .text._fgets_r
                0x00000000000122b8      0x268 e:/psdk3v2/psdk3v2-master/ps3dev/ppu/bin/../lib/gcc/powerpc64-ps3-elf/4.5.2/../../../../powerpc64-ps3-elf/lib\libc.a(lib_a-fgets.o)
                0x00000000000122b8                ._fgets_r
 .text.fgets    0x0000000000012520       0x60 e:/psdk3v2/psdk3v2-master/ps3dev/ppu/bin/../lib/gcc/powerpc64-ps3-elf/4.5.2/../../../../powerpc64-ps3-elf/lib\libc.a(lib_a-fgets.o)
                0x0000000000012520                .fgets
 .text          0x0000000000012580        0x0 e:/psdk3v2/psdk3v2-master/ps3dev/ppu/bin/../lib/gcc/powerpc64-ps3-elf/4.5.2/../../../../powerpc64-ps3-elf/lib\libc.a(lib_a-findfp.o)
 .text._cleanup_r
                0x0000000000012580       0x34 e:/psdk3v2/psdk3v2-master/ps3dev/ppu/bin/../lib/gcc/powerpc64-ps3-elf/4.5.2/../../../../powerpc64-ps3-elf/lib\libc.a(lib_a-findfp.o)
                0x0000000000012580                ._cleanup_r
 *fill*         0x00000000000125b4        0x4 60000000
 .text.__fp_unlock
                0x00000000000125b8       0x48 e:/psdk3v2/psdk3v2-master/ps3dev/ppu/bin/../lib/gcc/powerpc64-ps3-elf/4.5.2/../../../../powerpc64-ps3-elf/lib\libc.a(lib_a-findfp.o)
 .text.__fp_lock
                0x0000000000012600       0x48 e:/psdk3v2/psdk3v2-master/ps3dev/ppu/bin/../lib/gcc/powerpc64-ps3-elf/4.5.2/../../../../powerpc64-ps3-elf/lib\libc.a(lib_a-findfp.o)
 .text.__sfmoreglue
                0x0000000000012648       0x94 e:/psdk3v2/psdk3v2-master/ps3dev/ppu/bin/../lib/gcc/powerpc64-ps3-elf/4.5.2/../../../../powerpc64-ps3-elf/lib\libc.a(lib_a-findfp.o)
                0x0000000000012648                .__sfmoreglue
 *fill*         0x00000000000126dc        0x4 60000000
 .text._cleanup
                0x00000000000126e0       0x18 e:/psdk3v2/psdk3v2-master/ps3dev/ppu/bin/../lib/gcc/powerpc64-ps3-elf/4.5.2/../../../../powerpc64-ps3-elf/lib\libc.a(lib_a-findfp.o)
                0x00000000000126e0                ._cleanup
 .text.__sfp_lock_acquire
                0x00000000000126f8       0x34 e:/psdk3v2/psdk3v2-master/ps3dev/ppu/bin/../lib/gcc/powerpc64-ps3-elf/4.5.2/../../../../powerpc64-ps3-elf/lib\libc.a(lib_a-findfp.o)
                0x00000000000126f8                .__sfp_lock_acquire
 *fill*         0x000000000001272c        0x4 60000000
 .text.__sfp_lock_release
                0x0000000000012730       0x34 e:/psdk3v2/psdk3v2-master/ps3dev/ppu/bin/../lib/gcc/powerpc64-ps3-elf/4.5.2/../../../../powerpc64-ps3-elf/lib\libc.a(lib_a-findfp.o)
                0x0000000000012730                .__sfp_lock_release
 *fill*         0x0000000000012764        0x4 60000000
 .text.__sinit_lock_acquire
                0x0000000000012768       0x34 e:/psdk3v2/psdk3v2-master/ps3dev/ppu/bin/../lib/gcc/powerpc64-ps3-elf/4.5.2/../../../../powerpc64-ps3-elf/lib\libc.a(lib_a-findfp.o)
                0x0000000000012768                .__sinit_lock_acquire
 *fill*         0x000000000001279c        0x4 60000000
 .text.__sinit_lock_release
                0x00000000000127a0       0x34 e:/psdk3v2/psdk3v2-master/ps3dev/ppu/bin/../lib/gcc/powerpc64-ps3-elf/4.5.2/../../../../powerpc64-ps3-elf/lib\libc.a(lib_a-findfp.o)
                0x00000000000127a0                .__sinit_lock_release
 *fill*         0x00000000000127d4        0x4 60000000
 .text.__sinit  0x00000000000127d8      0x1d8 e:/psdk3v2/psdk3v2-master/ps3dev/ppu/bin/../lib/gcc/powerpc64-ps3-elf/4.5.2/../../../../powerpc64-ps3-elf/lib\libc.a(lib_a-findfp.o)
                0x00000000000127d8                .__sinit
 .text.__sfp    0x00000000000129b0      0x190 e:/psdk3v2/psdk3v2-master/ps3dev/ppu/bin/../lib/gcc/powerpc64-ps3-elf/4.5.2/../../../../powerpc64-ps3-elf/lib\libc.a(lib_a-findfp.o)
                0x00000000000129b0                .__sfp
 .text.__fp_lock_all
                0x0000000000012b40       0x40 e:/psdk3v2/psdk3v2-master/ps3dev/ppu/bin/../lib/gcc/powerpc64-ps3-elf/4.5.2/../../../../powerpc64-ps3-elf/lib\libc.a(lib_a-findfp.o)
                0x0000000000012b40                .__fp_lock_all
 .text.__fp_unlock_all
                0x0000000000012b80       0x3c e:/psdk3v2/psdk3v2-master/ps3dev/ppu/bin/../lib/gcc/powerpc64-ps3-elf/4.5.2/../../../../powerpc64-ps3-elf/lib\libc.a(lib_a-findfp.o)
                0x0000000000012b80                .__fp_unlock_all
 .text          0x0000000000012bbc        0x0 e:/psdk3v2/psdk3v2-master/ps3dev/ppu/bin/../lib/gcc/powerpc64-ps3-elf/4.5.2/../../../../powerpc64-ps3-elf/lib\libc.a(lib_a-fopen.o)
 *fill*         0x0000000000012bbc        0x4 60000000
 .text._fopen_r
                0x0000000000012bc0      0x180 e:/psdk3v2/psdk3v2-master/ps3dev/ppu/bin/../lib/gcc/powerpc64-ps3-elf/4.5.2/../../../../powerpc64-ps3-elf/lib\libc.a(lib_a-fopen.o)
                0x0000000000012bc0                ._fopen_r
 .text.fopen    0x0000000000012d40       0x50 e:/psdk3v2/psdk3v2-master/ps3dev/ppu/bin/../lib/gcc/powerpc64-ps3-elf/4.5.2/../../../../powerpc64-ps3-elf/lib\libc.a(lib_a-fopen.o)
                0x0000000000012d40                .fopen
 .text          0x0000000000012d90        0x0 e:/psdk3v2/psdk3v2-master/ps3dev/ppu/bin/../lib/gcc/powerpc64-ps3-elf/4.5.2/../../../../powerpc64-ps3-elf/lib\libc.a(lib_a-fread.o)
 .text._fread_r
                0x0000000000012d90      0x460 e:/psdk3v2/psdk3v2-master/ps3dev/ppu/bin/../lib/gcc/powerpc64-ps3-elf/4.5.2/../../../../powerpc64-ps3-elf/lib\libc.a(lib_a-fread.o)
                0x0000000000012d90                ._fread_r
 .text.fread    0x00000000000131f0       0x70 e:/psdk3v2/psdk3v2-master/ps3dev/ppu/bin/../lib/gcc/powerpc64-ps3-elf/4.5.2/../../../../powerpc64-ps3-elf/lib\libc.a(lib_a-fread.o)
                0x00000000000131f0                .fread
 .text          0x0000000000013260        0x0 e:/psdk3v2/psdk3v2-master/ps3dev/ppu/bin/../lib/gcc/powerpc64-ps3-elf/4.5.2/../../../../powerpc64-ps3-elf/lib\libc.a(lib_a-freer.o)
 .text._malloc_trim_r
                0x0000000000013260      0x15c e:/psdk3v2/psdk3v2-master/ps3dev/ppu/bin/../lib/gcc/powerpc64-ps3-elf/4.5.2/../../../../powerpc64-ps3-elf/lib\libc.a(lib_a-freer.o)
                0x0000000000013260                ._malloc_trim_r
 *fill*         0x00000000000133bc        0x4 60000000
 .text._free_r  0x00000000000133c0      0x310 e:/psdk3v2/psdk3v2-master/ps3dev/ppu/bin/../lib/gcc/powerpc64-ps3-elf/4.5.2/../../../../powerpc64-ps3-elf/lib\libc.a(lib_a-freer.o)
                0x00000000000133c0                ._free_r
 .text          0x00000000000136d0        0x0 e:/psdk3v2/psdk3v2-master/ps3dev/ppu/bin/../lib/gcc/powerpc64-ps3-elf/4.5.2/../../../../powerpc64-ps3-elf/lib\libc.a(lib_a-fseek.o)
 .text._fseek_r
                0x00000000000136d0      0x6b4 e:/psdk3v2/psdk3v2-master/ps3dev/ppu/bin/../lib/gcc/powerpc64-ps3-elf/4.5.2/../../../../powerpc64-ps3-elf/lib\libc.a(lib_a-fseek.o)
                0x00000000000136d0                ._fseek_r
 *fill*         0x0000000000013d84        0x4 60000000
 .text.fseek    0x0000000000013d88       0x60 e:/psdk3v2/psdk3v2-master/ps3dev/ppu/bin/../lib/gcc/powerpc64-ps3-elf/4.5.2/../../../../powerpc64-ps3-elf/lib\libc.a(lib_a-fseek.o)
                0x0000000000013d88                .fseek
 .text          0x0000000000013de8        0x0 e:/psdk3v2/psdk3v2-master/ps3dev/ppu/bin/../lib/gcc/powerpc64-ps3-elf/4.5.2/../../../../powerpc64-ps3-elf/lib\libc.a(lib_a-ftell.o)
 .text._ftell_r
                0x0000000000013de8      0x1f4 e:/psdk3v2/psdk3v2-master/ps3dev/ppu/bin/../lib/gcc/powerpc64-ps3-elf/4.5.2/../../../../powerpc64-ps3-elf/lib\libc.a(lib_a-ftell.o)
                0x0000000000013de8                ._ftell_r
 *fill*         0x0000000000013fdc        0x4 60000000
 .text.ftell    0x0000000000013fe0       0x40 e:/psdk3v2/psdk3v2-master/ps3dev/ppu/bin/../lib/gcc/powerpc64-ps3-elf/4.5.2/../../../../powerpc64-ps3-elf/lib\libc.a(lib_a-ftell.o)
                0x0000000000013fe0                .ftell
 .text          0x0000000000014020        0x0 e:/psdk3v2/psdk3v2-master/ps3dev/ppu/bin/../lib/gcc/powerpc64-ps3-elf/4.5.2/../../../../powerpc64-ps3-elf/lib\libc.a(lib_a-fwalk.o)
 .text._fwalk   0x0000000000014020       0xfc e:/psdk3v2/psdk3v2-master/ps3dev/ppu/bin/../lib/gcc/powerpc64-ps3-elf/4.5.2/../../../../powerpc64-ps3-elf/lib\libc.a(lib_a-fwalk.o)
                0x0000000000014020                ._fwalk
 *fill*         0x000000000001411c        0x4 60000000
 .text._fwalk_reent
                0x0000000000014120      0x108 e:/psdk3v2/psdk3v2-master/ps3dev/ppu/bin/../lib/gcc/powerpc64-ps3-elf/4.5.2/../../../../powerpc64-ps3-elf/lib\libc.a(lib_a-fwalk.o)
                0x0000000000014120                ._fwalk_reent
 .text          0x0000000000014228        0x0 e:/psdk3v2/psdk3v2-master/ps3dev/ppu/bin/../lib/gcc/powerpc64-ps3-elf/4.5.2/../../../../powerpc64-ps3-elf/lib\libc.a(lib_a-fwrite.o)
 .text._fwrite_r
                0x0000000000014228      0x1c8 e:/psdk3v2/psdk3v2-master/ps3dev/ppu/bin/../lib/gcc/powerpc64-ps3-elf/4.5.2/../../../../powerpc64-ps3-elf/lib\libc.a(lib_a-fwrite.o)
                0x0000000000014228                ._fwrite_r
 .text.fwrite   0x00000000000143f0       0x70 e:/psdk3v2/psdk3v2-master/ps3dev/ppu/bin/../lib/gcc/powerpc64-ps3-elf/4.5.2/../../../../powerpc64-ps3-elf/lib\libc.a(lib_a-fwrite.o)
                0x00000000000143f0                .fwrite
 .text          0x0000000000014460        0x0 e:/psdk3v2/psdk3v2-master/ps3dev/ppu/bin/../lib/gcc/powerpc64-ps3-elf/4.5.2/../../../../powerpc64-ps3-elf/lib\libc.a(lib_a-getreent.o)
 .text.__getreent
                0x0000000000014460      0x1f0 e:/psdk3v2/psdk3v2-master/ps3dev/ppu/bin/../lib/gcc/powerpc64-ps3-elf/4.5.2/../../../../powerpc64-ps3-elf/lib\libc.a(lib_a-getreent.o)
                0x0000000000014460                .__getreent
 .text          0x0000000000014650        0x0 e:/psdk3v2/psdk3v2-master/ps3dev/ppu/bin/../lib/gcc/powerpc64-ps3-elf/4.5.2/../../../../powerpc64-ps3-elf/lib\libc.a(lib_a-impure.o)
 .text          0x0000000000014650        0x0 e:/psdk3v2/psdk3v2-master/ps3dev/ppu/bin/../lib/gcc/powerpc64-ps3-elf/4.5.2/../../../../powerpc64-ps3-elf/lib\libc.a(lib_a-lock_recursive.o)
 .text.__libc_lock_init_recursive
                0x0000000000014650       0x34 e:/psdk3v2/psdk3v2-master/ps3dev/ppu/bin/../lib/gcc/powerpc64-ps3-elf/4.5.2/../../../../powerpc64-ps3-elf/lib\libc.a(lib_a-lock_recursive.o)
                0x0000000000014650                .__libc_lock_init_recursive
 *fill*         0x0000000000014684        0x4 60000000
 .text.__libc_lock_close_recursive
                0x0000000000014688       0x30 e:/psdk3v2/psdk3v2-master/ps3dev/ppu/bin/../lib/gcc/powerpc64-ps3-elf/4.5.2/../../../../powerpc64-ps3-elf/lib\libc.a(lib_a-lock_recursive.o)
                0x0000000000014688                .__libc_lock_close_recursive
 .text.__libc_lock_acquire_recursive
                0x00000000000146b8       0x58 e:/psdk3v2/psdk3v2-master/ps3dev/ppu/bin/../lib/gcc/powerpc64-ps3-elf/4.5.2/../../../../powerpc64-ps3-elf/lib\libc.a(lib_a-lock_recursive.o)
                0x00000000000146b8                .__libc_lock_acquire_recursive
 .text.__libc_lock_try_acquire_recursive
                0x0000000000014710       0x54 e:/psdk3v2/psdk3v2-master/ps3dev/ppu/bin/../lib/gcc/powerpc64-ps3-elf/4.5.2/../../../../powerpc64-ps3-elf/lib\libc.a(lib_a-lock_recursive.o)
                0x0000000000014710                .__libc_lock_try_acquire_recursive
 *fill*         0x0000000000014764        0x4 60000000
 .text.__libc_lock_release_recursive
                0x0000000000014768       0x54 e:/psdk3v2/psdk3v2-master/ps3dev/ppu/bin/../lib/gcc/powerpc64-ps3-elf/4.5.2/../../../../powerpc64-ps3-elf/lib\libc.a(lib_a-lock_recursive.o)
                0x0000000000014768                .__libc_lock_release_recursive
 .text          0x00000000000147bc        0x0 e:/psdk3v2/psdk3v2-master/ps3dev/ppu/bin/../lib/gcc/powerpc64-ps3-elf/4.5.2/../../../../powerpc64-ps3-elf/lib\libc.a(lib_a-makebuf.o)
 *fill*         0x00000000000147bc        0x4 60000000
 .text.__smakebuf_r
                0x00000000000147c0      0x228 e:/psdk3v2/psdk3v2-master/ps3dev/ppu/bin/../lib/gcc/powerpc64-ps3-elf/4.5.2/../../../../powerpc64-ps3-elf/lib\libc.a(lib_a-makebuf.o)
                0x00000000000147c0                .__smakebuf_r
 .text          0x00000000000149e8        0x0 e:/psdk3v2/psdk3v2-master/ps3dev/ppu/bin/../lib/gcc/powerpc64-ps3-elf/4.5.2/../../../../powerpc64-ps3-elf/lib\libc.a(lib_a-malloc.o)
 .text.malloc   0x00000000000149e8       0x48 e:/psdk3v2/psdk3v2-master/ps3dev/ppu/bin/../lib/gcc/powerpc64-ps3-elf/4.5.2/../../../../powerpc64-ps3-elf/lib\libc.a(lib_a-malloc.o)
                0x00000000000149e8                .malloc
 .text.free     0x0000000000014a30       0x48 e:/psdk3v2/psdk3v2-master/ps3dev/ppu/bin/../lib/gcc/powerpc64-ps3-elf/4.5.2/../../../../powerpc64-ps3-elf/lib\libc.a(lib_a-malloc.o)
                0x0000000000014a30                .free
 .text          0x0000000000014a78        0x0 e:/psdk3v2/psdk3v2-master/ps3dev/ppu/bin/../lib/gcc/powerpc64-ps3-elf/4.5.2/../../../../powerpc64-ps3-elf/lib\libc.a(lib_a-mallocr.o)
 .text._malloc_r
                0x0000000000014a78      0x944 e:/psdk3v2/psdk3v2-master/ps3dev/ppu/bin/../lib/gcc/powerpc64-ps3-elf/4.5.2/../../../../powerpc64-ps3-elf/lib\libc.a(lib_a-mallocr.o)
                0x0000000000014a78                ._malloc_r
 .text          0x00000000000153bc        0x0 e:/psdk3v2/psdk3v2-master/ps3dev/ppu/bin/../lib/gcc/powerpc64-ps3-elf/4.5.2/../../../../powerpc64-ps3-elf/lib\libc.a(lib_a-memchr.o)
 *fill*         0x00000000000153bc        0x4 60000000
 .text.memchr   0x00000000000153c0      0x13c e:/psdk3v2/psdk3v2-master/ps3dev/ppu/bin/../lib/gcc/powerpc64-ps3-elf/4.5.2/../../../../powerpc64-ps3-elf/lib\libc.a(lib_a-memchr.o)
                0x00000000000153c0                .memchr
 .text          0x00000000000154fc        0x0 e:/psdk3v2/psdk3v2-master/ps3dev/ppu/bin/../lib/gcc/powerpc64-ps3-elf/4.5.2/../../../../powerpc64-ps3-elf/lib\libc.a(lib_a-memcpy.o)
 *fill*         0x00000000000154fc        0x4 60000000
 .text.memcpy   0x0000000000015500       0xf8 e:/psdk3v2/psdk3v2-master/ps3dev/ppu/bin/../lib/gcc/powerpc64-ps3-elf/4.5.2/../../../../powerpc64-ps3-elf/lib\libc.a(lib_a-memcpy.o)
                0x0000000000015500                .memcpy
 .text          0x00000000000155f8        0x0 e:/psdk3v2/psdk3v2-master/ps3dev/ppu/bin/../lib/gcc/powerpc64-ps3-elf/4.5.2/../../../../powerpc64-ps3-elf/lib\libc.a(lib_a-memset.o)
 .text.memset   0x00000000000155f8      0x130 e:/psdk3v2/psdk3v2-master/ps3dev/ppu/bin/../lib/gcc/powerpc64-ps3-elf/4.5.2/../../../../powerpc64-ps3-elf/lib\libc.a(lib_a-memset.o)
                0x00000000000155f8                .memset
 .text          0x0000000000015728        0x0 e:/psdk3v2/psdk3v2-master/ps3dev/ppu/bin/../lib/gcc/powerpc64-ps3-elf/4.5.2/../../../../powerpc64-ps3-elf/lib\libc.a(lib_a-mlock.o)
 .text.__malloc_lock
                0x0000000000015728       0x34 e:/psdk3v2/psdk3v2-master/ps3dev/ppu/bin/../lib/gcc/powerpc64-ps3-elf/4.5.2/../../../../powerpc64-ps3-elf/lib\libc.a(lib_a-mlock.o)
                0x0000000000015728                .__malloc_lock
 *fill*         0x000000000001575c        0x4 60000000
 .text.__malloc_unlock
                0x0000000000015760       0x34 e:/psdk3v2/psdk3v2-master/ps3dev/ppu/bin/../lib/gcc/powerpc64-ps3-elf/4.5.2/../../../../powerpc64-ps3-elf/lib\libc.a(lib_a-mlock.o)
                0x0000000000015760                .__malloc_unlock
 .text          0x0000000000015794        0x0 e:/psdk3v2/psdk3v2-master/ps3dev/ppu/bin/../lib/gcc/powerpc64-ps3-elf/4.5.2/../../../../powerpc64-ps3-elf/lib\libc.a(lib_a-printf.o)
 *fill*         0x0000000000015794        0x4 60000000
 .text._printf_r
                0x0000000000015798       0x58 e:/psdk3v2/psdk3v2-master/ps3dev/ppu/bin/../lib/gcc/powerpc64-ps3-elf/4.5.2/../../../../powerpc64-ps3-elf/lib\libc.a(lib_a-printf.o)
                0x0000000000015798                ._printf_r
 .text.printf   0x00000000000157f0       0x6c e:/psdk3v2/psdk3v2-master/ps3dev/ppu/bin/../lib/gcc/powerpc64-ps3-elf/4.5.2/../../../../powerpc64-ps3-elf/lib\libc.a(lib_a-printf.o)
                0x00000000000157f0                .printf
 .text          0x000000000001585c        0x0 e:/psdk3v2/psdk3v2-master/ps3dev/ppu/bin/../lib/gcc/powerpc64-ps3-elf/4.5.2/../../../../powerpc64-ps3-elf/lib\libc.a(lib_a-putchar.o)
 *fill*         0x000000000001585c        0x4 60000000
 .text._putchar_r
                0x0000000000015860       0x34 e:/psdk3v2/psdk3v2-master/ps3dev/ppu/bin/../lib/gcc/powerpc64-ps3-elf/4.5.2/../../../../powerpc64-ps3-elf/lib\libc.a(lib_a-putchar.o)
                0x0000000000015860                ._putchar_r
 *fill*         0x0000000000015894        0x4 60000000
 .text.putchar  0x0000000000015898       0x64 e:/psdk3v2/psdk3v2-master/ps3dev/ppu/bin/../lib/gcc/powerpc64-ps3-elf/4.5.2/../../../../powerpc64-ps3-elf/lib\libc.a(lib_a-putchar.o)
                0x0000000000015898                .putchar
 .text          0x00000000000158fc        0x0 e:/psdk3v2/psdk3v2-master/ps3dev/ppu/bin/../lib/gcc/powerpc64-ps3-elf/4.5.2/../../../../powerpc64-ps3-elf/lib\libc.a(lib_a-puts.o)
 *fill*         0x00000000000158fc        0x4 60000000
 .text._puts_r  0x0000000000015900      0x114 e:/psdk3v2/psdk3v2-master/ps3dev/ppu/bin/../lib/gcc/powerpc64-ps3-elf/4.5.2/../../../../powerpc64-ps3-elf/lib\libc.a(lib_a-puts.o)
                0x0000000000015900                ._puts_r
 *fill*         0x0000000000015a14        0x4 60000000
 .text.puts     0x0000000000015a18       0x40 e:/psdk3v2/psdk3v2-master/ps3dev/ppu/bin/../lib/gcc/powerpc64-ps3-elf/4.5.2/../../../../powerpc64-ps3-elf/lib\libc.a(lib_a-puts.o)
                0x0000000000015a18                .puts
 .text          0x0000000000015a58        0x0 e:/psdk3v2/psdk3v2-master/ps3dev/ppu/bin/../lib/gcc/powerpc64-ps3-elf/4.5.2/../../../../powerpc64-ps3-elf/lib\libc.a(lib_a-rand.o)
 .text.srand    0x0000000000015a58       0x40 e:/psdk3v2/psdk3v2-master/ps3dev/ppu/bin/../lib/gcc/powerpc64-ps3-elf/4.5.2/../../../../powerpc64-ps3-elf/lib\libc.a(lib_a-rand.o)
                0x0000000000015a58                .srand
 .text.rand     0x0000000000015a98       0x78 e:/psdk3v2/psdk3v2-master/ps3dev/ppu/bin/../lib/gcc/powerpc64-ps3-elf/4.5.2/../../../../powerpc64-ps3-elf/lib\libc.a(lib_a-rand.o)
                0x0000000000015a98                .rand
 .text          0x0000000000015b10        0x0 e:/psdk3v2/psdk3v2-master/ps3dev/ppu/bin/../lib/gcc/powerpc64-ps3-elf/4.5.2/../../../../powerpc64-ps3-elf/lib\libc.a(lib_a-refill.o)
 .text.lflush   0x0000000000015b10       0x64 e:/psdk3v2/psdk3v2-master/ps3dev/ppu/bin/../lib/gcc/powerpc64-ps3-elf/4.5.2/../../../../powerpc64-ps3-elf/lib\libc.a(lib_a-refill.o)
 *fill*         0x0000000000015b74        0x4 60000000
 .text.__srefill_r
                0x0000000000015b78      0x26c e:/psdk3v2/psdk3v2-master/ps3dev/ppu/bin/../lib/gcc/powerpc64-ps3-elf/4.5.2/../../../../powerpc64-ps3-elf/lib\libc.a(lib_a-refill.o)
                0x0000000000015b78                .__srefill_r
 .text          0x0000000000015de4        0x0 e:/psdk3v2/psdk3v2-master/ps3dev/ppu/bin/../lib/gcc/powerpc64-ps3-elf/4.5.2/../../../../powerpc64-ps3-elf/lib\libc.a(lib_a-sprintf.o)
 *fill*         0x0000000000015de4        0x4 60000000
 .text._sprintf_r
                0x0000000000015de8       0x84 e:/psdk3v2/psdk3v2-master/ps3dev/ppu/bin/../lib/gcc/powerpc64-ps3-elf/4.5.2/../../../../powerpc64-ps3-elf/lib\libc.a(lib_a-sprintf.o)
                0x0000000000015de8                ._sprintf_r
 *fill*         0x0000000000015e6c        0x4 60000000
 .text.sprintf  0x0000000000015e70       0x9c e:/psdk3v2/psdk3v2-master/ps3dev/ppu/bin/../lib/gcc/powerpc64-ps3-elf/4.5.2/../../../../powerpc64-ps3-elf/lib\libc.a(lib_a-sprintf.o)
                0x0000000000015e70                .sprintf
 .text          0x0000000000015f0c        0x0 e:/psdk3v2/psdk3v2-master/ps3dev/ppu/bin/../lib/gcc/powerpc64-ps3-elf/4.5.2/../../../../powerpc64-ps3-elf/lib\libc.a(lib_a-stdio.o)
 *fill*         0x0000000000015f0c        0x4 60000000
 .text.__sread  0x0000000000015f10       0x80 e:/psdk3v2/psdk3v2-master/ps3dev/ppu/bin/../lib/gcc/powerpc64-ps3-elf/4.5.2/../../../../powerpc64-ps3-elf/lib\libc.a(lib_a-stdio.o)
                0x0000000000015f10                .__sread
 .text.__seofread
                0x0000000000015f90       0x14 e:/psdk3v2/psdk3v2-master/ps3dev/ppu/bin/../lib/gcc/powerpc64-ps3-elf/4.5.2/../../../../powerpc64-ps3-elf/lib\libc.a(lib_a-stdio.o)
                0x0000000000015f90                .__seofread
 *fill*         0x0000000000015fa4        0x4 60000000
 .text.__swrite
                0x0000000000015fa8       0xbc e:/psdk3v2/psdk3v2-master/ps3dev/ppu/bin/../lib/gcc/powerpc64-ps3-elf/4.5.2/../../../../powerpc64-ps3-elf/lib\libc.a(lib_a-stdio.o)
                0x0000000000015fa8                .__swrite
 *fill*         0x0000000000016064        0x4 60000000
 .text.__sseek  0x0000000000016068       0x88 e:/psdk3v2/psdk3v2-master/ps3dev/ppu/bin/../lib/gcc/powerpc64-ps3-elf/4.5.2/../../../../powerpc64-ps3-elf/lib\libc.a(lib_a-stdio.o)
                0x0000000000016068                .__sseek
 .text.__sclose
                0x00000000000160f0       0x3c e:/psdk3v2/psdk3v2-master/ps3dev/ppu/bin/../lib/gcc/powerpc64-ps3-elf/4.5.2/../../../../powerpc64-ps3-elf/lib\libc.a(lib_a-stdio.o)
                0x00000000000160f0                .__sclose
 .text          0x000000000001612c        0x0 e:/psdk3v2/psdk3v2-master/ps3dev/ppu/bin/../lib/gcc/powerpc64-ps3-elf/4.5.2/../../../../powerpc64-ps3-elf/lib\libc.a(lib_a-strlen.o)
 *fill*         0x000000000001612c        0x4 60000000
 .text.strlen   0x0000000000016130       0xe4 e:/psdk3v2/psdk3v2-master/ps3dev/ppu/bin/../lib/gcc/powerpc64-ps3-elf/4.5.2/../../../../powerpc64-ps3-elf/lib\libc.a(lib_a-strlen.o)
                0x0000000000016130                .strlen
 .text          0x0000000000016214        0x0 e:/psdk3v2/psdk3v2-master/ps3dev/ppu/bin/../lib/gcc/powerpc64-ps3-elf/4.5.2/../../../../powerpc64-ps3-elf/lib\libc.a(lib_a-svfprintf.o)
 *fill*         0x0000000000016214        0x4 60000000
 .text._svfprintf_r
                0x0000000000016218     0x2120 e:/psdk3v2/psdk3v2-master/ps3dev/ppu/bin/../lib/gcc/powerpc64-ps3-elf/4.5.2/../../../../powerpc64-ps3-elf/lib\libc.a(lib_a-svfprintf.o)
                0x0000000000016218                ._svfprintf_r
 .text          0x0000000000018338        0x0 e:/psdk3v2/psdk3v2-master/ps3dev/ppu/bin/../lib/gcc/powerpc64-ps3-elf/4.5.2/../../../../powerpc64-ps3-elf/lib\libc.a(lib_a-time.o)
 .text.time     0x0000000000018338       0x84 e:/psdk3v2/psdk3v2-master/ps3dev/ppu/bin/../lib/gcc/powerpc64-ps3-elf/4.5.2/../../../../powerpc64-ps3-elf/lib\libc.a(lib_a-time.o)
                0x0000000000018338                .time
 .text          0x00000000000183bc        0x0 e:/psdk3v2/psdk3v2-master/ps3dev/ppu/bin/../lib/gcc/powerpc64-ps3-elf/4.5.2/../../../../powerpc64-ps3-elf/lib\libc.a(lib_a-vfprintf.o)
 *fill*         0x00000000000183bc        0x4 60000000
 .text._vfprintf_r
                0x00000000000183c0     0x22b0 e:/psdk3v2/psdk3v2-master/ps3dev/ppu/bin/../lib/gcc/powerpc64-ps3-elf/4.5.2/../../../../powerpc64-ps3-elf/lib\libc.a(lib_a-vfprintf.o)
                0x00000000000183c0                ._vfprintf_r
 .text.vfprintf
                0x000000000001a670       0x60 e:/psdk3v2/psdk3v2-master/ps3dev/ppu/bin/../lib/gcc/powerpc64-ps3-elf/4.5.2/../../../../powerpc64-ps3-elf/lib\libc.a(lib_a-vfprintf.o)
                0x000000000001a670                .vfprintf
 .text          0x000000000001a6d0        0x0 e:/psdk3v2/psdk3v2-master/ps3dev/ppu/bin/../lib/gcc/powerpc64-ps3-elf/4.5.2/../../../../powerpc64-ps3-elf/lib\libc.a(lib_a-wsetup.o)
 .text.__swsetup_r
                0x000000000001a6d0      0x1d4 e:/psdk3v2/psdk3v2-master/ps3dev/ppu/bin/../lib/gcc/powerpc64-ps3-elf/4.5.2/../../../../powerpc64-ps3-elf/lib\libc.a(lib_a-wsetup.o)
                0x000000000001a6d0                .__swsetup_r
 .text          0x000000000001a8a4        0x0 e:/psdk3v2/psdk3v2-master/ps3dev/ppu/bin/../lib/gcc/powerpc64-ps3-elf/4.5.2/../../../../powerpc64-ps3-elf/lib\libc.a(lib_a-__call_atexit.o)
 *fill*         0x000000000001a8a4        0x4 60000000
 .text.__call_exitprocs
                0x000000000001a8a8      0x250 e:/psdk3v2/psdk3v2-master/ps3dev/ppu/bin/../lib/gcc/powerpc64-ps3-elf/4.5.2/../../../../powerpc64-ps3-elf/lib\libc.a(lib_a-__call_atexit.o)
                0x000000000001a8a8                .__call_exitprocs
 .text          0x000000000001aaf8        0x0 e:/psdk3v2/psdk3v2-master/ps3dev/ppu/bin/../lib/gcc/powerpc64-ps3-elf/4.5.2/../../../../powerpc64-ps3-elf/lib\libc.a(lib_a-dtoa.o)
 .text.quorem   0x000000000001aaf8      0x258 e:/psdk3v2/psdk3v2-master/ps3dev/ppu/bin/../lib/gcc/powerpc64-ps3-elf/4.5.2/../../../../powerpc64-ps3-elf/lib\libc.a(lib_a-dtoa.o)
 .text._dtoa_r  0x000000000001ad50     0x1328 e:/psdk3v2/psdk3v2-master/ps3dev/ppu/bin/../lib/gcc/powerpc64-ps3-elf/4.5.2/../../../../powerpc64-ps3-elf/lib\libc.a(lib_a-dtoa.o)
                0x000000000001ad50                ._dtoa_r
 .text          0x000000000001c078        0x0 e:/psdk3v2/psdk3v2-master/ps3dev/ppu/bin/../lib/gcc/powerpc64-ps3-elf/4.5.2/../../../../powerpc64-ps3-elf/lib\libc.a(lib_a-flags.o)
 .text.__sflags
                0x000000000001c078       0xb4 e:/psdk3v2/psdk3v2-master/ps3dev/ppu/bin/../lib/gcc/powerpc64-ps3-elf/4.5.2/../../../../powerpc64-ps3-elf/lib\libc.a(lib_a-flags.o)
                0x000000000001c078                .__sflags
 .text          0x000000000001c12c        0x0 e:/psdk3v2/psdk3v2-master/ps3dev/ppu/bin/../lib/gcc/powerpc64-ps3-elf/4.5.2/../../../../powerpc64-ps3-elf/lib\libc.a(lib_a-fvwrite.o)
 *fill*         0x000000000001c12c        0x4 60000000
 .text.__sfvwrite_r
                0x000000000001c130      0x684 e:/psdk3v2/psdk3v2-master/ps3dev/ppu/bin/../lib/gcc/powerpc64-ps3-elf/4.5.2/../../../../powerpc64-ps3-elf/lib\libc.a(lib_a-fvwrite.o)
                0x000000000001c130                .__sfvwrite_r
 .text          0x000000000001c7b4        0x0 e:/psdk3v2/psdk3v2-master/ps3dev/ppu/bin/../lib/gcc/powerpc64-ps3-elf/4.5.2/../../../../powerpc64-ps3-elf/lib\libc.a(lib_a-locale.o)
 *fill*         0x000000000001c7b4        0x4 60000000
 .text._setlocale_r
                0x000000000001c7b8       0xa8 e:/psdk3v2/psdk3v2-master/ps3dev/ppu/bin/../lib/gcc/powerpc64-ps3-elf/4.5.2/../../../../powerpc64-ps3-elf/lib\libc.a(lib_a-locale.o)
                0x000000000001c7b8                ._setlocale_r
 .text.__locale_charset
                0x000000000001c860       0x14 e:/psdk3v2/psdk3v2-master/ps3dev/ppu/bin/../lib/gcc/powerpc64-ps3-elf/4.5.2/../../../../powerpc64-ps3-elf/lib\libc.a(lib_a-locale.o)
                0x000000000001c860                .__locale_charset
 *fill*         0x000000000001c874        0x4 60000000
 .text.__locale_mb_cur_max
                0x000000000001c878       0x1c e:/psdk3v2/psdk3v2-master/ps3dev/ppu/bin/../lib/gcc/powerpc64-ps3-elf/4.5.2/../../../../powerpc64-ps3-elf/lib\libc.a(lib_a-locale.o)
                0x000000000001c878                .__locale_mb_cur_max
 *fill*         0x000000000001c894        0x4 60000000
 .text.__locale_msgcharset
                0x000000000001c898       0x14 e:/psdk3v2/psdk3v2-master/ps3dev/ppu/bin/../lib/gcc/powerpc64-ps3-elf/4.5.2/../../../../powerpc64-ps3-elf/lib\libc.a(lib_a-locale.o)
                0x000000000001c898                .__locale_msgcharset
 *fill*         0x000000000001c8ac        0x4 60000000
 .text.__locale_cjk_lang
                0x000000000001c8b0       0x14 e:/psdk3v2/psdk3v2-master/ps3dev/ppu/bin/../lib/gcc/powerpc64-ps3-elf/4.5.2/../../../../powerpc64-ps3-elf/lib\libc.a(lib_a-locale.o)
                0x000000000001c8b0                .__locale_cjk_lang
 *fill*         0x000000000001c8c4        0x4 60000000
 .text._localeconv_r
                0x000000000001c8c8       0x14 e:/psdk3v2/psdk3v2-master/ps3dev/ppu/bin/../lib/gcc/powerpc64-ps3-elf/4.5.2/../../../../powerpc64-ps3-elf/lib\libc.a(lib_a-locale.o)
                0x000000000001c8c8                ._localeconv_r
 *fill*         0x000000000001c8dc        0x4 60000000
 .text.setlocale
                0x000000000001c8e0       0x50 e:/psdk3v2/psdk3v2-master/ps3dev/ppu/bin/../lib/gcc/powerpc64-ps3-elf/4.5.2/../../../../powerpc64-ps3-elf/lib\libc.a(lib_a-locale.o)
                0x000000000001c8e0                .setlocale
 .text.localeconv
                0x000000000001c930       0x34 e:/psdk3v2/psdk3v2-master/ps3dev/ppu/bin/../lib/gcc/powerpc64-ps3-elf/4.5.2/../../../../powerpc64-ps3-elf/lib\libc.a(lib_a-locale.o)
                0x000000000001c930                .localeconv
 .text          0x000000000001c964        0x0 e:/psdk3v2/psdk3v2-master/ps3dev/ppu/bin/../lib/gcc/powerpc64-ps3-elf/4.5.2/../../../../powerpc64-ps3-elf/lib\libc.a(lib_a-lock_internal.o)
 *fill*         0x000000000001c964        0x4 60000000
 .text.init_metalock
                0x000000000001c968       0x48 e:/psdk3v2/psdk3v2-master/ps3dev/ppu/bin/../lib/gcc/powerpc64-ps3-elf/4.5.2/../../../../powerpc64-ps3-elf/lib\libc.a(lib_a-lock_internal.o)
 .text.__libc_auto_lock_allocate
                0x000000000001c9b0       0x9c e:/psdk3v2/psdk3v2-master/ps3dev/ppu/bin/../lib/gcc/powerpc64-ps3-elf/4.5.2/../../../../powerpc64-ps3-elf/lib\libc.a(lib_a-lock_internal.o)
                0x000000000001c9b0                .__libc_auto_lock_allocate
 .text          0x000000000001ca4c        0x0 e:/psdk3v2/psdk3v2-master/ps3dev/ppu/bin/../lib/gcc/powerpc64-ps3-elf/4.5.2/../../../../powerpc64-ps3-elf/lib\libc.a(lib_a-memmove.o)
 *fill*         0x000000000001ca4c        0x4 60000000
 .text.memmove  0x000000000001ca50      0x130 e:/psdk3v2/psdk3v2-master/ps3dev/ppu/bin/../lib/gcc/powerpc64-ps3-elf/4.5.2/../../../../powerpc64-ps3-elf/lib\libc.a(lib_a-memmove.o)
                0x000000000001ca50                .memmove
 .text          0x000000000001cb80        0x0 e:/psdk3v2/psdk3v2-master/ps3dev/ppu/bin/../lib/gcc/powerpc64-ps3-elf/4.5.2/../../../../powerpc64-ps3-elf/lib\libc.a(lib_a-mprec.o)
 .text._Balloc  0x000000000001cb80       0xd4 e:/psdk3v2/psdk3v2-master/ps3dev/ppu/bin/../lib/gcc/powerpc64-ps3-elf/4.5.2/../../../../powerpc64-ps3-elf/lib\libc.a(lib_a-mprec.o)
                0x000000000001cb80                ._Balloc
 *fill*         0x000000000001cc54        0x4 60000000
 .text._Bfree   0x000000000001cc58       0x34 e:/psdk3v2/psdk3v2-master/ps3dev/ppu/bin/../lib/gcc/powerpc64-ps3-elf/4.5.2/../../../../powerpc64-ps3-elf/lib\libc.a(lib_a-mprec.o)
                0x000000000001cc58                ._Bfree
 *fill*         0x000000000001cc8c        0x4 60000000
 .text.__multadd
                0x000000000001cc90      0x164 e:/psdk3v2/psdk3v2-master/ps3dev/ppu/bin/../lib/gcc/powerpc64-ps3-elf/4.5.2/../../../../powerpc64-ps3-elf/lib\libc.a(lib_a-mprec.o)
                0x000000000001cc90                .__multadd
 *fill*         0x000000000001cdf4        0x4 60000000
 .text.__s2b    0x000000000001cdf8      0x164 e:/psdk3v2/psdk3v2-master/ps3dev/ppu/bin/../lib/gcc/powerpc64-ps3-elf/4.5.2/../../../../powerpc64-ps3-elf/lib\libc.a(lib_a-mprec.o)
                0x000000000001cdf8                .__s2b
 *fill*         0x000000000001cf5c        0x4 60000000
 .text.__hi0bits
                0x000000000001cf60       0x94 e:/psdk3v2/psdk3v2-master/ps3dev/ppu/bin/../lib/gcc/powerpc64-ps3-elf/4.5.2/../../../../powerpc64-ps3-elf/lib\libc.a(lib_a-mprec.o)
                0x000000000001cf60                .__hi0bits
 *fill*         0x000000000001cff4        0x4 60000000
 .text.__lo0bits
                0x000000000001cff8       0xec e:/psdk3v2/psdk3v2-master/ps3dev/ppu/bin/../lib/gcc/powerpc64-ps3-elf/4.5.2/../../../../powerpc64-ps3-elf/lib\libc.a(lib_a-mprec.o)
                0x000000000001cff8                .__lo0bits
 *fill*         0x000000000001d0e4        0x4 60000000
 .text.__i2b    0x000000000001d0e8       0x48 e:/psdk3v2/psdk3v2-master/ps3dev/ppu/bin/../lib/gcc/powerpc64-ps3-elf/4.5.2/../../../../powerpc64-ps3-elf/lib\libc.a(lib_a-mprec.o)
                0x000000000001d0e8                .__i2b
 .text.__multiply
                0x000000000001d130      0x2a0 e:/psdk3v2/psdk3v2-master/ps3dev/ppu/bin/../lib/gcc/powerpc64-ps3-elf/4.5.2/../../../../powerpc64-ps3-elf/lib\libc.a(lib_a-mprec.o)
                0x000000000001d130                .__multiply
 .text.__pow5mult
                0x000000000001d3d0      0x15c e:/psdk3v2/psdk3v2-master/ps3dev/ppu/bin/../lib/gcc/powerpc64-ps3-elf/4.5.2/../../../../powerpc64-ps3-elf/lib\libc.a(lib_a-mprec.o)
                0x000000000001d3d0                .__pow5mult
 *fill*         0x000000000001d52c        0x4 60000000
 .text.__lshift
                0x000000000001d530      0x1c8 e:/psdk3v2/psdk3v2-master/ps3dev/ppu/bin/../lib/gcc/powerpc64-ps3-elf/4.5.2/../../../../powerpc64-ps3-elf/lib\libc.a(lib_a-mprec.o)
                0x000000000001d530                .__lshift
 .text.__mcmp   0x000000000001d6f8       0x84 e:/psdk3v2/psdk3v2-master/ps3dev/ppu/bin/../lib/gcc/powerpc64-ps3-elf/4.5.2/../../../../powerpc64-ps3-elf/lib\libc.a(lib_a-mprec.o)
                0x000000000001d6f8                .__mcmp
 *fill*         0x000000000001d77c        0x4 60000000
 .text.__mdiff  0x000000000001d780      0x1fc e:/psdk3v2/psdk3v2-master/ps3dev/ppu/bin/../lib/gcc/powerpc64-ps3-elf/4.5.2/../../../../powerpc64-ps3-elf/lib\libc.a(lib_a-mprec.o)
                0x000000000001d780                .__mdiff
 *fill*         0x000000000001d97c        0x4 60000000
 .text.__ulp    0x000000000001d980       0xb8 e:/psdk3v2/psdk3v2-master/ps3dev/ppu/bin/../lib/gcc/powerpc64-ps3-elf/4.5.2/../../../../powerpc64-ps3-elf/lib\libc.a(lib_a-mprec.o)
                0x000000000001d980                .__ulp
 .text.__b2d    0x000000000001da38      0x1c0 e:/psdk3v2/psdk3v2-master/ps3dev/ppu/bin/../lib/gcc/powerpc64-ps3-elf/4.5.2/../../../../powerpc64-ps3-elf/lib\libc.a(lib_a-mprec.o)
                0x000000000001da38                .__b2d
 .text.__d2b    0x000000000001dbf8      0x1ac e:/psdk3v2/psdk3v2-master/ps3dev/ppu/bin/../lib/gcc/powerpc64-ps3-elf/4.5.2/../../../../powerpc64-ps3-elf/lib\libc.a(lib_a-mprec.o)
                0x000000000001dbf8                .__d2b
 *fill*         0x000000000001dda4        0x4 60000000
 .text.__ratio  0x000000000001dda8       0xf8 e:/psdk3v2/psdk3v2-master/ps3dev/ppu/bin/../lib/gcc/powerpc64-ps3-elf/4.5.2/../../../../powerpc64-ps3-elf/lib\libc.a(lib_a-mprec.o)
                0x000000000001dda8                .__ratio
 .text._mprec_log10
                0x000000000001dea0       0x4c e:/psdk3v2/psdk3v2-master/ps3dev/ppu/bin/../lib/gcc/powerpc64-ps3-elf/4.5.2/../../../../powerpc64-ps3-elf/lib\libc.a(lib_a-mprec.o)
                0x000000000001dea0                ._mprec_log10
 *fill*         0x000000000001deec        0x4 60000000
 .text.__copybits
                0x000000000001def0       0x98 e:/psdk3v2/psdk3v2-master/ps3dev/ppu/bin/../lib/gcc/powerpc64-ps3-elf/4.5.2/../../../../powerpc64-ps3-elf/lib\libc.a(lib_a-mprec.o)
                0x000000000001def0                .__copybits
 .text.__any_on
                0x000000000001df88       0xf4 e:/psdk3v2/psdk3v2-master/ps3dev/ppu/bin/../lib/gcc/powerpc64-ps3-elf/4.5.2/../../../../powerpc64-ps3-elf/lib\libc.a(lib_a-mprec.o)
                0x000000000001df88                .__any_on
 .text          0x000000000001e07c        0x0 e:/psdk3v2/psdk3v2-master/ps3dev/ppu/bin/../lib/gcc/powerpc64-ps3-elf/4.5.2/../../../../powerpc64-ps3-elf/lib\libc.a(lib_a-putc.o)
 *fill*         0x000000000001e07c        0x4 60000000
 .text._putc_r  0x000000000001e080      0x160 e:/psdk3v2/psdk3v2-master/ps3dev/ppu/bin/../lib/gcc/powerpc64-ps3-elf/4.5.2/../../../../powerpc64-ps3-elf/lib\libc.a(lib_a-putc.o)
                0x000000000001e080                ._putc_r
 .text.putc     0x000000000001e1e0      0x17c e:/psdk3v2/psdk3v2-master/ps3dev/ppu/bin/../lib/gcc/powerpc64-ps3-elf/4.5.2/../../../../powerpc64-ps3-elf/lib\libc.a(lib_a-putc.o)
                0x000000000001e1e0                .putc
 .text          0x000000000001e35c        0x0 e:/psdk3v2/psdk3v2-master/ps3dev/ppu/bin/../lib/gcc/powerpc64-ps3-elf/4.5.2/../../../../powerpc64-ps3-elf/lib\libc.a(lib_a-reallocr.o)
 *fill*         0x000000000001e35c        0x4 60000000
 .text._realloc_r
                0x000000000001e360      0x710 e:/psdk3v2/psdk3v2-master/ps3dev/ppu/bin/../lib/gcc/powerpc64-ps3-elf/4.5.2/../../../../powerpc64-ps3-elf/lib\libc.a(lib_a-reallocr.o)
                0x000000000001e360                ._realloc_r
 .text          0x000000000001ea70        0x0 e:/psdk3v2/psdk3v2-master/ps3dev/ppu/bin/../lib/gcc/powerpc64-ps3-elf/4.5.2/../../../../powerpc64-ps3-elf/lib\libc.a(lib_a-s_fpclassify.o)
 .text.__fpclassifyd
                0x000000000001ea70       0xc4 e:/psdk3v2/psdk3v2-master/ps3dev/ppu/bin/../lib/gcc/powerpc64-ps3-elf/4.5.2/../../../../powerpc64-ps3-elf/lib\libc.a(lib_a-s_fpclassify.o)
                0x000000000001ea70                .__fpclassifyd
 .text          0x000000000001eb34        0x0 e:/psdk3v2/psdk3v2-master/ps3dev/ppu/bin/../lib/gcc/powerpc64-ps3-elf/4.5.2/../../../../powerpc64-ps3-elf/lib\libc.a(lib_a-strcmp.o)
 *fill*         0x000000000001eb34        0x4 60000000
 .text.strcmp   0x000000000001eb38       0xfc e:/psdk3v2/psdk3v2-master/ps3dev/ppu/bin/../lib/gcc/powerpc64-ps3-elf/4.5.2/../../../../powerpc64-ps3-elf/lib\libc.a(lib_a-strcmp.o)
                0x000000000001eb38                .strcmp
 .text          0x000000000001ec34        0x0 e:/psdk3v2/psdk3v2-master/ps3dev/ppu/bin/../lib/gcc/powerpc64-ps3-elf/4.5.2/../../../../powerpc64-ps3-elf/lib\libc.a(lib_a-svfiprintf.o)
 *fill*         0x000000000001ec34        0x4 60000000
 .text.__ssprint_r
                0x000000000001ec38      0x300 e:/psdk3v2/psdk3v2-master/ps3dev/ppu/bin/../lib/gcc/powerpc64-ps3-elf/4.5.2/../../../../powerpc64-ps3-elf/lib\libc.a(lib_a-svfiprintf.o)
                0x000000000001ec38                .__ssprint_r
 .text._svfiprintf_r
                0x000000000001ef38     0x1064 e:/psdk3v2/psdk3v2-master/ps3dev/ppu/bin/../lib/gcc/powerpc64-ps3-elf/4.5.2/../../../../powerpc64-ps3-elf/lib\libc.a(lib_a-svfiprintf.o)
                0x000000000001ef38                ._svfiprintf_r
 .text          0x000000000001ff9c        0x0 e:/psdk3v2/psdk3v2-master/ps3dev/ppu/bin/../lib/gcc/powerpc64-ps3-elf/4.5.2/../../../../powerpc64-ps3-elf/lib\libc.a(lib_a-vfiprintf.o)
 *fill*         0x000000000001ff9c        0x4 60000000
 .text.__sprint_r
                0x000000000001ffa0      0x160 e:/psdk3v2/psdk3v2-master/ps3dev/ppu/bin/../lib/gcc/powerpc64-ps3-elf/4.5.2/../../../../powerpc64-ps3-elf/lib\libc.a(lib_a-vfiprintf.o)
                0x000000000001ffa0                .__sprint_r
 .text._vfiprintf_r
                0x0000000000020100     0x1248 e:/psdk3v2/psdk3v2-master/ps3dev/ppu/bin/../lib/gcc/powerpc64-ps3-elf/4.5.2/../../../../powerpc64-ps3-elf/lib\libc.a(lib_a-vfiprintf.o)
                0x0000000000020100                ._vfiprintf_r
 .text.vfiprintf
                0x0000000000021348       0x60 e:/psdk3v2/psdk3v2-master/ps3dev/ppu/bin/../lib/gcc/powerpc64-ps3-elf/4.5.2/../../../../powerpc64-ps3-elf/lib\libc.a(lib_a-vfiprintf.o)
                0x0000000000021348                .vfiprintf
 .text          0x00000000000213a8        0x0 e:/psdk3v2/psdk3v2-master/ps3dev/ppu/bin/../lib/gcc/powerpc64-ps3-elf/4.5.2/../../../../powerpc64-ps3-elf/lib\libc.a(lib_a-wbuf.o)
 .text.__swbuf_r
                0x00000000000213a8      0x1c8 e:/psdk3v2/psdk3v2-master/ps3dev/ppu/bin/../lib/gcc/powerpc64-ps3-elf/4.5.2/../../../../powerpc64-ps3-elf/lib\libc.a(lib_a-wbuf.o)
                0x00000000000213a8                .__swbuf_r
 .text.__swbuf  0x0000000000021570       0x50 e:/psdk3v2/psdk3v2-master/ps3dev/ppu/bin/../lib/gcc/powerpc64-ps3-elf/4.5.2/../../../../powerpc64-ps3-elf/lib\libc.a(lib_a-wbuf.o)
                0x0000000000021570                .__swbuf
 .text          0x00000000000215c0        0x0 e:/psdk3v2/psdk3v2-master/ps3dev/ppu/bin/../lib/gcc/powerpc64-ps3-elf/4.5.2/../../../../powerpc64-ps3-elf/lib\libc.a(lib_a-__atexit.o)
 .text.__register_exitproc
                0x00000000000215c0      0x188 e:/psdk3v2/psdk3v2-master/ps3dev/ppu/bin/../lib/gcc/powerpc64-ps3-elf/4.5.2/../../../../powerpc64-ps3-elf/lib\libc.a(lib_a-__atexit.o)
                0x00000000000215c0                .__register_exitproc
 .text          0x0000000000021748        0x0 e:/psdk3v2/psdk3v2-master/ps3dev/ppu/bin/../lib/gcc/powerpc64-ps3-elf/4.5.2/../../../../powerpc64-ps3-elf/lib\libc.a(lib_a-abort.o)
 .text.abort    0x0000000000021748       0x30 e:/psdk3v2/psdk3v2-master/ps3dev/ppu/bin/../lib/gcc/powerpc64-ps3-elf/4.5.2/../../../../powerpc64-ps3-elf/lib\libc.a(lib_a-abort.o)
                0x0000000000021748                .abort
 .text          0x0000000000021778        0x0 e:/psdk3v2/psdk3v2-master/ps3dev/ppu/bin/../lib/gcc/powerpc64-ps3-elf/4.5.2/../../../../powerpc64-ps3-elf/lib\libc.a(lib_a-callocr.o)
 .text._calloc_r
                0x0000000000021778       0xe8 e:/psdk3v2/psdk3v2-master/ps3dev/ppu/bin/../lib/gcc/powerpc64-ps3-elf/4.5.2/../../../../powerpc64-ps3-elf/lib\libc.a(lib_a-callocr.o)
                0x0000000000021778                ._calloc_r
 .text          0x0000000000021860        0x0 e:/psdk3v2/psdk3v2-master/ps3dev/ppu/bin/../lib/gcc/powerpc64-ps3-elf/4.5.2/../../../../powerpc64-ps3-elf/lib\libc.a(lib_a-fputwc.o)
 .text._fputwc_r
                0x0000000000021860      0x234 e:/psdk3v2/psdk3v2-master/ps3dev/ppu/bin/../lib/gcc/powerpc64-ps3-elf/4.5.2/../../../../powerpc64-ps3-elf/lib\libc.a(lib_a-fputwc.o)
                0x0000000000021860                ._fputwc_r
 *fill*         0x0000000000021a94        0x4 60000000
 .text.fputwc   0x0000000000021a98       0xac e:/psdk3v2/psdk3v2-master/ps3dev/ppu/bin/../lib/gcc/powerpc64-ps3-elf/4.5.2/../../../../powerpc64-ps3-elf/lib\libc.a(lib_a-fputwc.o)
                0x0000000000021a98                .fputwc
 .text          0x0000000000021b44        0x0 e:/psdk3v2/psdk3v2-master/ps3dev/ppu/bin/../lib/gcc/powerpc64-ps3-elf/4.5.2/../../../../powerpc64-ps3-elf/lib\libc.a(lib_a-signal.o)
 *fill*         0x0000000000021b44        0x4 60000000
 .text._init_signal_r
                0x0000000000021b48       0x84 e:/psdk3v2/psdk3v2-master/ps3dev/ppu/bin/../lib/gcc/powerpc64-ps3-elf/4.5.2/../../../../powerpc64-ps3-elf/lib\libc.a(lib_a-signal.o)
                0x0000000000021b48                ._init_signal_r
 *fill*         0x0000000000021bcc        0x4 60000000
 .text._signal_r
                0x0000000000021bd0       0x9c e:/psdk3v2/psdk3v2-master/ps3dev/ppu/bin/../lib/gcc/powerpc64-ps3-elf/4.5.2/../../../../powerpc64-ps3-elf/lib\libc.a(lib_a-signal.o)
                0x0000000000021bd0                ._signal_r
 *fill*         0x0000000000021c6c        0x4 60000000
 .text._raise_r
                0x0000000000021c70      0x114 e:/psdk3v2/psdk3v2-master/ps3dev/ppu/bin/../lib/gcc/powerpc64-ps3-elf/4.5.2/../../../../powerpc64-ps3-elf/lib\libc.a(lib_a-signal.o)
                0x0000000000021c70                ._raise_r
 *fill*         0x0000000000021d84        0x4 60000000
 .text.__sigtramp_r
                0x0000000000021d88       0xd0 e:/psdk3v2/psdk3v2-master/ps3dev/ppu/bin/../lib/gcc/powerpc64-ps3-elf/4.5.2/../../../../powerpc64-ps3-elf/lib\libc.a(lib_a-signal.o)
                0x0000000000021d88                .__sigtramp_r
 .text.raise    0x0000000000021e58       0x40 e:/psdk3v2/psdk3v2-master/ps3dev/ppu/bin/../lib/gcc/powerpc64-ps3-elf/4.5.2/../../../../powerpc64-ps3-elf/lib\libc.a(lib_a-signal.o)
                0x0000000000021e58                .raise
 .text.signal   0x0000000000021e98       0x50 e:/psdk3v2/psdk3v2-master/ps3dev/ppu/bin/../lib/gcc/powerpc64-ps3-elf/4.5.2/../../../../powerpc64-ps3-elf/lib\libc.a(lib_a-signal.o)
                0x0000000000021e98                .signal
 .text._init_signal
                0x0000000000021ee8       0x30 e:/psdk3v2/psdk3v2-master/ps3dev/ppu/bin/../lib/gcc/powerpc64-ps3-elf/4.5.2/../../../../powerpc64-ps3-elf/lib\libc.a(lib_a-signal.o)
                0x0000000000021ee8                ._init_signal
 .text.__sigtramp
                0x0000000000021f18       0x40 e:/psdk3v2/psdk3v2-master/ps3dev/ppu/bin/../lib/gcc/powerpc64-ps3-elf/4.5.2/../../../../powerpc64-ps3-elf/lib\libc.a(lib_a-signal.o)
                0x0000000000021f18                .__sigtramp
 .text          0x0000000000021f58        0x0 e:/psdk3v2/psdk3v2-master/ps3dev/ppu/bin/../lib/gcc/powerpc64-ps3-elf/4.5.2/../../../../powerpc64-ps3-elf/lib\libc.a(lib_a-wcrtomb.o)
 .text._wcrtomb_r
                0x0000000000021f58      0x100 e:/psdk3v2/psdk3v2-master/ps3dev/ppu/bin/../lib/gcc/powerpc64-ps3-elf/4.5.2/../../../../powerpc64-ps3-elf/lib\libc.a(lib_a-wcrtomb.o)
                0x0000000000021f58                ._wcrtomb_r
 .text.wcrtomb  0x0000000000022058      0x15c e:/psdk3v2/psdk3v2-master/ps3dev/ppu/bin/../lib/gcc/powerpc64-ps3-elf/4.5.2/../../../../powerpc64-ps3-elf/lib\libc.a(lib_a-wcrtomb.o)
                0x0000000000022058                .wcrtomb
 .text          0x00000000000221b4        0x0 e:/psdk3v2/psdk3v2-master/ps3dev/ppu/bin/../lib/gcc/powerpc64-ps3-elf/4.5.2/../../../../powerpc64-ps3-elf/lib\libc.a(lib_a-wctomb_r.o)
 *fill*         0x00000000000221b4        0x4 60000000
 .text.__ascii_wctomb
                0x00000000000221b8       0x44 e:/psdk3v2/psdk3v2-master/ps3dev/ppu/bin/../lib/gcc/powerpc64-ps3-elf/4.5.2/../../../../powerpc64-ps3-elf/lib\libc.a(lib_a-wctomb_r.o)
                0x00000000000221b8                .__ascii_wctomb
 *fill*         0x00000000000221fc        0x4 60000000
 .text._wctomb_r
                0x0000000000022200       0x90 e:/psdk3v2/psdk3v2-master/ps3dev/ppu/bin/../lib/gcc/powerpc64-ps3-elf/4.5.2/../../../../powerpc64-ps3-elf/lib\libc.a(lib_a-wctomb_r.o)
                0x0000000000022200                ._wctomb_r
 .text          0x0000000000022290        0x0 e:/PSDK3v2/PSDK3v2-master/psl1ght/ppu/lib\librt.a(sbrk.o)
 .text.sbrk_init
                0x0000000000022290       0xc4 e:/PSDK3v2/PSDK3v2-master/psl1ght/ppu/lib\librt.a(sbrk.o)
 *fill*         0x0000000000022354        0x4 60000000
 .text.sbrk_deinit
                0x0000000000022358       0xbc e:/PSDK3v2/PSDK3v2-master/psl1ght/ppu/lib\librt.a(sbrk.o)
 *fill*         0x0000000000022414        0x4 60000000
 .text.__librt_sbrk_r
                0x0000000000022418      0x324 e:/PSDK3v2/PSDK3v2-master/psl1ght/ppu/lib\librt.a(sbrk.o)
                0x0000000000022418                .__librt_sbrk_r
 .text          0x000000000002273c        0x0 e:/PSDK3v2/PSDK3v2-master/psl1ght/ppu/lib\librt.a(exit.o)
 *fill*         0x000000000002273c        0x4 60000000
 .text.__librt_exit
                0x0000000000022740       0x30 e:/PSDK3v2/PSDK3v2-master/psl1ght/ppu/lib\librt.a(exit.o)
                0x0000000000022740                .__librt_exit
 .text          0x0000000000022770        0x0 e:/PSDK3v2/PSDK3v2-master/psl1ght/ppu/lib\librt.a(close.o)
 .text.__librt_close_r
                0x0000000000022770       0x8c e:/PSDK3v2/PSDK3v2-master/psl1ght/ppu/lib\librt.a(close.o)
                0x0000000000022770                .__librt_close_r
 .text          0x00000000000227fc        0x0 e:/PSDK3v2/PSDK3v2-master/psl1ght/ppu/lib\librt.a(lseek.o)
 *fill*         0x00000000000227fc        0x4 60000000
 .text.__librt_lseek_r
                0x0000000000022800       0x8c e:/PSDK3v2/PSDK3v2-master/psl1ght/ppu/lib\librt.a(lseek.o)
                0x0000000000022800                .__librt_lseek_r
 *fill*         0x000000000002288c        0x4 60000000
 .text.__librt_lseek64_r
                0x0000000000022890       0x8c e:/PSDK3v2/PSDK3v2-master/psl1ght/ppu/lib\librt.a(lseek.o)
                0x0000000000022890                .__librt_lseek64_r
 .text          0x000000000002291c        0x0 e:/PSDK3v2/PSDK3v2-master/psl1ght/ppu/lib\librt.a(read.o)
 *fill*         0x000000000002291c        0x4 60000000
 .text.__librt_read_r
                0x0000000000022920      0x11c e:/PSDK3v2/PSDK3v2-master/psl1ght/ppu/lib\librt.a(read.o)
                0x0000000000022920                .__librt_read_r
 .text          0x0000000000022a3c        0x0 e:/PSDK3v2/PSDK3v2-master/psl1ght/ppu/lib\librt.a(open.o)
 *fill*         0x0000000000022a3c        0x4 60000000
 .text.__librt_open_r
                0x0000000000022a40      0x180 e:/PSDK3v2/PSDK3v2-master/psl1ght/ppu/lib\librt.a(open.o)
                0x0000000000022a40                .__librt_open_r
 .text          0x0000000000022bc0        0x0 e:/PSDK3v2/PSDK3v2-master/psl1ght/ppu/lib\librt.a(sleep.o)
 .text.__librt_usleep_r
                0x0000000000022bc0       0x50 e:/PSDK3v2/PSDK3v2-master/psl1ght/ppu/lib\librt.a(sleep.o)
                0x0000000000022bc0                .__librt_usleep_r
 .text.__librt_sleep_r
                0x0000000000022c10       0x8c e:/PSDK3v2/PSDK3v2-master/psl1ght/ppu/lib\librt.a(sleep.o)
                0x0000000000022c10                .__librt_sleep_r
 .text          0x0000000000022c9c        0x0 e:/PSDK3v2/PSDK3v2-master/psl1ght/ppu/lib\librt.a(write.o)
 *fill*         0x0000000000022c9c        0x4 60000000
 .text.__librt_write_r
                0x0000000000022ca0      0x11c e:/PSDK3v2/PSDK3v2-master/psl1ght/ppu/lib\librt.a(write.o)
                0x0000000000022ca0                .__librt_write_r
 .text          0x0000000000022dbc        0x0 e:/PSDK3v2/PSDK3v2-master/psl1ght/ppu/lib\librt.a(fstat.o)
 *fill*         0x0000000000022dbc        0x4 60000000
 .text.__librt_fstat_r
                0x0000000000022dc0       0xd0 e:/PSDK3v2/PSDK3v2-master/psl1ght/ppu/lib\librt.a(fstat.o)
                0x0000000000022dc0                .__librt_fstat_r
 .text.__librt_fstat64_r
                0x0000000000022e90       0xd0 e:/PSDK3v2/PSDK3v2-master/psl1ght/ppu/lib\librt.a(fstat.o)
                0x0000000000022e90                .__librt_fstat64_r
 .text.__librt_stat_r
                0x0000000000022f60       0xd0 e:/PSDK3v2/PSDK3v2-master/psl1ght/ppu/lib\librt.a(fstat.o)
                0x0000000000022f60                .__librt_stat_r
 .text.__librt_stat64_r
                0x0000000000023030       0xd0 e:/PSDK3v2/PSDK3v2-master/psl1ght/ppu/lib\librt.a(fstat.o)
                0x0000000000023030                .__librt_stat64_r
 .text          0x0000000000023100        0x0 e:/PSDK3v2/PSDK3v2-master/psl1ght/ppu/lib\librt.a(socket.o)
 .text.accept   0x0000000000023100       0xa0 e:/PSDK3v2/PSDK3v2-master/psl1ght/ppu/lib\librt.a(socket.o)
                0x0000000000023100                .accept
 .text.bind     0x00000000000231a0       0x48 e:/PSDK3v2/PSDK3v2-master/psl1ght/ppu/lib\librt.a(socket.o)
                0x00000000000231a0                .bind
 .text.connect  0x00000000000231e8       0x48 e:/PSDK3v2/PSDK3v2-master/psl1ght/ppu/lib\librt.a(socket.o)
                0x00000000000231e8                .connect
 .text.listen   0x0000000000023230       0x48 e:/PSDK3v2/PSDK3v2-master/psl1ght/ppu/lib\librt.a(socket.o)
                0x0000000000023230                .listen
 .text.socket   0x0000000000023278       0x54 e:/PSDK3v2/PSDK3v2-master/psl1ght/ppu/lib\librt.a(socket.o)
                0x0000000000023278                .socket
 *fill*         0x00000000000232cc        0x4 60000000
 .text.send     0x00000000000232d0       0x50 e:/PSDK3v2/PSDK3v2-master/psl1ght/ppu/lib\librt.a(socket.o)
                0x00000000000232d0                .send
 .text.sendto   0x0000000000023320       0x48 e:/PSDK3v2/PSDK3v2-master/psl1ght/ppu/lib\librt.a(socket.o)
                0x0000000000023320                .sendto
 .text.recv     0x0000000000023368       0x50 e:/PSDK3v2/PSDK3v2-master/psl1ght/ppu/lib\librt.a(socket.o)
                0x0000000000023368                .recv
 .text.recvfrom
                0x00000000000233b8       0x98 e:/PSDK3v2/PSDK3v2-master/psl1ght/ppu/lib\librt.a(socket.o)
                0x00000000000233b8                .recvfrom
 .text.shutdown
                0x0000000000023450       0x48 e:/PSDK3v2/PSDK3v2-master/psl1ght/ppu/lib\librt.a(socket.o)
                0x0000000000023450                .shutdown
 .text.inet_aton
                0x0000000000023498       0xb8 e:/PSDK3v2/PSDK3v2-master/psl1ght/ppu/lib\librt.a(socket.o)
                0x0000000000023498                .inet_aton
 .text.inet_pton
                0x0000000000023550       0x54 e:/PSDK3v2/PSDK3v2-master/psl1ght/ppu/lib\librt.a(socket.o)
                0x0000000000023550                .inet_pton
 *fill*         0x00000000000235a4        0x4 60000000
 .text.select   0x00000000000235a8       0x3c e:/PSDK3v2/PSDK3v2-master/psl1ght/ppu/lib\librt.a(socket.o)
                0x00000000000235a8                .select
 *fill*         0x00000000000235e4        0x4 60000000
 .text.closesocket
                0x00000000000235e8       0x48 e:/PSDK3v2/PSDK3v2-master/psl1ght/ppu/lib\librt.a(socket.o)
                0x00000000000235e8                .closesocket
 .text          0x0000000000023630        0x0 e:/PSDK3v2/PSDK3v2-master/psl1ght/ppu/lib\librt.a(lock.o)
 .text.__librt_sys_lwmutex_create_r
                0x0000000000023630       0x38 e:/PSDK3v2/PSDK3v2-master/psl1ght/ppu/lib\librt.a(lock.o)
                0x0000000000023630                .__librt_sys_lwmutex_create_r
 .text.__librt_sys_lwmutex_destroy_r
                0x0000000000023668       0x34 e:/PSDK3v2/PSDK3v2-master/psl1ght/ppu/lib\librt.a(lock.o)
                0x0000000000023668                .__librt_sys_lwmutex_destroy_r
 *fill*         0x000000000002369c        0x4 60000000
 .text.__librt_sys_lwmutex_lock_r
                0x00000000000236a0       0x38 e:/PSDK3v2/PSDK3v2-master/psl1ght/ppu/lib\librt.a(lock.o)
                0x00000000000236a0                .__librt_sys_lwmutex_lock_r
 .text.__librt_sys_lwmutex_trylock_r
                0x00000000000236d8       0x34 e:/PSDK3v2/PSDK3v2-master/psl1ght/ppu/lib\librt.a(lock.o)
                0x00000000000236d8                .__librt_sys_lwmutex_trylock_r
 *fill*         0x000000000002370c        0x4 60000000
 .text.__librt_sys_lwmutex_unlock_r
                0x0000000000023710       0x34 e:/PSDK3v2/PSDK3v2-master/psl1ght/ppu/lib\librt.a(lock.o)
                0x0000000000023710                .__librt_sys_lwmutex_unlock_r
 .text          0x0000000000023744        0x0 e:/PSDK3v2/PSDK3v2-master/psl1ght/ppu/lib\librt.a(dirent.o)
 *fill*         0x0000000000023744        0x4 60000000
 .text.readdir_i
                0x0000000000023748      0x10c e:/PSDK3v2/PSDK3v2-master/psl1ght/ppu/lib\librt.a(dirent.o)
 *fill*         0x0000000000023854        0x4 60000000
 .text.__librt_opendir_r
                0x0000000000023858      0x144 e:/PSDK3v2/PSDK3v2-master/psl1ght/ppu/lib\librt.a(dirent.o)
                0x0000000000023858                .__librt_opendir_r
 *fill*         0x000000000002399c        0x4 60000000
 .text.__librt_readdir_r
                0x00000000000239a0       0x80 e:/PSDK3v2/PSDK3v2-master/psl1ght/ppu/lib\librt.a(dirent.o)
                0x00000000000239a0                .__librt_readdir_r
 .text.__librt_readdir_r_r
                0x0000000000023a20       0x54 e:/PSDK3v2/PSDK3v2-master/psl1ght/ppu/lib\librt.a(dirent.o)
                0x0000000000023a20                .__librt_readdir_r_r
 *fill*         0x0000000000023a74        0x4 60000000
 .text.__librt_closedir_r
                0x0000000000023a78       0x84 e:/PSDK3v2/PSDK3v2-master/psl1ght/ppu/lib\librt.a(dirent.o)
                0x0000000000023a78                .__librt_closedir_r
 *fill*         0x0000000000023afc        0x4 60000000
 .text.__librt_telldir_r
                0x0000000000023b00       0x24 e:/PSDK3v2/PSDK3v2-master/psl1ght/ppu/lib\librt.a(dirent.o)
                0x0000000000023b00                .__librt_telldir_r
 *fill*         0x0000000000023b24        0x4 60000000
 .text.__librt_rewinddir_r
                0x0000000000023b28       0x18 e:/PSDK3v2/PSDK3v2-master/psl1ght/ppu/lib\librt.a(dirent.o)
                0x0000000000023b28                .__librt_rewinddir_r
 .text.__librt_seekdir_r
                0x0000000000023b40       0x18 e:/PSDK3v2/PSDK3v2-master/psl1ght/ppu/lib\librt.a(dirent.o)
                0x0000000000023b40                .__librt_seekdir_r
 .text          0x0000000000023b58        0x0 e:/PSDK3v2/PSDK3v2-master/psl1ght/ppu/lib\librt.a(mkdir.o)
 .text.__librt_mkdir_r
                0x0000000000023b58       0x60 e:/PSDK3v2/PSDK3v2-master/psl1ght/ppu/lib\librt.a(mkdir.o)
                0x0000000000023b58                .__librt_mkdir_r
 .text          0x0000000000023bb8        0x0 e:/PSDK3v2/PSDK3v2-master/psl1ght/ppu/lib\librt.a(times.o)
 .text.__librt_times_r
                0x0000000000023bb8       0x1c e:/PSDK3v2/PSDK3v2-master/psl1ght/ppu/lib\librt.a(times.o)
                0x0000000000023bb8                .__librt_times_r
 .text          0x0000000000023bd4        0x0 e:/PSDK3v2/PSDK3v2-master/psl1ght/ppu/lib\librt.a(umask.o)
 *fill*         0x0000000000023bd4        0x4 60000000
 .text.__librt_umask_r
                0x0000000000023bd8       0x20 e:/PSDK3v2/PSDK3v2-master/psl1ght/ppu/lib\librt.a(umask.o)
                0x0000000000023bd8                .__librt_umask_r
 .text          0x0000000000023bf8        0x0 e:/PSDK3v2/PSDK3v2-master/psl1ght/ppu/lib\librt.a(lv2errno.o)
 .text.lv2error
                0x0000000000023bf8      0x3dc e:/PSDK3v2/PSDK3v2-master/psl1ght/ppu/lib\librt.a(lv2errno.o)
                0x0000000000023bf8                .lv2error
 *fill*         0x0000000000023fd4        0x4 60000000
 .text.lv2errno
                0x0000000000023fd8       0x68 e:/PSDK3v2/PSDK3v2-master/psl1ght/ppu/lib\librt.a(lv2errno.o)
                0x0000000000023fd8                .lv2errno
 .text.lv2errno_r
                0x0000000000024040       0x58 e:/PSDK3v2/PSDK3v2-master/psl1ght/ppu/lib\librt.a(lv2errno.o)
                0x0000000000024040                .lv2errno_r
 .text          0x0000000000024098        0x0 e:/PSDK3v2/PSDK3v2-master/psl1ght/ppu/lib\librt.a(heap.o)
 .text.heapInit
                0x0000000000024098       0xe8 e:/PSDK3v2/PSDK3v2-master/psl1ght/ppu/lib\librt.a(heap.o)
                0x0000000000024098                .heapInit
 .text.heapAllocate
                0x0000000000024180      0x174 e:/PSDK3v2/PSDK3v2-master/psl1ght/ppu/lib\librt.a(heap.o)
                0x0000000000024180                .heapAllocate
 *fill*         0x00000000000242f4        0x4 60000000
 .text.heapAllocateAligned
                0x00000000000242f8      0x224 e:/PSDK3v2/PSDK3v2-master/psl1ght/ppu/lib\librt.a(heap.o)
                0x00000000000242f8                .heapAllocateAligned
 *fill*         0x000000000002451c        0x4 60000000
 .text.heapFree
                0x0000000000024520      0x224 e:/PSDK3v2/PSDK3v2-master/psl1ght/ppu/lib\librt.a(heap.o)
                0x0000000000024520                .heapFree
 .text          0x0000000000024744        0x0 e:/PSDK3v2/PSDK3v2-master/psl1ght/ppu/lib\librt.a(chmod.o)
 *fill*         0x0000000000024744        0x4 60000000
 .text.__librt_chmod_r
                0x0000000000024748       0x54 e:/PSDK3v2/PSDK3v2-master/psl1ght/ppu/lib\librt.a(chmod.o)
                0x0000000000024748                .__librt_chmod_r
 .text          0x000000000002479c        0x0 e:/PSDK3v2/PSDK3v2-master/psl1ght/ppu/lib\librt.a(rmdir.o)
 *fill*         0x000000000002479c        0x4 60000000
 .text.__librt_rmdir_r
                0x00000000000247a0       0x50 e:/PSDK3v2/PSDK3v2-master/psl1ght/ppu/lib\librt.a(rmdir.o)
                0x00000000000247a0                .__librt_rmdir_r
 .text          0x00000000000247f0        0x0 e:/PSDK3v2/PSDK3v2-master/psl1ght/ppu/lib\librt.a(isatty.o)
 .text.__librt_isatty_r
                0x00000000000247f0       0x2c e:/PSDK3v2/PSDK3v2-master/psl1ght/ppu/lib\librt.a(isatty.o)
                0x00000000000247f0                .__librt_isatty_r
 .text          0x000000000002481c        0x0 e:/PSDK3v2/PSDK3v2-master/psl1ght/ppu/lib\librt.a(gettod.o)
 *fill*         0x000000000002481c        0x4 60000000
 .text.__librt_gettod_r
                0x0000000000024820       0xb8 e:/PSDK3v2/PSDK3v2-master/psl1ght/ppu/lib\librt.a(gettod.o)
                0x0000000000024820                .__librt_gettod_r
 .text          0x00000000000248d8        0x0 e:/PSDK3v2/PSDK3v2-master/psl1ght/ppu/lib\librt.a(settod.o)
 .text.__librt_settod_r
                0x00000000000248d8       0x58 e:/PSDK3v2/PSDK3v2-master/psl1ght/ppu/lib\librt.a(settod.o)
                0x00000000000248d8                .__librt_settod_r
 .text          0x0000000000024930        0x0 e:/psdk3v2/psdk3v2-master/ps3dev/ppu/bin/../lib/gcc/powerpc64-ps3-elf/4.5.2/../../../../powerpc64-ps3-elf/lib\libsysbase.a(close.o)
 .text._close_r
                0x0000000000024930       0x6c e:/psdk3v2/psdk3v2-master/ps3dev/ppu/bin/../lib/gcc/powerpc64-ps3-elf/4.5.2/../../../../powerpc64-ps3-elf/lib\libsysbase.a(close.o)
                0x0000000000024930                ._close_r
 .text          0x000000000002499c        0x0 e:/psdk3v2/psdk3v2-master/ps3dev/ppu/bin/../lib/gcc/powerpc64-ps3-elf/4.5.2/../../../../powerpc64-ps3-elf/lib\libsysbase.a(sbrk.o)
 *fill*         0x000000000002499c        0x4 60000000
 .text._sbrk_r  0x00000000000249a0       0x78 e:/psdk3v2/psdk3v2-master/ps3dev/ppu/bin/../lib/gcc/powerpc64-ps3-elf/4.5.2/../../../../powerpc64-ps3-elf/lib\libsysbase.a(sbrk.o)
                0x00000000000249a0                ._sbrk_r
 .text          0x0000000000024a18        0x0 e:/psdk3v2/psdk3v2-master/ps3dev/ppu/bin/../lib/gcc/powerpc64-ps3-elf/4.5.2/../../../../powerpc64-ps3-elf/lib\libsysbase.a(_exit.o)
 .text._exit    0x0000000000024a18       0x48 e:/psdk3v2/psdk3v2-master/ps3dev/ppu/bin/../lib/gcc/powerpc64-ps3-elf/4.5.2/../../../../powerpc64-ps3-elf/lib\libsysbase.a(_exit.o)
                0x0000000000024a18                ._exit
 .text          0x0000000000024a60        0x0 e:/psdk3v2/psdk3v2-master/ps3dev/ppu/bin/../lib/gcc/powerpc64-ps3-elf/4.5.2/../../../../powerpc64-ps3-elf/lib\libsysbase.a(fstat.o)
 .text._fstat_r
                0x0000000000024a60       0x6c e:/psdk3v2/psdk3v2-master/ps3dev/ppu/bin/../lib/gcc/powerpc64-ps3-elf/4.5.2/../../../../powerpc64-ps3-elf/lib\libsysbase.a(fstat.o)
                0x0000000000024a60                ._fstat_r
 .text          0x0000000000024acc        0x0 e:/psdk3v2/psdk3v2-master/ps3dev/ppu/bin/../lib/gcc/powerpc64-ps3-elf/4.5.2/../../../../powerpc64-ps3-elf/lib\libsysbase.a(isatty.o)
 *fill*         0x0000000000024acc        0x4 60000000
 .text._isatty_r
                0x0000000000024ad0       0x78 e:/psdk3v2/psdk3v2-master/ps3dev/ppu/bin/../lib/gcc/powerpc64-ps3-elf/4.5.2/../../../../powerpc64-ps3-elf/lib\libsysbase.a(isatty.o)
                0x0000000000024ad0                ._isatty_r
 .text          0x0000000000024b48        0x0 e:/psdk3v2/psdk3v2-master/ps3dev/ppu/bin/../lib/gcc/powerpc64-ps3-elf/4.5.2/../../../../powerpc64-ps3-elf/lib\libsysbase.a(lseek.o)
 .text._lseek_r
                0x0000000000024b48       0x6c e:/psdk3v2/psdk3v2-master/ps3dev/ppu/bin/../lib/gcc/powerpc64-ps3-elf/4.5.2/../../../../powerpc64-ps3-elf/lib\libsysbase.a(lseek.o)
                0x0000000000024b48                ._lseek_r
 .text          0x0000000000024bb4        0x0 e:/psdk3v2/psdk3v2-master/ps3dev/ppu/bin/../lib/gcc/powerpc64-ps3-elf/4.5.2/../../../../powerpc64-ps3-elf/lib\libsysbase.a(open.o)
 *fill*         0x0000000000024bb4        0x4 60000000
 .text._open_r  0x0000000000024bb8       0x6c e:/psdk3v2/psdk3v2-master/ps3dev/ppu/bin/../lib/gcc/powerpc64-ps3-elf/4.5.2/../../../../powerpc64-ps3-elf/lib\libsysbase.a(open.o)
                0x0000000000024bb8                ._open_r
 .text          0x0000000000024c24        0x0 e:/psdk3v2/psdk3v2-master/ps3dev/ppu/bin/../lib/gcc/powerpc64-ps3-elf/4.5.2/../../../../powerpc64-ps3-elf/lib\libsysbase.a(read.o)
 *fill*         0x0000000000024c24        0x4 60000000
 .text._read_r  0x0000000000024c28       0x6c e:/psdk3v2/psdk3v2-master/ps3dev/ppu/bin/../lib/gcc/powerpc64-ps3-elf/4.5.2/../../../../powerpc64-ps3-elf/lib\libsysbase.a(read.o)
                0x0000000000024c28                ._read_r
 .text          0x0000000000024c94        0x0 e:/psdk3v2/psdk3v2-master/ps3dev/ppu/bin/../lib/gcc/powerpc64-ps3-elf/4.5.2/../../../../powerpc64-ps3-elf/lib\libsysbase.a(write.o)
 *fill*         0x0000000000024c94        0x4 60000000
 .text._write_r
                0x0000000000024c98       0x6c e:/psdk3v2/psdk3v2-master/ps3dev/ppu/bin/../lib/gcc/powerpc64-ps3-elf/4.5.2/../../../../powerpc64-ps3-elf/lib\libsysbase.a(write.o)
                0x0000000000024c98                ._write_r
 .text          0x0000000000024d04        0x0 e:/psdk3v2/psdk3v2-master/ps3dev/ppu/bin/../lib/gcc/powerpc64-ps3-elf/4.5.2/../../../../powerpc64-ps3-elf/lib\libsysbase.a(lock.o)
 *fill*         0x0000000000024d04        0x4 60000000
 .text.sys_lwmutex_create
                0x0000000000024d08       0x94 e:/psdk3v2/psdk3v2-master/ps3dev/ppu/bin/../lib/gcc/powerpc64-ps3-elf/4.5.2/../../../../powerpc64-ps3-elf/lib\libsysbase.a(lock.o)
                0x0000000000024d08                .sys_lwmutex_create
 *fill*         0x0000000000024d9c        0x4 60000000
 .text.sys_lwmutex_destroy
                0x0000000000024da0       0x84 e:/psdk3v2/psdk3v2-master/ps3dev/ppu/bin/../lib/gcc/powerpc64-ps3-elf/4.5.2/../../../../powerpc64-ps3-elf/lib\libsysbase.a(lock.o)
                0x0000000000024da0                .sys_lwmutex_destroy
 *fill*         0x0000000000024e24        0x4 60000000
 .text.sys_lwmutex_lock
                0x0000000000024e28       0x94 e:/psdk3v2/psdk3v2-master/ps3dev/ppu/bin/../lib/gcc/powerpc64-ps3-elf/4.5.2/../../../../powerpc64-ps3-elf/lib\libsysbase.a(lock.o)
                0x0000000000024e28                .sys_lwmutex_lock
 *fill*         0x0000000000024ebc        0x4 60000000
 .text.sys_lwmutex_trylock
                0x0000000000024ec0       0x84 e:/psdk3v2/psdk3v2-master/ps3dev/ppu/bin/../lib/gcc/powerpc64-ps3-elf/4.5.2/../../../../powerpc64-ps3-elf/lib\libsysbase.a(lock.o)
                0x0000000000024ec0                .sys_lwmutex_trylock
 *fill*         0x0000000000024f44        0x4 60000000
 .text.sys_lwmutex_unlock
                0x0000000000024f48       0x84 e:/psdk3v2/psdk3v2-master/ps3dev/ppu/bin/../lib/gcc/powerpc64-ps3-elf/4.5.2/../../../../powerpc64-ps3-elf/lib\libsysbase.a(lock.o)
                0x0000000000024f48                .sys_lwmutex_unlock
 .text          0x0000000000024fcc        0x0 e:/psdk3v2/psdk3v2-master/ps3dev/ppu/bin/../lib/gcc/powerpc64-ps3-elf/4.5.2/../../../../powerpc64-ps3-elf/lib\libsysbase.a(getpid.o)
 *fill*         0x0000000000024fcc        0x4 60000000
 .text._getpid_r
                0x0000000000024fd0       0x6c e:/psdk3v2/psdk3v2-master/ps3dev/ppu/bin/../lib/gcc/powerpc64-ps3-elf/4.5.2/../../../../powerpc64-ps3-elf/lib\libsysbase.a(getpid.o)
                0x0000000000024fd0                ._getpid_r
 .text          0x000000000002503c        0x0 e:/psdk3v2/psdk3v2-master/ps3dev/ppu/bin/../lib/gcc/powerpc64-ps3-elf/4.5.2/../../../../powerpc64-ps3-elf/lib\libsysbase.a(kill.o)
 *fill*         0x000000000002503c        0x4 60000000
 .text._kill_r  0x0000000000025040       0x1c e:/psdk3v2/psdk3v2-master/ps3dev/ppu/bin/../lib/gcc/powerpc64-ps3-elf/4.5.2/../../../../powerpc64-ps3-elf/lib\libsysbase.a(kill.o)
                0x0000000000025040                ._kill_r
 .text          0x000000000002505c        0x0 e:/psdk3v2/psdk3v2-master/ps3dev/ppu/bin/../lib/gcc/powerpc64-ps3-elf/4.5.2/../../../../powerpc64-ps3-elf/lib\libsysbase.a(gettod.o)
 *fill*         0x000000000002505c        0x4 60000000
 .text._gettimeofday_r
                0x0000000000025060       0x6c e:/psdk3v2/psdk3v2-master/ps3dev/ppu/bin/../lib/gcc/powerpc64-ps3-elf/4.5.2/../../../../powerpc64-ps3-elf/lib\libsysbase.a(gettod.o)
                0x0000000000025060                ._gettimeofday_r
 .text          0x00000000000250cc        0x0 e:/psdk3v2/psdk3v2-master/ps3dev/ppu/bin/../lib/gcc/powerpc64-ps3-elf/4.5.2/../../../../powerpc64-ps3-elf/lib\libc.a(lib_a-errno.o)
 *fill*         0x00000000000250cc        0x4 60000000
 .text.__errno  0x00000000000250d0       0x30 e:/psdk3v2/psdk3v2-master/ps3dev/ppu/bin/../lib/gcc/powerpc64-ps3-elf/4.5.2/../../../../powerpc64-ps3-elf/lib\libc.a(lib_a-errno.o)
                0x00000000000250d0                .__errno
 .text          0x0000000000025100        0x0 e:/psdk3v2/psdk3v2-master/ps3dev/ppu/bin/../lib/gcc/powerpc64-ps3-elf/4.5.2/../../../../powerpc64-ps3-elf/lib\libc.a(lib_a-sscanf.o)
 .text.sscanf   0x0000000000025100       0xa8 e:/psdk3v2/psdk3v2-master/ps3dev/ppu/bin/../lib/gcc/powerpc64-ps3-elf/4.5.2/../../../../powerpc64-ps3-elf/lib\libc.a(lib_a-sscanf.o)
                0x0000000000025100                .sscanf
 .text._sscanf_r
                0x00000000000251a8       0xa8 e:/psdk3v2/psdk3v2-master/ps3dev/ppu/bin/../lib/gcc/powerpc64-ps3-elf/4.5.2/../../../../powerpc64-ps3-elf/lib\libc.a(lib_a-sscanf.o)
                0x00000000000251a8                ._sscanf_r
 .text          0x0000000000025250        0x0 e:/psdk3v2/psdk3v2-master/ps3dev/ppu/bin/../lib/gcc/powerpc64-ps3-elf/4.5.2/../../../../powerpc64-ps3-elf/lib\libc.a(lib_a-strncpy.o)
 .text.strncpy  0x0000000000025250      0x100 e:/psdk3v2/psdk3v2-master/ps3dev/ppu/bin/../lib/gcc/powerpc64-ps3-elf/4.5.2/../../../../powerpc64-ps3-elf/lib\libc.a(lib_a-strncpy.o)
                0x0000000000025250                .strncpy
 .text          0x0000000000025350        0x0 e:/psdk3v2/psdk3v2-master/ps3dev/ppu/bin/../lib/gcc/powerpc64-ps3-elf/4.5.2/../../../../powerpc64-ps3-elf/lib\libc.a(lib_a-svfscanf.o)
 .text.__ssvfscanf_r
                0x0000000000025350     0x18d8 e:/psdk3v2/psdk3v2-master/ps3dev/ppu/bin/../lib/gcc/powerpc64-ps3-elf/4.5.2/../../../../powerpc64-ps3-elf/lib\libc.a(lib_a-svfscanf.o)
                0x0000000000025350                .__ssvfscanf_r
 .text          0x0000000000026c28        0x0 e:/psdk3v2/psdk3v2-master/ps3dev/ppu/bin/../lib/gcc/powerpc64-ps3-elf/4.5.2/../../../../powerpc64-ps3-elf/lib\libc.a(lib_a-ctype_.o)
 .text          0x0000000000026c28        0x0 e:/psdk3v2/psdk3v2-master/ps3dev/ppu/bin/../lib/gcc/powerpc64-ps3-elf/4.5.2/../../../../powerpc64-ps3-elf/lib\libc.a(lib_a-iswspace.o)
 .text.iswspace
                0x0000000000026c28       0x3c e:/psdk3v2/psdk3v2-master/ps3dev/ppu/bin/../lib/gcc/powerpc64-ps3-elf/4.5.2/../../../../powerpc64-ps3-elf/lib\libc.a(lib_a-iswspace.o)
                0x0000000000026c28                .iswspace
 .text          0x0000000000026c64        0x0 e:/psdk3v2/psdk3v2-master/ps3dev/ppu/bin/../lib/gcc/powerpc64-ps3-elf/4.5.2/../../../../powerpc64-ps3-elf/lib\libc.a(lib_a-mbrtowc.o)
 *fill*         0x0000000000026c64        0x4 60000000
 .text._mbrtowc_r
                0x0000000000026c68      0x10c e:/psdk3v2/psdk3v2-master/ps3dev/ppu/bin/../lib/gcc/powerpc64-ps3-elf/4.5.2/../../../../powerpc64-ps3-elf/lib\libc.a(lib_a-mbrtowc.o)
                0x0000000000026c68                ._mbrtowc_r
 *fill*         0x0000000000026d74        0x4 60000000
 .text.mbrtowc  0x0000000000026d78      0x170 e:/psdk3v2/psdk3v2-master/ps3dev/ppu/bin/../lib/gcc/powerpc64-ps3-elf/4.5.2/../../../../powerpc64-ps3-elf/lib\libc.a(lib_a-mbrtowc.o)
                0x0000000000026d78                .mbrtowc
 .text          0x0000000000026ee8        0x0 e:/psdk3v2/psdk3v2-master/ps3dev/ppu/bin/../lib/gcc/powerpc64-ps3-elf/4.5.2/../../../../powerpc64-ps3-elf/lib\libc.a(lib_a-mbtowc_r.o)
 .text.__ascii_mbtowc
                0x0000000000026ee8       0x58 e:/psdk3v2/psdk3v2-master/ps3dev/ppu/bin/../lib/gcc/powerpc64-ps3-elf/4.5.2/../../../../powerpc64-ps3-elf/lib\libc.a(lib_a-mbtowc_r.o)
                0x0000000000026ee8                .__ascii_mbtowc
 .text._mbtowc_r
                0x0000000000026f40       0x98 e:/psdk3v2/psdk3v2-master/ps3dev/ppu/bin/../lib/gcc/powerpc64-ps3-elf/4.5.2/../../../../powerpc64-ps3-elf/lib\libc.a(lib_a-mbtowc_r.o)
                0x0000000000026f40                ._mbtowc_r
 .text          0x0000000000026fd8        0x0 e:/psdk3v2/psdk3v2-master/ps3dev/ppu/bin/../lib/gcc/powerpc64-ps3-elf/4.5.2/../../../../powerpc64-ps3-elf/lib\libc.a(lib_a-sccl.o)
 .text.__sccl   0x0000000000026fd8      0x120 e:/psdk3v2/psdk3v2-master/ps3dev/ppu/bin/../lib/gcc/powerpc64-ps3-elf/4.5.2/../../../../powerpc64-ps3-elf/lib\libc.a(lib_a-sccl.o)
                0x0000000000026fd8                .__sccl
 .text          0x00000000000270f8        0x0 e:/psdk3v2/psdk3v2-master/ps3dev/ppu/bin/../lib/gcc/powerpc64-ps3-elf/4.5.2/../../../../powerpc64-ps3-elf/lib\libc.a(lib_a-sf_nan.o)
 .text.nanf     0x00000000000270f8       0x18 e:/psdk3v2/psdk3v2-master/ps3dev/ppu/bin/../lib/gcc/powerpc64-ps3-elf/4.5.2/../../../../powerpc64-ps3-elf/lib\libc.a(lib_a-sf_nan.o)
                0x00000000000270f8                .nanf
 .text          0x0000000000027110        0x0 e:/psdk3v2/psdk3v2-master/ps3dev/ppu/bin/../lib/gcc/powerpc64-ps3-elf/4.5.2/../../../../powerpc64-ps3-elf/lib\libc.a(lib_a-strtod.o)
 .text.match    0x0000000000027110       0x6c e:/psdk3v2/psdk3v2-master/ps3dev/ppu/bin/../lib/gcc/powerpc64-ps3-elf/4.5.2/../../../../powerpc64-ps3-elf/lib\libc.a(lib_a-strtod.o)
 *fill*         0x000000000002717c        0x4 60000000
 .text._strtod_r
                0x0000000000027180     0x1578 e:/psdk3v2/psdk3v2-master/ps3dev/ppu/bin/../lib/gcc/powerpc64-ps3-elf/4.5.2/../../../../powerpc64-ps3-elf/lib\libc.a(lib_a-strtod.o)
                0x0000000000027180                ._strtod_r
 .text.strtod   0x00000000000286f8       0x50 e:/psdk3v2/psdk3v2-master/ps3dev/ppu/bin/../lib/gcc/powerpc64-ps3-elf/4.5.2/../../../../powerpc64-ps3-elf/lib\libc.a(lib_a-strtod.o)
                0x00000000000286f8                .strtod
 .text.strtof   0x0000000000028748       0x98 e:/psdk3v2/psdk3v2-master/ps3dev/ppu/bin/../lib/gcc/powerpc64-ps3-elf/4.5.2/../../../../powerpc64-ps3-elf/lib\libc.a(lib_a-strtod.o)
                0x0000000000028748                .strtof
 .text          0x00000000000287e0        0x0 e:/psdk3v2/psdk3v2-master/ps3dev/ppu/bin/../lib/gcc/powerpc64-ps3-elf/4.5.2/../../../../powerpc64-ps3-elf/lib\libc.a(lib_a-strtol.o)
 .text._strtol_r
                0x00000000000287e0      0x24c e:/psdk3v2/psdk3v2-master/ps3dev/ppu/bin/../lib/gcc/powerpc64-ps3-elf/4.5.2/../../../../powerpc64-ps3-elf/lib\libc.a(lib_a-strtol.o)
                0x00000000000287e0                ._strtol_r
 *fill*         0x0000000000028a2c        0x4 60000000
 .text.strtol   0x0000000000028a30       0x60 e:/psdk3v2/psdk3v2-master/ps3dev/ppu/bin/../lib/gcc/powerpc64-ps3-elf/4.5.2/../../../../powerpc64-ps3-elf/lib\libc.a(lib_a-strtol.o)
                0x0000000000028a30                .strtol
 .text          0x0000000000028a90        0x0 e:/psdk3v2/psdk3v2-master/ps3dev/ppu/bin/../lib/gcc/powerpc64-ps3-elf/4.5.2/../../../../powerpc64-ps3-elf/lib\libc.a(lib_a-strtoll_r.o)
 .text._strtoll_r
                0x0000000000028a90      0x24c e:/psdk3v2/psdk3v2-master/ps3dev/ppu/bin/../lib/gcc/powerpc64-ps3-elf/4.5.2/../../../../powerpc64-ps3-elf/lib\libc.a(lib_a-strtoll_r.o)
                0x0000000000028a90                ._strtoll_r
 .text          0x0000000000028cdc        0x0 e:/psdk3v2/psdk3v2-master/ps3dev/ppu/bin/../lib/gcc/powerpc64-ps3-elf/4.5.2/../../../../powerpc64-ps3-elf/lib\libc.a(lib_a-strtoul.o)
 *fill*         0x0000000000028cdc        0x4 60000000
 .text._strtoul_r
                0x0000000000028ce0      0x230 e:/psdk3v2/psdk3v2-master/ps3dev/ppu/bin/../lib/gcc/powerpc64-ps3-elf/4.5.2/../../../../powerpc64-ps3-elf/lib\libc.a(lib_a-strtoul.o)
                0x0000000000028ce0                ._strtoul_r
 .text.strtoul  0x0000000000028f10       0x60 e:/psdk3v2/psdk3v2-master/ps3dev/ppu/bin/../lib/gcc/powerpc64-ps3-elf/4.5.2/../../../../powerpc64-ps3-elf/lib\libc.a(lib_a-strtoul.o)
                0x0000000000028f10                .strtoul
 .text          0x0000000000028f70        0x0 e:/psdk3v2/psdk3v2-master/ps3dev/ppu/bin/../lib/gcc/powerpc64-ps3-elf/4.5.2/../../../../powerpc64-ps3-elf/lib\libc.a(lib_a-strtoull_r.o)
 .text._strtoull_r
                0x0000000000028f70      0x230 e:/psdk3v2/psdk3v2-master/ps3dev/ppu/bin/../lib/gcc/powerpc64-ps3-elf/4.5.2/../../../../powerpc64-ps3-elf/lib\libc.a(lib_a-strtoull_r.o)
                0x0000000000028f70                ._strtoull_r
 .text          0x00000000000291a0        0x0 e:/psdk3v2/psdk3v2-master/ps3dev/ppu/bin/../lib/gcc/powerpc64-ps3-elf/4.5.2/../../../../powerpc64-ps3-elf/lib\libc.a(lib_a-svfiscanf.o)
 .text._sungetc_r
                0x00000000000291a0      0x158 e:/psdk3v2/psdk3v2-master/ps3dev/ppu/bin/../lib/gcc/powerpc64-ps3-elf/4.5.2/../../../../powerpc64-ps3-elf/lib\libc.a(lib_a-svfiscanf.o)
                0x00000000000291a0                ._sungetc_r
 .text.__ssrefill_r
                0x00000000000292f8       0xa0 e:/psdk3v2/psdk3v2-master/ps3dev/ppu/bin/../lib/gcc/powerpc64-ps3-elf/4.5.2/../../../../powerpc64-ps3-elf/lib\libc.a(lib_a-svfiscanf.o)
                0x00000000000292f8                .__ssrefill_r
 .text._sfread_r
                0x0000000000029398      0x194 e:/psdk3v2/psdk3v2-master/ps3dev/ppu/bin/../lib/gcc/powerpc64-ps3-elf/4.5.2/../../../../powerpc64-ps3-elf/lib\libc.a(lib_a-svfiscanf.o)
                0x0000000000029398                ._sfread_r
 *fill*         0x000000000002952c        0x4 60000000
 .text.__ssvfiscanf_r
                0x0000000000029530     0x1208 e:/psdk3v2/psdk3v2-master/ps3dev/ppu/bin/../lib/gcc/powerpc64-ps3-elf/4.5.2/../../../../powerpc64-ps3-elf/lib\libc.a(lib_a-svfiscanf.o)
                0x0000000000029530                .__ssvfiscanf_r
 .text          0x000000000002a738        0x0 e:/psdk3v2/psdk3v2-master/ps3dev/ppu/bin/../lib/gcc/powerpc64-ps3-elf/4.5.2/../../../../powerpc64-ps3-elf/lib\libc.a(lib_a-ungetc.o)
 .text.__submore
                0x000000000002a738      0x124 e:/psdk3v2/psdk3v2-master/ps3dev/ppu/bin/../lib/gcc/powerpc64-ps3-elf/4.5.2/../../../../powerpc64-ps3-elf/lib\libc.a(lib_a-ungetc.o)
                0x000000000002a738                .__submore
 *fill*         0x000000000002a85c        0x4 60000000
 .text._ungetc_r
                0x000000000002a860      0x2b8 e:/psdk3v2/psdk3v2-master/ps3dev/ppu/bin/../lib/gcc/powerpc64-ps3-elf/4.5.2/../../../../powerpc64-ps3-elf/lib\libc.a(lib_a-ungetc.o)
                0x000000000002a860                ._ungetc_r
 .text.ungetc   0x000000000002ab18       0x50 e:/psdk3v2/psdk3v2-master/ps3dev/ppu/bin/../lib/gcc/powerpc64-ps3-elf/4.5.2/../../../../powerpc64-ps3-elf/lib\libc.a(lib_a-ungetc.o)
                0x000000000002ab18                .ungetc
 .text          0x000000000002ab68        0x0 e:/psdk3v2/psdk3v2-master/ps3dev/ppu/bin/../lib/gcc/powerpc64-ps3-elf/4.5.2/../../../../powerpc64-ps3-elf/lib\libc.a(lib_a-gdtoa-gethex.o)
 .text.rshift   0x000000000002ab68      0x164 e:/psdk3v2/psdk3v2-master/ps3dev/ppu/bin/../lib/gcc/powerpc64-ps3-elf/4.5.2/../../../../powerpc64-ps3-elf/lib\libc.a(lib_a-gdtoa-gethex.o)
 *fill*         0x000000000002accc        0x4 60000000
 .text.__hexdig_init
                0x000000000002acd0       0x8c e:/psdk3v2/psdk3v2-master/ps3dev/ppu/bin/../lib/gcc/powerpc64-ps3-elf/4.5.2/../../../../powerpc64-ps3-elf/lib\libc.a(lib_a-gdtoa-gethex.o)
                0x000000000002acd0                .__hexdig_init
 *fill*         0x000000000002ad5c        0x4 60000000
 .text.__gethex
                0x000000000002ad60      0x934 e:/psdk3v2/psdk3v2-master/ps3dev/ppu/bin/../lib/gcc/powerpc64-ps3-elf/4.5.2/../../../../powerpc64-ps3-elf/lib\libc.a(lib_a-gdtoa-gethex.o)
                0x000000000002ad60                .__gethex
 .text          0x000000000002b694        0x0 e:/psdk3v2/psdk3v2-master/ps3dev/ppu/bin/../lib/gcc/powerpc64-ps3-elf/4.5.2/../../../../powerpc64-ps3-elf/lib\libc.a(lib_a-gdtoa-hexnan.o)
 *fill*         0x000000000002b694        0x4 60000000
 .text.__hexnan
                0x000000000002b698      0x324 e:/psdk3v2/psdk3v2-master/ps3dev/ppu/bin/../lib/gcc/powerpc64-ps3-elf/4.5.2/../../../../powerpc64-ps3-elf/lib\libc.a(lib_a-gdtoa-hexnan.o)
                0x000000000002b698                .__hexnan
 .text          0x000000000002b9bc        0x0 e:/psdk3v2/psdk3v2-master/ps3dev/ppu/bin/../lib/gcc/powerpc64-ps3-elf/4.5.2/../../../../powerpc64-ps3-elf/lib\libc.a(lib_a-strncmp.o)
 *fill*         0x000000000002b9bc        0x4 60000000
 .text.strncmp  0x000000000002b9c0      0x184 e:/psdk3v2/psdk3v2-master/ps3dev/ppu/bin/../lib/gcc/powerpc64-ps3-elf/4.5.2/../../../../powerpc64-ps3-elf/lib\libc.a(lib_a-strncmp.o)
                0x000000000002b9c0                .strncmp
 .text          0x000000000002bb44        0x0 e:/psdk3v2/psdk3v2-master/ps3dev/ppu/bin/../lib/gcc/powerpc64-ps3-elf/4.5.2/crtend.o
 *fill*         0x000000000002bb44        0x4 60000000
 .text.__do_global_ctors_aux
                0x000000000002bb48       0x64 e:/psdk3v2/psdk3v2-master/ps3dev/ppu/bin/../lib/gcc/powerpc64-ps3-elf/4.5.2/crtend.o
 .text          0x000000000002bbac        0x0 e:/psdk3v2/psdk3v2-master/ps3dev/ppu/bin/../lib/gcc/powerpc64-ps3-elf/4.5.2/../../../../powerpc64-ps3-elf/lib/lv2-crtn.o
 *(.text.*personality*)
 *(.gnu.warning)
 *(.sfpr .glink)
 .sfpr          0x0000000000000000        0x0 linker stubs
 *fill*         0x000000000002bbac        0x0 60000000
 .glink         0x0000000000000000        0x0 linker stubs

.fini           0x000000000002bbac       0x2c
 *(.fini)
 .fini          0x000000000002bbac        0xc e:/psdk3v2/psdk3v2-master/ps3dev/ppu/bin/../lib/gcc/powerpc64-ps3-elf/4.5.2/../../../../powerpc64-ps3-elf/lib/lv2-crti.o
                0x000000000002bbac                ._fini
 .fini          0x000000000002bbb8        0x8 e:/psdk3v2/psdk3v2-master/ps3dev/ppu/bin/../lib/gcc/powerpc64-ps3-elf/4.5.2/crtbegin.o
 .fini          0x000000000002bbc0        0x8 e:/PSDK3v2/PSDK3v2-master/psl1ght/ppu/lib\librt.a(sbrk.o)
 .fini          0x000000000002bbc8       0x10 e:/psdk3v2/psdk3v2-master/ps3dev/ppu/bin/../lib/gcc/powerpc64-ps3-elf/4.5.2/../../../../powerpc64-ps3-elf/lib/lv2-crtn.o

.sceStub.text   0x000000000002bbd8     0x1e00
 *(.sceStub.text)
 .sceStub.text  0x000000000002bbd8     0x1e00 ../liblv2.a(sprx.o)
                0x000000000002bbd8                __sysGetSystemTime
                0x000000000002bc18                __sysGetSystemSwVersion
                0x000000000002bc58                __sysGetTemperature
                0x000000000002bc98                __sysGetRandomNumber
                0x000000000002bcd8                __sysGetRtcStatus
                0x000000000002bd18                __sysBoardStorageRead
                0x000000000002bd58                __sysBoardStorageWrite
                0x000000000002bd98                __sysProcessIsStack
                0x000000000002bdd8                .sysProcessExit
                0x000000000002bdd8                __sysProcessExit
                0x000000000002be18                __sysProcessExitspawn
                0x000000000002be58                __sysProcessExitSpawn2Ex
                0x000000000002be98                __sysProcessExitSpawnWithLevel
                0x000000000002bed8                __sysProcessAtExitSpawn
                0x000000000002bf18                __sysProcess_At_ExitSpawn
                0x000000000002bf58                ._sys_process_atexitspawn
                0x000000000002bf58                ___sys_process_atexitspawn
                0x000000000002bf98                __sysPrxRegisterLibrary
                0x000000000002bfd8                __sysPrxUnregisterLibrary
                0x000000000002c018                __sysPrxStartModule
                0x000000000002c058                __sysPrxStopModule
                0x000000000002c098                __sysPrxLoadModule
                0x000000000002c0d8                __sysPrxLoadModuleByFd
                0x000000000002c118                __sysPrxLoadModuleList
                0x000000000002c158                __sysPrxLoadModuleListOnMemcontainer
                0x000000000002c198                __sysPrxLoadModuleOnMemcontainer
                0x000000000002c1d8                __sysPrxLoadModuleOnMemcontainerByFd
                0x000000000002c218                __sysPrxGetModuleInfo
                0x000000000002c258                __sysPrxGetModuleList
                0x000000000002c298                __sysPrxGetModuleId
                0x000000000002c2d8                __sysPrxGetModuleIdByAddress
                0x000000000002c318                __sysPrxGetModuleIdByName
                0x000000000002c358                __sysPrxUnloadModule
                0x000000000002c398                __sysPrxExitSpawnWithLevel
                0x000000000002c3d8                __sysThreadCreateEx
                0x000000000002c418                __sysThreadExit
                0x000000000002c458                __sysThreadGetId
                0x000000000002c498                __sysThreadOnce
                0x000000000002c4d8                __sysThreadInitialzeTLS
                0x000000000002c518                __sysThreadRegisterAtexit
                0x000000000002c558                __sysThreadUnregisterAtexit
                0x000000000002c598                __sysInterruptThreadDisestablish
                0x000000000002c5d8                .sysLwMutexCreate
                0x000000000002c5d8                __sysLwMutexCreate
                0x000000000002c618                __sysLwMutexDestroy
                0x000000000002c618                .sysLwMutexDestroy
                0x000000000002c658                __sysLwMutexLock
                0x000000000002c658                .sysLwMutexLock
                0x000000000002c698                __sysLwMutexTryLock
                0x000000000002c698                .sysLwMutexTryLock
                0x000000000002c6d8                .sysLwMutexUnlock
                0x000000000002c6d8                __sysLwMutexUnlock
                0x000000000002c718                __sysLwCondCreate
                0x000000000002c758                __sysLwCondWait
                0x000000000002c798                __sysLwCondSignal
                0x000000000002c7d8                __sysLwCondSignalTo
                0x000000000002c818                __sysLwCondSignalAll
                0x000000000002c858                __sysLwCondDestroy
                0x000000000002c898                .sysSpinlockInitialize
                0x000000000002c898                __sysSpinlockInitialize
                0x000000000002c8d8                .sysSpinlockLock
                0x000000000002c8d8                __sysSpinlockLock
                0x000000000002c918                __sysSpinlockTryLock
                0x000000000002c958                .sysSpinlockUnlock
                0x000000000002c958                __sysSpinlockUnlock
                0x000000000002c998                __sysWatchdogClear
                0x000000000002c9d8                __sysWatchdogStart
                0x000000000002ca18                __sysWatchdogStop
                0x000000000002ca58                __sysMalloc
                0x000000000002ca98                __sysMemalign
                0x000000000002cad8                __sysMemchr
                0x000000000002cb18                __sysMemcmp
                0x000000000002cb58                __sysMemcpy
                0x000000000002cb98                __sysMemmove
                0x000000000002cbd8                __sysMemset
                0x000000000002cc18                __sysFree
                0x000000000002cc58                __sysHeapAllocHeapMemory
                0x000000000002cc98                __sysHeapCreateHeap
                0x000000000002ccd8                __sysHeapDeleteHeap
                0x000000000002cd18                __sysHeapFree
                0x000000000002cd58                __sysHeapGetMallInfo
                0x000000000002cd98                __sysHeapGetTotalFreeSize
                0x000000000002cdd8                __sysHeapMalloc
                0x000000000002ce18                __sysHeapMemalign
                0x000000000002ce58                __sysHeapStats
                0x000000000002ce98                __sysQsort
                0x000000000002ced8                __sysMempoolCreate
                0x000000000002cf18                __sysMempoolDestroy
                0x000000000002cf58                __sysMempoolGetCount
                0x000000000002cf98                __sysMempoolAllocateBlock
                0x000000000002cfd8                __sysMempoolTryAllocateBlock
                0x000000000002d018                __sysMempoolFreeBlock
                0x000000000002d058                __sysMMapperFreeMemory
                0x000000000002d058                .sysMMapperFreeMemory
                0x000000000002d098                __sysMMapperMapMemory
                0x000000000002d0d8                __sysMMapperUnmapMemory
                0x000000000002d0d8                .sysMMapperUnmapMemory
                0x000000000002d118                __sysMMapperAllocateMemory
                0x000000000002d118                .sysMMapperAllocateMemory
                0x000000000002d158                __sysMMapperAllocateMemoryFromContainer
                0x000000000002d198                __sysStrlen
                0x000000000002d1d8                __sysStrcpy
                0x000000000002d218                __sysStrncpy
                0x000000000002d258                __sysStrcat
                0x000000000002d298                __sysStrncat
                0x000000000002d2d8                __sysStrchr
                0x000000000002d318                __sysStrrchr
                0x000000000002d358                __sysStrcmp
                0x000000000002d398                __sysStrncmp
                0x000000000002d3d8                __sysStrncasecmp
                0x000000000002d418                __sysToLower
                0x000000000002d458                __sysToUpper
                0x000000000002d498                __sysSpuElfGetSegments
                0x000000000002d4d8                __sysSpuElfGetInformation
                0x000000000002d518                __sysSpuRawLoad
                0x000000000002d558                __sysSpuRawImageLoad
                0x000000000002d598                __sysSpuImageClose
                0x000000000002d5d8                __sysSpuImageImport
                0x000000000002d618                __sysSpuPrintfAttachGroup
                0x000000000002d658                __sysSpuPrintfAttachThread
                0x000000000002d698                __sysSpuPrintfDetachGroup
                0x000000000002d6d8                __sysSpuPrintfDetach_Tread
                0x000000000002d718                __sysSpuPrintfFinalize
                0x000000000002d758                __sysSpuPrintfInitialize
                0x000000000002d798                __sysConsoleGetc
                0x000000000002d7d8                __sysConsolePutc
                0x000000000002d818                __sysConsoleWrite
                0x000000000002d858                __sysPrintf
                0x000000000002d898                __sysSprintf
                0x000000000002d8d8                __sysSnprintf
                0x000000000002d918                __sysVprintf
                0x000000000002d958                __sysVsprintf
                0x000000000002d998                __sysVsnprintf
 *(SORT(.sceStub.text.*))
                0x000000000002d9d8                PROVIDE (__etext, .)
                0x000000000002d9d8                PROVIDE (_etext, .)
                0x000000000002d9d8                PROVIDE (etext, .)

.eh_frame_hdr   0x000000000002d9d8        0x0
 *(.eh_frame_hdr)
 .eh_frame_hdr  0x0000000000000000        0x0 e:/psdk3v2/psdk3v2-master/ps3dev/ppu/bin/../lib/gcc/powerpc64-ps3-elf/4.5.2/../../../../powerpc64-ps3-elf/lib/lv2-crtn.o

.eh_frame       0x000000000002d9d8        0x4
 *(.eh_frame)
 .eh_frame      0x000000000002d9d8        0x0 e:/psdk3v2/psdk3v2-master/ps3dev/ppu/bin/../lib/gcc/powerpc64-ps3-elf/4.5.2/crtbegin.o
 .eh_frame      0x000000000002d9d8        0x4 e:/psdk3v2/psdk3v2-master/ps3dev/ppu/bin/../lib/gcc/powerpc64-ps3-elf/4.5.2/crtend.o

.gcc_except_table
 *(.gcc_except_table .gcc_except_table.*)

.rodata.sceResident
                0x000000000002d9dc       0x12
 *(.rodata.sceResident)
 .rodata.sceResident
                0x000000000002d9dc       0x12 ../liblv2.a(sprx.o)

.rodata.sceFNID
                0x000000000002d9f0      0x1e0
 *(.rodata.sceFNID .rodata.sceFNID.*)
 .rodata.sceFNID
                0x000000000002d9f0      0x1e0 ../liblv2.a(sprx.o)
                0x000000000002d9f0                sysPrxForUser
                0x000000000002d9f0                sysGetSystemTime_fnid
                0x000000000002d9f4                sysGetSystemSwVersion_fnid
                0x000000000002d9f8                sysGetTemperature_fnid
                0x000000000002d9fc                sysGetRandomNumber_fnid
                0x000000000002da00                sysGetRtcStatus_fnid
                0x000000000002da04                sysBoardStorageRead_fnid
                0x000000000002da08                sysBoardStorageWrite_fnid
                0x000000000002da0c                sysProcessIsStack_fnid
                0x000000000002da10                sysProcessExit_fnid
                0x000000000002da14                sysProcessExitspawn_fnid
                0x000000000002da18                sysProcessExitSpawn2Ex_fnid
                0x000000000002da1c                sysProcessExitSpawnWithLevel_fnid
                0x000000000002da20                sysProcessAtExitSpawn_fnid
                0x000000000002da24                sysProcess_At_ExitSpawn_fnid
                0x000000000002da28                _sys_process_atexitspawn_fnid
                0x000000000002da2c                sysPrxRegisterLibrary_fnid
                0x000000000002da30                sysPrxUnregisterLibrary_fnid
                0x000000000002da34                sysPrxStartModule_fnid
                0x000000000002da38                sysPrxStopModule_fnid
                0x000000000002da3c                sysPrxLoadModule_fnid
                0x000000000002da40                sysPrxLoadModuleByFd_fnid
                0x000000000002da44                sysPrxLoadModuleList_fnid
                0x000000000002da48                sysPrxLoadModuleListOnMemcontainer_fnid
                0x000000000002da4c                sysPrxLoadModuleOnMemcontainer_fnid
                0x000000000002da50                sysPrxLoadModuleOnMemcontainerByFd_fnid
                0x000000000002da54                sysPrxGetModuleInfo_fnid
                0x000000000002da58                sysPrxGetModuleList_fnid
                0x000000000002da5c                sysPrxGetModuleId_fnid
                0x000000000002da60                sysPrxGetModuleIdByAddress_fnid
                0x000000000002da64                sysPrxGetModuleIdByName_fnid
                0x000000000002da68                sysPrxUnloadModule_fnid
                0x000000000002da6c                sysPrxExitSpawnWithLevel_fnid
                0x000000000002da70                sysThreadCreateEx_fnid
                0x000000000002da74                sysThreadExit_fnid
                0x000000000002da78                sysThreadGetId_fnid
                0x000000000002da7c                sysThreadOnce_fnid
                0x000000000002da80                sysThreadInitialzeTLS_fnid
                0x000000000002da84                sysThreadRegisterAtexit_fnid
                0x000000000002da88                sysThreadUnregisterAtexit_fnid
                0x000000000002da8c                sysInterruptThreadDisestablish_fnid
                0x000000000002da90                sysLwMutexCreate_fnid
                0x000000000002da94                sysLwMutexDestroy_fnid
                0x000000000002da98                sysLwMutexLock_fnid
                0x000000000002da9c                sysLwMutexTryLock_fnid
                0x000000000002daa0                sysLwMutexUnlock_fnid
                0x000000000002daa4                sysLwCondCreate_fnid
                0x000000000002daa8                sysLwCondWait_fnid
                0x000000000002daac                sysLwCondSignal_fnid
                0x000000000002dab0                sysLwCondSignalTo_fnid
                0x000000000002dab4                sysLwCondSignalAll_fnid
                0x000000000002dab8                sysLwCondDestroy_fnid
                0x000000000002dabc                sysSpinlockInitialize_fnid
                0x000000000002dac0                sysSpinlockLock_fnid
                0x000000000002dac4                sysSpinlockTryLock_fnid
                0x000000000002dac8                sysSpinlockUnlock_fnid
                0x000000000002dacc                sysWatchdogClear_fnid
                0x000000000002dad0                sysWatchdogStart_fnid
                0x000000000002dad4                sysWatchdogStop_fnid
                0x000000000002dad8                sysMalloc_fnid
                0x000000000002dadc                sysMemalign_fnid
                0x000000000002dae0                sysMemchr_fnid
                0x000000000002dae4                sysMemcmp_fnid
                0x000000000002dae8                sysMemcpy_fnid
                0x000000000002daec                sysMemmove_fnid
                0x000000000002daf0                sysMemset_fnid
                0x000000000002daf4                sysFree_fnid
                0x000000000002daf8                sysHeapAllocHeapMemory_fnid
                0x000000000002dafc                sysHeapCreateHeap_fnid
                0x000000000002db00                sysHeapDeleteHeap_fnid
                0x000000000002db04                sysHeapFree_fnid
                0x000000000002db08                sysHeapGetMallInfo_fnid
                0x000000000002db0c                sysHeapGetTotalFreeSize_fnid
                0x000000000002db10                sysHeapMalloc_fnid
                0x000000000002db14                sysHeapMemalign_fnid
                0x000000000002db18                sysHeapStats_fnid
                0x000000000002db1c                sysQsort_fnid
                0x000000000002db20                sysMempoolCreate_fnid
                0x000000000002db24                sysMempoolDestroy_fnid
                0x000000000002db28                sysMempoolGetCount_fnid
                0x000000000002db2c                sysMempoolAllocateBlock_fnid
                0x000000000002db30                sysMempoolTryAllocateBlock_fnid
                0x000000000002db34                sysMempoolFreeBlock_fnid
                0x000000000002db38                sysMMapperFreeMemory_fnid
                0x000000000002db3c                sysMMapperMapMemory_fnid
                0x000000000002db40                sysMMapperUnmapMemory_fnid
                0x000000000002db44                sysMMapperAllocateMemory_fnid
                0x000000000002db48                sysMMapperAllocateMemoryFromContainer_fnid
                0x000000000002db4c                sysStrlen_fnid
                0x000000000002db50                sysStrcpy_fnid
                0x000000000002db54                sysStrncpy_fnid
                0x000000000002db58                sysStrcat_fnid
                0x000000000002db5c                sysStrncat_fnid
                0x000000000002db60                sysStrchr_fnid
                0x000000000002db64                sysStrrchr_fnid
                0x000000000002db68                sysStrcmp_fnid
                0x000000000002db6c                sysStrncmp_fnid
                0x000000000002db70                sysStrncasecmp_fnid
                0x000000000002db74                sysToLower_fnid
                0x000000000002db78                sysToUpper_fnid
                0x000000000002db7c                sysSpuElfGetSegments_fnid
                0x000000000002db80                sysSpuElfGetInformation_fnid
                0x000000000002db84                sysSpuRawLoad_fnid
                0x000000000002db88                sysSpuRawImageLoad_fnid
                0x000000000002db8c                sysSpuImageClose_fnid
                0x000000000002db90                sysSpuImageImport_fnid
                0x000000000002db94                sysSpuPrintfAttachGroup_fnid
                0x000000000002db98                sysSpuPrintfAttachThread_fnid
                0x000000000002db9c                sysSpuPrintfDetachGroup_fnid
                0x000000000002dba0                sysSpuPrintfDetach_Tread_fnid
                0x000000000002dba4                sysSpuPrintfFinalize_fnid
                0x000000000002dba8                sysSpuPrintfInitialize_fnid
                0x000000000002dbac                sysConsoleGetc_fnid
                0x000000000002dbb0                sysConsolePutc_fnid
                0x000000000002dbb4                sysConsoleWrite_fnid
                0x000000000002dbb8                sysPrintf_fnid
                0x000000000002dbbc                sysSprintf_fnid
                0x000000000002dbc0                sysSnprintf_fnid
                0x000000000002dbc4                sysVprintf_fnid
                0x000000000002dbc8                sysVsprintf_fnid
                0x000000000002dbcc                sysVsnprintf_fnid

.rodata.sceVNID
 *(.rodata.sceVNID .rodata.sceVNID.*)

.rodata.sceTNID
 *(.rodata.sceTNID .rodata.sceTNID.*)

.rodata.sceVStub
 *(.rodata.sceVStub)
 *(SORT(.rodata.sceVStub.*))
                0x000000000002dbd0                PROVIDE (__libentstart, .)

.lib.ent.top
 *(.lib.ent.top)

.lib.ent        0x000000000002dbd0        0x0
 *(.lib.ent)
 .lib.ent       0x000000000002dbd0        0x0 e:/psdk3v2/psdk3v2-master/ps3dev/ppu/bin/../lib/gcc/powerpc64-ps3-elf/4.5.2/../../../../powerpc64-ps3-elf/lib/lv2-sprx.o

.lib.ent.btm
 *(.lib.ent.btm)
                0x000000000002dbd0                PROVIDE (__libentend, .)
                0x000000000002dbd0                PROVIDE (__libstubstart, .)

.lib.stub.top
 *(.lib.stub.top)

.lib.stub       0x000000000002dbd0       0x2c
 *(.lib.stub)
 .lib.stub      0x000000000002dbd0        0x0 e:/psdk3v2/psdk3v2-master/ps3dev/ppu/bin/../lib/gcc/powerpc64-ps3-elf/4.5.2/../../../../powerpc64-ps3-elf/lib/lv2-sprx.o
 .lib.stub      0x000000000002dbd0       0x2c ../liblv2.a(sprx.o)

.lib.stub.btm
 *(.lib.stub.btm)
                0x000000000002dbfc                PROVIDE (__libstubend, .)

.ppu_rodata
 *(.ppu_rodata .ppu_rodata.*)

.sys_proc_param
 *(.sys_proc_param)

.sys_proc_prx_param
                0x000000000002dbfc       0x28
 *(.sys_proc_prx_param)
 .sys_proc_prx_param
                0x000000000002dbfc       0x28 e:/psdk3v2/psdk3v2-master/ps3dev/ppu/bin/../lib/gcc/powerpc64-ps3-elf/4.5.2/../../../../powerpc64-ps3-elf/lib/lv2-sprx.o
                0x0000000000030000                . = ALIGN (0x10000)

.ppu_data
 *(.ppu_data .ppu_data.*)

.sdata2
 *(.sdata2 .sdata2.* .gnu.linkonce.s2.*)

.sbss2
 *(.sbss2 .sbss2.* .gnu.linkonce.sb2.*)

.eh_frame
 *(.eh_frame)

.gcc_except_table
 *(.gcc_except_table .gcc_except_table.*)
                0x0000000000030000                . = ALIGN (0x8)

.preinit_array  0x0000000000030000        0x0
                0x0000000000030000                PROVIDE (__preinit_array_start, .)
 *(.preinit_array)
                0x0000000000030000                PROVIDE (__preinit_array_end, .)

.init_array     0x0000000000030000        0x0
                0x0000000000030000                PROVIDE (__init_array_start, .)
 *(SORT(.init_array.*))
 *(.init_array)
                0x0000000000030000                PROVIDE (__init_array_end, .)

.fini_array     0x0000000000030000        0x0
                0x0000000000030000                PROVIDE (__fini_array_start, .)
 *(.fini_array)
 *(SORT(.fini_array.*))
                0x0000000000030000                PROVIDE (__fini_array_end, .)

.ctors          0x0000000000030000       0x28
 *crtbegin.o(.ctors)
 .ctors         0x0000000000030000        0x8 e:/psdk3v2/psdk3v2-master/ps3dev/ppu/bin/../lib/gcc/powerpc64-ps3-elf/4.5.2/crtbegin.o
 *crtbegin?.o(.ctors)
 *(EXCLUDE_FILE(*crtend?.o *crtend.o) .ctors)
 *(SORT(.ctors.*))
 .ctors.65430   0x0000000000030008        0x8 e:/psdk3v2/psdk3v2-master/ps3dev/ppu/bin/../lib/gcc/powerpc64-ps3-elf/4.5.2/../../../../powerpc64-ps3-elf/lib\libc.a(lib_a-lock_internal.o)
 .ctors.65431   0x0000000000030010        0x8 e:/psdk3v2/psdk3v2-master/ps3dev/ppu/bin/../lib/gcc/powerpc64-ps3-elf/4.5.2/../../../../powerpc64-ps3-elf/lib/lv2-crt0.o
 .ctors.65432   0x0000000000030018        0x8 e:/PSDK3v2/PSDK3v2-master/psl1ght/ppu/lib\librt.a(sbrk.o)
 *(.ctors)
 .ctors         0x0000000000030020        0x8 e:/psdk3v2/psdk3v2-master/ps3dev/ppu/bin/../lib/gcc/powerpc64-ps3-elf/4.5.2/crtend.o

.dtors          0x0000000000030028       0x10
 *crtbegin.o(.dtors)
 .dtors         0x0000000000030028        0x8 e:/psdk3v2/psdk3v2-master/ps3dev/ppu/bin/../lib/gcc/powerpc64-ps3-elf/4.5.2/crtbegin.o
 *crtbegin?.o(.dtors)
 *(EXCLUDE_FILE(*crtend?.o *crtend.o) .dtors)
 *(SORT(.dtors.*))
 *(.dtors)
 .dtors         0x0000000000030030        0x8 e:/psdk3v2/psdk3v2-master/ps3dev/ppu/bin/../lib/gcc/powerpc64-ps3-elf/4.5.2/crtend.o
                0x0000000000030030                __DTOR_END__

.jcr            0x0000000000030038        0x8
 *(.jcr)
 .jcr           0x0000000000030038        0x0 e:/psdk3v2/psdk3v2-master/ps3dev/ppu/bin/../lib/gcc/powerpc64-ps3-elf/4.5.2/crtbegin.o
 .jcr           0x0000000000030038        0x8 e:/psdk3v2/psdk3v2-master/ps3dev/ppu/bin/../lib/gcc/powerpc64-ps3-elf/4.5.2/crtend.o

.data.rel.ro
 *(.data.rel.ro.local*)
 *(.data.rel.ro*)

.dynamic
 *(.dynamic)

.data.sceFStub  0x0000000000030040      0x1e0
 *(.data.sceFStub)
 *(SORT(.data.sceFStub.*))
 .data.sceFStub.sysPrxForUser
                0x0000000000030040      0x1e0 ../liblv2.a(sprx.o)
                0x0000000000030040                sysGetSystemTime_stub
                0x0000000000030044                sysGetSystemSwVersion_stub
                0x0000000000030048                sysGetTemperature_stub
                0x000000000003004c                sysGetRandomNumber_stub
                0x0000000000030050                sysGetRtcStatus_stub
                0x0000000000030054                sysBoardStorageRead_stub
                0x0000000000030058                sysBoardStorageWrite_stub
                0x000000000003005c                sysProcessIsStack_stub
                0x0000000000030060                sysProcessExit_stub
                0x0000000000030064                sysProcessExitspawn_stub
                0x0000000000030068                sysProcessExitSpawn2Ex_stub
                0x000000000003006c                sysProcessExitSpawnWithLevel_stub
                0x0000000000030070                sysProcessAtExitSpawn_stub
                0x0000000000030074                sysProcess_At_ExitSpawn_stub
                0x0000000000030078                _sys_process_atexitspawn_stub
                0x000000000003007c                sysPrxRegisterLibrary_stub
                0x0000000000030080                sysPrxUnregisterLibrary_stub
                0x0000000000030084                sysPrxStartModule_stub
                0x0000000000030088                sysPrxStopModule_stub
                0x000000000003008c                sysPrxLoadModule_stub
                0x0000000000030090                sysPrxLoadModuleByFd_stub
                0x0000000000030094                sysPrxLoadModuleList_stub
                0x0000000000030098                sysPrxLoadModuleListOnMemcontainer_stub
                0x000000000003009c                sysPrxLoadModuleOnMemcontainer_stub
                0x00000000000300a0                sysPrxLoadModuleOnMemcontainerByFd_stub
                0x00000000000300a4                sysPrxGetModuleInfo_stub
                0x00000000000300a8                sysPrxGetModuleList_stub
                0x00000000000300ac                sysPrxGetModuleId_stub
                0x00000000000300b0                sysPrxGetModuleIdByAddress_stub
                0x00000000000300b4                sysPrxGetModuleIdByName_stub
                0x00000000000300b8                sysPrxUnloadModule_stub
                0x00000000000300bc                sysPrxExitSpawnWithLevel_stub
                0x00000000000300c0                sysThreadCreateEx_stub
                0x00000000000300c4                sysThreadExit_stub
                0x00000000000300c8                sysThreadGetId_stub
                0x00000000000300cc                sysThreadOnce_stub
                0x00000000000300d0                sysThreadInitialzeTLS_stub
                0x00000000000300d4                sysThreadRegisterAtexit_stub
                0x00000000000300d8                sysThreadUnregisterAtexit_stub
                0x00000000000300dc                sysInterruptThreadDisestablish_stub
                0x00000000000300e0                sysLwMutexCreate_stub
                0x00000000000300e4                sysLwMutexDestroy_stub
                0x00000000000300e8                sysLwMutexLock_stub
                0x00000000000300ec                sysLwMutexTryLock_stub
                0x00000000000300f0                sysLwMutexUnlock_stub
                0x00000000000300f4                sysLwCondCreate_stub
                0x00000000000300f8                sysLwCondWait_stub
                0x00000000000300fc                sysLwCondSignal_stub
                0x0000000000030100                sysLwCondSignalTo_stub
                0x0000000000030104                sysLwCondSignalAll_stub
                0x0000000000030108                sysLwCondDestroy_stub
                0x000000000003010c                sysSpinlockInitialize_stub
                0x0000000000030110                sysSpinlockLock_stub
                0x0000000000030114                sysSpinlockTryLock_stub
                0x0000000000030118                sysSpinlockUnlock_stub
                0x000000000003011c                sysWatchdogClear_stub
                0x0000000000030120                sysWatchdogStart_stub
                0x0000000000030124                sysWatchdogStop_stub
                0x0000000000030128                sysMalloc_stub
                0x000000000003012c                sysMemalign_stub
                0x0000000000030130                sysMemchr_stub
                0x0000000000030134                sysMemcmp_stub
                0x0000000000030138                sysMemcpy_stub
                0x000000000003013c                sysMemmove_stub
                0x0000000000030140                sysMemset_stub
                0x0000000000030144                sysFree_stub
                0x0000000000030148                sysHeapAllocHeapMemory_stub
                0x000000000003014c                sysHeapCreateHeap_stub
                0x0000000000030150                sysHeapDeleteHeap_stub
                0x0000000000030154                sysHeapFree_stub
                0x0000000000030158                sysHeapGetMallInfo_stub
                0x000000000003015c                sysHeapGetTotalFreeSize_stub
                0x0000000000030160                sysHeapMalloc_stub
                0x0000000000030164                sysHeapMemalign_stub
                0x0000000000030168                sysHeapStats_stub
                0x000000000003016c                sysQsort_stub
                0x0000000000030170                sysMempoolCreate_stub
                0x0000000000030174                sysMempoolDestroy_stub
                0x0000000000030178                sysMempoolGetCount_stub
                0x000000000003017c                sysMempoolAllocateBlock_stub
                0x0000000000030180                sysMempoolTryAllocateBlock_stub
                0x0000000000030184                sysMempoolFreeBlock_stub
                0x0000000000030188                sysMMapperFreeMemory_stub
                0x000000000003018c                sysMMapperMapMemory_stub
                0x0000000000030190                sysMMapperUnmapMemory_stub
                0x0000000000030194                sysMMapperAllocateMemory_stub
                0x0000000000030198                sysMMapperAllocateMemoryFromContainer_stub
                0x000000000003019c                sysStrlen_stub
                0x00000000000301a0                sysStrcpy_stub
                0x00000000000301a4                sysStrncpy_stub
                0x00000000000301a8                sysStrcat_stub
                0x00000000000301ac                sysStrncat_stub
                0x00000000000301b0                sysStrchr_stub
                0x00000000000301b4                sysStrrchr_stub
                0x00000000000301b8                sysStrcmp_stub
                0x00000000000301bc                sysStrncmp_stub
                0x00000000000301c0                sysStrncasecmp_stub
                0x00000000000301c4                sysToLower_stub
                0x00000000000301c8                sysToUpper_stub
                0x00000000000301cc                sysSpuElfGetSegments_stub
                0x00000000000301d0                sysSpuElfGetInformation_stub
                0x00000000000301d4                sysSpuRawLoad_stub
                0x00000000000301d8                sysSpuRawImageLoad_stub
                0x00000000000301dc                sysSpuImageClose_stub
                0x00000000000301e0                sysSpuImageImport_stub
                0x00000000000301e4                sysSpuPrintfAttachGroup_stub
                0x00000000000301e8                sysSpuPrintfAttachThread_stub
                0x00000000000301ec                sysSpuPrintfDetachGroup_stub
                0x00000000000301f0                sysSpuPrintfDetach_Tread_stub
                0x00000000000301f4                sysSpuPrintfFinalize_stub
                0x00000000000301f8                sysSpuPrintfInitialize_stub
                0x00000000000301fc                sysConsoleGetc_stub
                0x0000000000030200                sysConsolePutc_stub
                0x0000000000030204                sysConsoleWrite_stub
                0x0000000000030208                sysPrintf_stub
                0x000000000003020c                sysSprintf_stub
                0x0000000000030210                sysSnprintf_stub
                0x0000000000030214                sysVprintf_stub
                0x0000000000030218                sysVsprintf_stub
                0x000000000003021c                sysVsnprintf_stub

.toc1
 *(.toc1)

.opd            0x0000000000030220     0x26e8
 *(.opd)
 .opd           0x0000000000030220       0x30 e:/psdk3v2/psdk3v2-master/ps3dev/ppu/bin/../lib/gcc/powerpc64-ps3-elf/4.5.2/../../../../powerpc64-ps3-elf/lib/lv2-crti.o
                0x0000000000030220                _init
                0x0000000000030238                _fini
 .opd           0x0000000000030250       0x30 e:/psdk3v2/psdk3v2-master/ps3dev/ppu/bin/../lib/gcc/powerpc64-ps3-elf/4.5.2/crtbegin.o
 .opd           0x0000000000030280       0x48 e:/psdk3v2/psdk3v2-master/ps3dev/ppu/bin/../lib/gcc/powerpc64-ps3-elf/4.5.2/../../../../powerpc64-ps3-elf/lib/lv2-crt0.o
                0x00000000000302b0                _initialize
 .opd           0x00000000000302c8      0x3f0 main.o
                0x00000000000302c8                console_write
                0x00000000000302e0                lv2peek
                0x00000000000302f8                lv2poke
                0x0000000000030310                lv2peek32
                0x0000000000030328                lv2poke32
                0x0000000000030340                find_syscall
                0x0000000000030358                reverse_search64
                0x0000000000030370                search64
                0x0000000000030388                find_syscall_table
                0x00000000000303a0                get_lv2_version
                0x00000000000303b8                get_syscall_table
                0x00000000000303d0                install_syscall
                0x00000000000303e8                find_vsh_process_obj
                0x0000000000030400                lv2_memcpy
                0x0000000000030418                dump_lv2
                0x0000000000030430                write_htab
                0x0000000000030448                lv2_patch_error
                0x0000000000030460                print_hex
                0x0000000000030478                get_idps
                0x0000000000030490                get_psid
                0x00000000000304a8                ring_buzzer
                0x00000000000304c0                be64
                0x00000000000304d8                be32
                0x00000000000304f0                wbe64
                0x0000000000030508                wbe32
                0x0000000000030520                wbe16
                0x0000000000030538                wbe8
                0x0000000000030550                get_rand
                0x0000000000030568                load_prx_module
                0x0000000000030580                read_file
                0x0000000000030598                write_file
                0x00000000000305b0                load_all_prx
                0x00000000000305c8                launchself
                0x00000000000305e0                launchselfback
                0x00000000000305f8                sys_fs_mount_ext
                0x0000000000030610                sys_fs_umount
                0x0000000000030628                filestat
                0x0000000000030640                unlink_secure
                0x0000000000030658                sys_shutdown
                0x0000000000030670                mount_flash
                0x0000000000030688                file_copy
                0x00000000000306a0                main
 .opd           0x00000000000306b8      0xb40 ../liblv2.a(sprx.o)
                0x00000000000306b8                sysGetSystemTime
                0x00000000000306d0                sysGetSystemSwVersion
                0x00000000000306e8                sysGetTemperature
                0x0000000000030700                sysGetRandomNumber
                0x0000000000030718                sysGetRtcStatus
                0x0000000000030730                sysBoardStorageRead
                0x0000000000030748                sysBoardStorageWrite
                0x0000000000030760                sysProcessIsStack
                0x0000000000030778                sysProcessExit
                0x0000000000030790                sysProcessExitspawn
                0x00000000000307a8                sysProcessExitSpawn2Ex
                0x00000000000307c0                sysProcessExitSpawnWithLevel
                0x00000000000307d8                sysProcessAtExitSpawn
                0x00000000000307f0                sysProcess_At_ExitSpawn
                0x0000000000030808                _sys_process_atexitspawn
                0x0000000000030820                sysPrxRegisterLibrary
                0x0000000000030838                sysPrxUnregisterLibrary
                0x0000000000030850                sysPrxStartModule
                0x0000000000030868                sysPrxStopModule
                0x0000000000030880                sysPrxLoadModule
                0x0000000000030898                sysPrxLoadModuleByFd
                0x00000000000308b0                sysPrxLoadModuleList
                0x00000000000308c8                sysPrxLoadModuleListOnMemcontainer
                0x00000000000308e0                sysPrxLoadModuleOnMemcontainer
                0x00000000000308f8                sysPrxLoadModuleOnMemcontainerByFd
                0x0000000000030910                sysPrxGetModuleInfo
                0x0000000000030928                sysPrxGetModuleList
                0x0000000000030940                sysPrxGetModuleId
                0x0000000000030958                sysPrxGetModuleIdByAddress
                0x0000000000030970                sysPrxGetModuleIdByName
                0x0000000000030988                sysPrxUnloadModule
                0x00000000000309a0                sysPrxExitSpawnWithLevel
                0x00000000000309b8                sysThreadCreateEx
                0x00000000000309d0                sysThreadExit
                0x00000000000309e8                sysThreadGetId
                0x0000000000030a00                sysThreadOnce
                0x0000000000030a18                sysThreadInitialzeTLS
                0x0000000000030a30                sysThreadRegisterAtexit
                0x0000000000030a48                sysThreadUnregisterAtexit
                0x0000000000030a60                sysInterruptThreadDisestablish
                0x0000000000030a78                sysLwMutexCreate
                0x0000000000030a90                sysLwMutexDestroy
                0x0000000000030aa8                sysLwMutexLock
                0x0000000000030ac0                sysLwMutexTryLock
                0x0000000000030ad8                sysLwMutexUnlock
                0x0000000000030af0                sysLwCondCreate
                0x0000000000030b08                sysLwCondWait
                0x0000000000030b20                sysLwCondSignal
                0x0000000000030b38                sysLwCondSignalTo
                0x0000000000030b50                sysLwCondSignalAll
                0x0000000000030b68                sysLwCondDestroy
                0x0000000000030b80                sysSpinlockInitialize
                0x0000000000030b98                sysSpinlockLock
                0x0000000000030bb0                sysSpinlockTryLock
                0x0000000000030bc8                sysSpinlockUnlock
                0x0000000000030be0                sysWatchdogClear
                0x0000000000030bf8                sysWatchdogStart
                0x0000000000030c10                sysWatchdogStop
                0x0000000000030c28                sysMalloc
                0x0000000000030c40                sysMemalign
                0x0000000000030c58                sysMemchr
                0x0000000000030c70                sysMemcmp
                0x0000000000030c88                sysMemcpy
                0x0000000000030ca0                sysMemmove
                0x0000000000030cb8                sysMemset
                0x0000000000030cd0                sysFree
                0x0000000000030ce8                sysHeapAllocHeapMemory
                0x0000000000030d00                sysHeapCreateHeap
                0x0000000000030d18                sysHeapDeleteHeap
                0x0000000000030d30                sysHeapFree
                0x0000000000030d48                sysHeapGetMallInfo
                0x0000000000030d60                sysHeapGetTotalFreeSize
                0x0000000000030d78                sysHeapMalloc
                0x0000000000030d90                sysHeapMemalign
                0x0000000000030da8                sysHeapStats
                0x0000000000030dc0                sysQsort
                0x0000000000030dd8                sysMempoolCreate
                0x0000000000030df0                sysMempoolDestroy
                0x0000000000030e08                sysMempoolGetCount
                0x0000000000030e20                sysMempoolAllocateBlock
                0x0000000000030e38                sysMempoolTryAllocateBlock
                0x0000000000030e50                sysMempoolFreeBlock
                0x0000000000030e68                sysMMapperFreeMemory
                0x0000000000030e80                sysMMapperMapMemory
                0x0000000000030e98                sysMMapperUnmapMemory
                0x0000000000030eb0                sysMMapperAllocateMemory
                0x0000000000030ec8                sysMMapperAllocateMemoryFromContainer
                0x0000000000030ee0                sysStrlen
                0x0000000000030ef8                sysStrcpy
                0x0000000000030f10                sysStrncpy
                0x0000000000030f28                sysStrcat
                0x0000000000030f40                sysStrncat
                0x0000000000030f58                sysStrchr
                0x0000000000030f70                sysStrrchr
                0x0000000000030f88                sysStrcmp
                0x0000000000030fa0                sysStrncmp
                0x0000000000030fb8                sysStrncasecmp
                0x0000000000030fd0                sysToLower
                0x0000000000030fe8                sysToUpper
                0x0000000000031000                sysSpuElfGetSegments
                0x0000000000031018                sysSpuElfGetInformation
                0x0000000000031030                sysSpuRawLoad
                0x0000000000031048                sysSpuRawImageLoad
                0x0000000000031060                sysSpuImageClose
                0x0000000000031078                sysSpuImageImport
                0x0000000000031090                sysSpuPrintfAttachGroup
                0x00000000000310a8                sysSpuPrintfAttachThread
                0x00000000000310c0                sysSpuPrintfDetachGroup
                0x00000000000310d8                sysSpuPrintfDetach_Tread
                0x00000000000310f0                sysSpuPrintfFinalize
                0x0000000000031108                sysSpuPrintfInitialize
                0x0000000000031120                sysConsoleGetc
                0x0000000000031138                sysConsolePutc
                0x0000000000031150                sysConsoleWrite
                0x0000000000031168                sysPrintf
                0x0000000000031180                sysSprintf
                0x0000000000031198                sysSnprintf
                0x00000000000311b0                sysVprintf
                0x00000000000311c8                sysVsprintf
                0x00000000000311e0                sysVsnprintf
 .opd           0x00000000000311f8       0x18 e:/psdk3v2/psdk3v2-master/ps3dev/ppu/bin/../lib/gcc/powerpc64-ps3-elf/4.5.2/../../../../powerpc64-ps3-elf/lib\libc.a(lib_a-exit.o)
                0x00000000000311f8                exit
 .opd           0x0000000000031210       0x30 e:/psdk3v2/psdk3v2-master/ps3dev/ppu/bin/../lib/gcc/powerpc64-ps3-elf/4.5.2/../../../../powerpc64-ps3-elf/lib\libc.a(lib_a-fclose.o)
                0x0000000000031210                _fclose_r
                0x0000000000031228                fclose
 .opd           0x0000000000031240       0x30 e:/psdk3v2/psdk3v2-master/ps3dev/ppu/bin/../lib/gcc/powerpc64-ps3-elf/4.5.2/../../../../powerpc64-ps3-elf/lib\libc.a(lib_a-fflush.o)
                0x0000000000031240                _fflush_r
                0x0000000000031258                fflush
 .opd           0x0000000000031270       0x30 e:/psdk3v2/psdk3v2-master/ps3dev/ppu/bin/../lib/gcc/powerpc64-ps3-elf/4.5.2/../../../../powerpc64-ps3-elf/lib\libc.a(lib_a-fgets.o)
                0x0000000000031270                _fgets_r
                0x0000000000031288                fgets
 .opd           0x00000000000312a0      0x138 e:/psdk3v2/psdk3v2-master/ps3dev/ppu/bin/../lib/gcc/powerpc64-ps3-elf/4.5.2/../../../../powerpc64-ps3-elf/lib\libc.a(lib_a-findfp.o)
                0x00000000000312a0                _cleanup_r
                0x00000000000312e8                __sfmoreglue
                0x0000000000031300                _cleanup
                0x0000000000031318                __sfp_lock_acquire
                0x0000000000031330                __sfp_lock_release
                0x0000000000031348                __sinit_lock_acquire
                0x0000000000031360                __sinit_lock_release
                0x0000000000031378                __sinit
                0x0000000000031390                __sfp
                0x00000000000313a8                __fp_lock_all
                0x00000000000313c0                __fp_unlock_all
 .opd           0x00000000000313d8       0x30 e:/psdk3v2/psdk3v2-master/ps3dev/ppu/bin/../lib/gcc/powerpc64-ps3-elf/4.5.2/../../../../powerpc64-ps3-elf/lib\libc.a(lib_a-fopen.o)
                0x00000000000313d8                _fopen_r
                0x00000000000313f0                fopen
 .opd           0x0000000000031408       0x30 e:/psdk3v2/psdk3v2-master/ps3dev/ppu/bin/../lib/gcc/powerpc64-ps3-elf/4.5.2/../../../../powerpc64-ps3-elf/lib\libc.a(lib_a-fread.o)
                0x0000000000031408                _fread_r
                0x0000000000031420                fread
 .opd           0x0000000000031438       0x30 e:/psdk3v2/psdk3v2-master/ps3dev/ppu/bin/../lib/gcc/powerpc64-ps3-elf/4.5.2/../../../../powerpc64-ps3-elf/lib\libc.a(lib_a-freer.o)
                0x0000000000031438                _malloc_trim_r
                0x0000000000031450                _free_r
 .opd           0x0000000000031468       0x30 e:/psdk3v2/psdk3v2-master/ps3dev/ppu/bin/../lib/gcc/powerpc64-ps3-elf/4.5.2/../../../../powerpc64-ps3-elf/lib\libc.a(lib_a-fseek.o)
                0x0000000000031468                _fseek_r
                0x0000000000031480                fseek
 .opd           0x0000000000031498       0x30 e:/psdk3v2/psdk3v2-master/ps3dev/ppu/bin/../lib/gcc/powerpc64-ps3-elf/4.5.2/../../../../powerpc64-ps3-elf/lib\libc.a(lib_a-ftell.o)
                0x0000000000031498                _ftell_r
                0x00000000000314b0                ftell
 .opd           0x00000000000314c8       0x30 e:/psdk3v2/psdk3v2-master/ps3dev/ppu/bin/../lib/gcc/powerpc64-ps3-elf/4.5.2/../../../../powerpc64-ps3-elf/lib\libc.a(lib_a-fwalk.o)
                0x00000000000314c8                _fwalk
                0x00000000000314e0                _fwalk_reent
 .opd           0x00000000000314f8       0x30 e:/psdk3v2/psdk3v2-master/ps3dev/ppu/bin/../lib/gcc/powerpc64-ps3-elf/4.5.2/../../../../powerpc64-ps3-elf/lib\libc.a(lib_a-fwrite.o)
                0x00000000000314f8                _fwrite_r
                0x0000000000031510                fwrite
 .opd           0x0000000000031528       0x18 e:/psdk3v2/psdk3v2-master/ps3dev/ppu/bin/../lib/gcc/powerpc64-ps3-elf/4.5.2/../../../../powerpc64-ps3-elf/lib\libc.a(lib_a-getreent.o)
                0x0000000000031528                __getreent
 .opd           0x0000000000031540       0x78 e:/psdk3v2/psdk3v2-master/ps3dev/ppu/bin/../lib/gcc/powerpc64-ps3-elf/4.5.2/../../../../powerpc64-ps3-elf/lib\libc.a(lib_a-lock_recursive.o)
                0x0000000000031540                __libc_lock_init_recursive
                0x0000000000031558                __libc_lock_close_recursive
                0x0000000000031570                __libc_lock_acquire_recursive
                0x0000000000031588                __libc_lock_try_acquire_recursive
                0x00000000000315a0                __libc_lock_release_recursive
 .opd           0x00000000000315b8       0x18 e:/psdk3v2/psdk3v2-master/ps3dev/ppu/bin/../lib/gcc/powerpc64-ps3-elf/4.5.2/../../../../powerpc64-ps3-elf/lib\libc.a(lib_a-makebuf.o)
                0x00000000000315b8                __smakebuf_r
 .opd           0x00000000000315d0       0x30 e:/psdk3v2/psdk3v2-master/ps3dev/ppu/bin/../lib/gcc/powerpc64-ps3-elf/4.5.2/../../../../powerpc64-ps3-elf/lib\libc.a(lib_a-malloc.o)
                0x00000000000315d0                malloc
                0x00000000000315e8                free
 .opd           0x0000000000031600       0x18 e:/psdk3v2/psdk3v2-master/ps3dev/ppu/bin/../lib/gcc/powerpc64-ps3-elf/4.5.2/../../../../powerpc64-ps3-elf/lib\libc.a(lib_a-mallocr.o)
                0x0000000000031600                _malloc_r
 .opd           0x0000000000031618       0x18 e:/psdk3v2/psdk3v2-master/ps3dev/ppu/bin/../lib/gcc/powerpc64-ps3-elf/4.5.2/../../../../powerpc64-ps3-elf/lib\libc.a(lib_a-memchr.o)
                0x0000000000031618                memchr
 .opd           0x0000000000031630       0x18 e:/psdk3v2/psdk3v2-master/ps3dev/ppu/bin/../lib/gcc/powerpc64-ps3-elf/4.5.2/../../../../powerpc64-ps3-elf/lib\libc.a(lib_a-memcpy.o)
                0x0000000000031630                memcpy
 .opd           0x0000000000031648       0x18 e:/psdk3v2/psdk3v2-master/ps3dev/ppu/bin/../lib/gcc/powerpc64-ps3-elf/4.5.2/../../../../powerpc64-ps3-elf/lib\libc.a(lib_a-memset.o)
                0x0000000000031648                memset
 .opd           0x0000000000031660       0x30 e:/psdk3v2/psdk3v2-master/ps3dev/ppu/bin/../lib/gcc/powerpc64-ps3-elf/4.5.2/../../../../powerpc64-ps3-elf/lib\libc.a(lib_a-mlock.o)
                0x0000000000031660                __malloc_lock
                0x0000000000031678                __malloc_unlock
 .opd           0x0000000000031690       0x30 e:/psdk3v2/psdk3v2-master/ps3dev/ppu/bin/../lib/gcc/powerpc64-ps3-elf/4.5.2/../../../../powerpc64-ps3-elf/lib\libc.a(lib_a-printf.o)
                0x0000000000031690                _printf_r
                0x00000000000316a8                printf
 .opd           0x00000000000316c0       0x30 e:/psdk3v2/psdk3v2-master/ps3dev/ppu/bin/../lib/gcc/powerpc64-ps3-elf/4.5.2/../../../../powerpc64-ps3-elf/lib\libc.a(lib_a-putchar.o)
                0x00000000000316c0                _putchar_r
                0x00000000000316d8                putchar
 .opd           0x00000000000316f0       0x30 e:/psdk3v2/psdk3v2-master/ps3dev/ppu/bin/../lib/gcc/powerpc64-ps3-elf/4.5.2/../../../../powerpc64-ps3-elf/lib\libc.a(lib_a-puts.o)
                0x00000000000316f0                _puts_r
                0x0000000000031708                puts
 .opd           0x0000000000031720       0x30 e:/psdk3v2/psdk3v2-master/ps3dev/ppu/bin/../lib/gcc/powerpc64-ps3-elf/4.5.2/../../../../powerpc64-ps3-elf/lib\libc.a(lib_a-rand.o)
                0x0000000000031720                srand
                0x0000000000031738                rand
 .opd           0x0000000000031750       0x30 e:/psdk3v2/psdk3v2-master/ps3dev/ppu/bin/../lib/gcc/powerpc64-ps3-elf/4.5.2/../../../../powerpc64-ps3-elf/lib\libc.a(lib_a-refill.o)
                0x0000000000031768                __srefill_r
 .opd           0x0000000000031780       0x30 e:/psdk3v2/psdk3v2-master/ps3dev/ppu/bin/../lib/gcc/powerpc64-ps3-elf/4.5.2/../../../../powerpc64-ps3-elf/lib\libc.a(lib_a-sprintf.o)
                0x0000000000031780                _sprintf_r
                0x0000000000031798                sprintf
 .opd           0x00000000000317b0       0x78 e:/psdk3v2/psdk3v2-master/ps3dev/ppu/bin/../lib/gcc/powerpc64-ps3-elf/4.5.2/../../../../powerpc64-ps3-elf/lib\libc.a(lib_a-stdio.o)
                0x00000000000317b0                __sread
                0x00000000000317c8                __seofread
                0x00000000000317e0                __swrite
                0x00000000000317f8                __sseek
                0x0000000000031810                __sclose
 .opd           0x0000000000031828       0x18 e:/psdk3v2/psdk3v2-master/ps3dev/ppu/bin/../lib/gcc/powerpc64-ps3-elf/4.5.2/../../../../powerpc64-ps3-elf/lib\libc.a(lib_a-strlen.o)
                0x0000000000031828                strlen
 .opd           0x0000000000031840       0x18 e:/psdk3v2/psdk3v2-master/ps3dev/ppu/bin/../lib/gcc/powerpc64-ps3-elf/4.5.2/../../../../powerpc64-ps3-elf/lib\libc.a(lib_a-svfprintf.o)
                0x0000000000031840                _svfprintf_r
 .opd           0x0000000000031858       0x18 e:/psdk3v2/psdk3v2-master/ps3dev/ppu/bin/../lib/gcc/powerpc64-ps3-elf/4.5.2/../../../../powerpc64-ps3-elf/lib\libc.a(lib_a-time.o)
                0x0000000000031858                time
 .opd           0x0000000000031870       0x30 e:/psdk3v2/psdk3v2-master/ps3dev/ppu/bin/../lib/gcc/powerpc64-ps3-elf/4.5.2/../../../../powerpc64-ps3-elf/lib\libc.a(lib_a-vfprintf.o)
                0x0000000000031870                _vfprintf_r
                0x0000000000031888                vfprintf
 .opd           0x00000000000318a0       0x18 e:/psdk3v2/psdk3v2-master/ps3dev/ppu/bin/../lib/gcc/powerpc64-ps3-elf/4.5.2/../../../../powerpc64-ps3-elf/lib\libc.a(lib_a-wsetup.o)
                0x00000000000318a0                __swsetup_r
 .opd           0x00000000000318b8       0x18 e:/psdk3v2/psdk3v2-master/ps3dev/ppu/bin/../lib/gcc/powerpc64-ps3-elf/4.5.2/../../../../powerpc64-ps3-elf/lib\libc.a(lib_a-__call_atexit.o)
                0x00000000000318b8                __call_exitprocs
 .opd           0x00000000000318d0       0x30 e:/psdk3v2/psdk3v2-master/ps3dev/ppu/bin/../lib/gcc/powerpc64-ps3-elf/4.5.2/../../../../powerpc64-ps3-elf/lib\libc.a(lib_a-dtoa.o)
                0x00000000000318e8                _dtoa_r
 .opd           0x0000000000031900       0x18 e:/psdk3v2/psdk3v2-master/ps3dev/ppu/bin/../lib/gcc/powerpc64-ps3-elf/4.5.2/../../../../powerpc64-ps3-elf/lib\libc.a(lib_a-flags.o)
                0x0000000000031900                __sflags
 .opd           0x0000000000031918       0x18 e:/psdk3v2/psdk3v2-master/ps3dev/ppu/bin/../lib/gcc/powerpc64-ps3-elf/4.5.2/../../../../powerpc64-ps3-elf/lib\libc.a(lib_a-fvwrite.o)
                0x0000000000031918                __sfvwrite_r
 .opd           0x0000000000031930       0xc0 e:/psdk3v2/psdk3v2-master/ps3dev/ppu/bin/../lib/gcc/powerpc64-ps3-elf/4.5.2/../../../../powerpc64-ps3-elf/lib\libc.a(lib_a-locale.o)
                0x0000000000031930                _setlocale_r
                0x0000000000031948                __locale_charset
                0x0000000000031960                __locale_mb_cur_max
                0x0000000000031978                __locale_msgcharset
                0x0000000000031990                __locale_cjk_lang
                0x00000000000319a8                _localeconv_r
                0x00000000000319c0                setlocale
                0x00000000000319d8                localeconv
 .opd           0x00000000000319f0       0x30 e:/psdk3v2/psdk3v2-master/ps3dev/ppu/bin/../lib/gcc/powerpc64-ps3-elf/4.5.2/../../../../powerpc64-ps3-elf/lib\libc.a(lib_a-lock_internal.o)
                0x0000000000031a08                __libc_auto_lock_allocate
 .opd           0x0000000000031a20       0x18 e:/psdk3v2/psdk3v2-master/ps3dev/ppu/bin/../lib/gcc/powerpc64-ps3-elf/4.5.2/../../../../powerpc64-ps3-elf/lib\libc.a(lib_a-memmove.o)
                0x0000000000031a20                memmove
 .opd           0x0000000000031a38      0x1c8 e:/psdk3v2/psdk3v2-master/ps3dev/ppu/bin/../lib/gcc/powerpc64-ps3-elf/4.5.2/../../../../powerpc64-ps3-elf/lib\libc.a(lib_a-mprec.o)
                0x0000000000031a38                _Balloc
                0x0000000000031a50                _Bfree
                0x0000000000031a68                __multadd
                0x0000000000031a80                __s2b
                0x0000000000031a98                __hi0bits
                0x0000000000031ab0                __lo0bits
                0x0000000000031ac8                __i2b
                0x0000000000031ae0                __multiply
                0x0000000000031af8                __pow5mult
                0x0000000000031b10                __lshift
                0x0000000000031b28                __mcmp
                0x0000000000031b40                __mdiff
                0x0000000000031b58                __ulp
                0x0000000000031b70                __b2d
                0x0000000000031b88                __d2b
                0x0000000000031ba0                __ratio
                0x0000000000031bb8                _mprec_log10
                0x0000000000031bd0                __copybits
                0x0000000000031be8                __any_on
 .opd           0x0000000000031c00       0x30 e:/psdk3v2/psdk3v2-master/ps3dev/ppu/bin/../lib/gcc/powerpc64-ps3-elf/4.5.2/../../../../powerpc64-ps3-elf/lib\libc.a(lib_a-putc.o)
                0x0000000000031c00                _putc_r
                0x0000000000031c18                putc
 .opd           0x0000000000031c30       0x18 e:/psdk3v2/psdk3v2-master/ps3dev/ppu/bin/../lib/gcc/powerpc64-ps3-elf/4.5.2/../../../../powerpc64-ps3-elf/lib\libc.a(lib_a-reallocr.o)
                0x0000000000031c30                _realloc_r
 .opd           0x0000000000031c48       0x18 e:/psdk3v2/psdk3v2-master/ps3dev/ppu/bin/../lib/gcc/powerpc64-ps3-elf/4.5.2/../../../../powerpc64-ps3-elf/lib\libc.a(lib_a-s_fpclassify.o)
                0x0000000000031c48                __fpclassifyd
 .opd           0x0000000000031c60       0x18 e:/psdk3v2/psdk3v2-master/ps3dev/ppu/bin/../lib/gcc/powerpc64-ps3-elf/4.5.2/../../../../powerpc64-ps3-elf/lib\libc.a(lib_a-strcmp.o)
                0x0000000000031c60                strcmp
 .opd           0x0000000000031c78       0x30 e:/psdk3v2/psdk3v2-master/ps3dev/ppu/bin/../lib/gcc/powerpc64-ps3-elf/4.5.2/../../../../powerpc64-ps3-elf/lib\libc.a(lib_a-svfiprintf.o)
                0x0000000000031c78                __ssprint_r
                0x0000000000031c90                _svfiprintf_r
 .opd           0x0000000000031ca8       0x48 e:/psdk3v2/psdk3v2-master/ps3dev/ppu/bin/../lib/gcc/powerpc64-ps3-elf/4.5.2/../../../../powerpc64-ps3-elf/lib\libc.a(lib_a-vfiprintf.o)
                0x0000000000031ca8                __sprint_r
                0x0000000000031cc0                _vfiprintf_r
                0x0000000000031cd8                vfiprintf
 .opd           0x0000000000031cf0       0x30 e:/psdk3v2/psdk3v2-master/ps3dev/ppu/bin/../lib/gcc/powerpc64-ps3-elf/4.5.2/../../../../powerpc64-ps3-elf/lib\libc.a(lib_a-wbuf.o)
                0x0000000000031cf0                __swbuf_r
                0x0000000000031d08                __swbuf
 .opd           0x0000000000031d20       0x18 e:/psdk3v2/psdk3v2-master/ps3dev/ppu/bin/../lib/gcc/powerpc64-ps3-elf/4.5.2/../../../../powerpc64-ps3-elf/lib\libc.a(lib_a-__atexit.o)
                0x0000000000031d20                __register_exitproc
 .opd           0x0000000000031d38       0x18 e:/psdk3v2/psdk3v2-master/ps3dev/ppu/bin/../lib/gcc/powerpc64-ps3-elf/4.5.2/../../../../powerpc64-ps3-elf/lib\libc.a(lib_a-abort.o)
                0x0000000000031d38                abort
 .opd           0x0000000000031d50       0x18 e:/psdk3v2/psdk3v2-master/ps3dev/ppu/bin/../lib/gcc/powerpc64-ps3-elf/4.5.2/../../../../powerpc64-ps3-elf/lib\libc.a(lib_a-callocr.o)
                0x0000000000031d50                _calloc_r
 .opd           0x0000000000031d68       0x30 e:/psdk3v2/psdk3v2-master/ps3dev/ppu/bin/../lib/gcc/powerpc64-ps3-elf/4.5.2/../../../../powerpc64-ps3-elf/lib\libc.a(lib_a-fputwc.o)
                0x0000000000031d68                _fputwc_r
                0x0000000000031d80                fputwc
 .opd           0x0000000000031d98       0xc0 e:/psdk3v2/psdk3v2-master/ps3dev/ppu/bin/../lib/gcc/powerpc64-ps3-elf/4.5.2/../../../../powerpc64-ps3-elf/lib\libc.a(lib_a-signal.o)
                0x0000000000031d98                _init_signal_r
                0x0000000000031db0                _signal_r
                0x0000000000031dc8                _raise_r
                0x0000000000031de0                __sigtramp_r
                0x0000000000031df8                raise
                0x0000000000031e10                signal
                0x0000000000031e28                _init_signal
                0x0000000000031e40                __sigtramp
 .opd           0x0000000000031e58       0x30 e:/psdk3v2/psdk3v2-master/ps3dev/ppu/bin/../lib/gcc/powerpc64-ps3-elf/4.5.2/../../../../powerpc64-ps3-elf/lib\libc.a(lib_a-wcrtomb.o)
                0x0000000000031e58                _wcrtomb_r
                0x0000000000031e70                wcrtomb
 .opd           0x0000000000031e88       0x30 e:/psdk3v2/psdk3v2-master/ps3dev/ppu/bin/../lib/gcc/powerpc64-ps3-elf/4.5.2/../../../../powerpc64-ps3-elf/lib\libc.a(lib_a-wctomb_r.o)
                0x0000000000031e88                __ascii_wctomb
                0x0000000000031ea0                _wctomb_r
 .opd           0x0000000000031eb8       0x48 e:/PSDK3v2/PSDK3v2-master/psl1ght/ppu/lib\librt.a(sbrk.o)
                0x0000000000031ee8                __librt_sbrk_r
 .opd           0x0000000000031f00       0x18 e:/PSDK3v2/PSDK3v2-master/psl1ght/ppu/lib\librt.a(exit.o)
                0x0000000000031f00                __librt_exit
 .opd           0x0000000000031f18       0x18 e:/PSDK3v2/PSDK3v2-master/psl1ght/ppu/lib\librt.a(close.o)
                0x0000000000031f18                __librt_close_r
 .opd           0x0000000000031f30       0x30 e:/PSDK3v2/PSDK3v2-master/psl1ght/ppu/lib\librt.a(lseek.o)
                0x0000000000031f30                __librt_lseek_r
                0x0000000000031f48                __librt_lseek64_r
 .opd           0x0000000000031f60       0x18 e:/PSDK3v2/PSDK3v2-master/psl1ght/ppu/lib\librt.a(read.o)
                0x0000000000031f60                __librt_read_r
 .opd           0x0000000000031f78       0x18 e:/PSDK3v2/PSDK3v2-master/psl1ght/ppu/lib\librt.a(open.o)
                0x0000000000031f78                __librt_open_r
 .opd           0x0000000000031f90       0x30 e:/PSDK3v2/PSDK3v2-master/psl1ght/ppu/lib\librt.a(sleep.o)
                0x0000000000031f90                __librt_usleep_r
                0x0000000000031fa8                __librt_sleep_r
 .opd           0x0000000000031fc0       0x18 e:/PSDK3v2/PSDK3v2-master/psl1ght/ppu/lib\librt.a(write.o)
                0x0000000000031fc0                __librt_write_r
 .opd           0x0000000000031fd8       0x60 e:/PSDK3v2/PSDK3v2-master/psl1ght/ppu/lib\librt.a(fstat.o)
                0x0000000000031fd8                __librt_fstat_r
                0x0000000000031ff0                __librt_fstat64_r
                0x0000000000032008                __librt_stat_r
                0x0000000000032020                __librt_stat64_r
 .opd           0x0000000000032038      0x150 e:/PSDK3v2/PSDK3v2-master/psl1ght/ppu/lib\librt.a(socket.o)
                0x0000000000032038                accept
                0x0000000000032050                bind
                0x0000000000032068                connect
                0x0000000000032080                listen
                0x0000000000032098                socket
                0x00000000000320b0                send
                0x00000000000320c8                sendto
                0x00000000000320e0                recv
                0x00000000000320f8                recvfrom
                0x0000000000032110                shutdown
                0x0000000000032128                inet_aton
                0x0000000000032140                inet_pton
                0x0000000000032158                select
                0x0000000000032170                closesocket
 .opd           0x0000000000032188       0x78 e:/PSDK3v2/PSDK3v2-master/psl1ght/ppu/lib\librt.a(lock.o)
                0x0000000000032188                __librt_sys_lwmutex_create_r
                0x00000000000321a0                __librt_sys_lwmutex_destroy_r
                0x00000000000321b8                __librt_sys_lwmutex_lock_r
                0x00000000000321d0                __librt_sys_lwmutex_trylock_r
                0x00000000000321e8                __librt_sys_lwmutex_unlock_r
 .opd           0x0000000000032200       0xc0 e:/PSDK3v2/PSDK3v2-master/psl1ght/ppu/lib\librt.a(dirent.o)
                0x0000000000032218                __librt_opendir_r
                0x0000000000032230                __librt_readdir_r
                0x0000000000032248                __librt_readdir_r_r
                0x0000000000032260                __librt_closedir_r
                0x0000000000032278                __librt_telldir_r
                0x0000000000032290                __librt_rewinddir_r
                0x00000000000322a8                __librt_seekdir_r
 .opd           0x00000000000322c0       0x18 e:/PSDK3v2/PSDK3v2-master/psl1ght/ppu/lib\librt.a(mkdir.o)
                0x00000000000322c0                __librt_mkdir_r
 .opd           0x00000000000322d8       0x18 e:/PSDK3v2/PSDK3v2-master/psl1ght/ppu/lib\librt.a(times.o)
                0x00000000000322d8                __librt_times_r
 .opd           0x00000000000322f0       0x18 e:/PSDK3v2/PSDK3v2-master/psl1ght/ppu/lib\librt.a(umask.o)
                0x00000000000322f0                __librt_umask_r
 .opd           0x0000000000032308       0x48 e:/PSDK3v2/PSDK3v2-master/psl1ght/ppu/lib\librt.a(lv2errno.o)
                0x0000000000032308                lv2error
                0x0000000000032320                lv2errno
                0x0000000000032338                lv2errno_r
 .opd           0x0000000000032350       0x60 e:/PSDK3v2/PSDK3v2-master/psl1ght/ppu/lib\librt.a(heap.o)
                0x0000000000032350                heapInit
                0x0000000000032368                heapAllocate
                0x0000000000032380                heapAllocateAligned
                0x0000000000032398                heapFree
 .opd           0x00000000000323b0       0x18 e:/PSDK3v2/PSDK3v2-master/psl1ght/ppu/lib\librt.a(chmod.o)
                0x00000000000323b0                __librt_chmod_r
 .opd           0x00000000000323c8       0x18 e:/PSDK3v2/PSDK3v2-master/psl1ght/ppu/lib\librt.a(rmdir.o)
                0x00000000000323c8                __librt_rmdir_r
 .opd           0x00000000000323e0       0x18 e:/PSDK3v2/PSDK3v2-master/psl1ght/ppu/lib\librt.a(isatty.o)
                0x00000000000323e0                __librt_isatty_r
 .opd           0x00000000000323f8       0x18 e:/PSDK3v2/PSDK3v2-master/psl1ght/ppu/lib\librt.a(gettod.o)
                0x00000000000323f8                __librt_gettod_r
 .opd           0x0000000000032410       0x18 e:/PSDK3v2/PSDK3v2-master/psl1ght/ppu/lib\librt.a(settod.o)
                0x0000000000032410                __librt_settod_r
 .opd           0x0000000000032428       0x18 e:/psdk3v2/psdk3v2-master/ps3dev/ppu/bin/../lib/gcc/powerpc64-ps3-elf/4.5.2/../../../../powerpc64-ps3-elf/lib\libsysbase.a(close.o)
                0x0000000000032428                _close_r
 .opd           0x0000000000032440       0x18 e:/psdk3v2/psdk3v2-master/ps3dev/ppu/bin/../lib/gcc/powerpc64-ps3-elf/4.5.2/../../../../powerpc64-ps3-elf/lib\libsysbase.a(sbrk.o)
                0x0000000000032440                _sbrk_r
 .opd           0x0000000000032458       0x18 e:/psdk3v2/psdk3v2-master/ps3dev/ppu/bin/../lib/gcc/powerpc64-ps3-elf/4.5.2/../../../../powerpc64-ps3-elf/lib\libsysbase.a(_exit.o)
                0x0000000000032458                _exit
 .opd           0x0000000000032470       0x18 e:/psdk3v2/psdk3v2-master/ps3dev/ppu/bin/../lib/gcc/powerpc64-ps3-elf/4.5.2/../../../../powerpc64-ps3-elf/lib\libsysbase.a(fstat.o)
                0x0000000000032470                _fstat_r
 .opd           0x0000000000032488       0x18 e:/psdk3v2/psdk3v2-master/ps3dev/ppu/bin/../lib/gcc/powerpc64-ps3-elf/4.5.2/../../../../powerpc64-ps3-elf/lib\libsysbase.a(isatty.o)
                0x0000000000032488                _isatty_r
 .opd           0x00000000000324a0       0x18 e:/psdk3v2/psdk3v2-master/ps3dev/ppu/bin/../lib/gcc/powerpc64-ps3-elf/4.5.2/../../../../powerpc64-ps3-elf/lib\libsysbase.a(lseek.o)
                0x00000000000324a0                _lseek_r
 .opd           0x00000000000324b8       0x18 e:/psdk3v2/psdk3v2-master/ps3dev/ppu/bin/../lib/gcc/powerpc64-ps3-elf/4.5.2/../../../../powerpc64-ps3-elf/lib\libsysbase.a(open.o)
                0x00000000000324b8                _open_r
 .opd           0x00000000000324d0       0x18 e:/psdk3v2/psdk3v2-master/ps3dev/ppu/bin/../lib/gcc/powerpc64-ps3-elf/4.5.2/../../../../powerpc64-ps3-elf/lib\libsysbase.a(read.o)
                0x00000000000324d0                _read_r
 .opd           0x00000000000324e8       0x18 e:/psdk3v2/psdk3v2-master/ps3dev/ppu/bin/../lib/gcc/powerpc64-ps3-elf/4.5.2/../../../../powerpc64-ps3-elf/lib\libsysbase.a(write.o)
                0x00000000000324e8                _write_r
 .opd           0x0000000000032500       0x78 e:/psdk3v2/psdk3v2-master/ps3dev/ppu/bin/../lib/gcc/powerpc64-ps3-elf/4.5.2/../../../../powerpc64-ps3-elf/lib\libsysbase.a(lock.o)
                0x0000000000032500                sys_lwmutex_create
                0x0000000000032518                sys_lwmutex_destroy
                0x0000000000032530                sys_lwmutex_lock
                0x0000000000032548                sys_lwmutex_trylock
                0x0000000000032560                sys_lwmutex_unlock
 .opd           0x0000000000032578       0x18 e:/psdk3v2/psdk3v2-master/ps3dev/ppu/bin/../lib/gcc/powerpc64-ps3-elf/4.5.2/../../../../powerpc64-ps3-elf/lib\libsysbase.a(getpid.o)
                0x0000000000032578                _getpid_r
 .opd           0x0000000000032590       0x18 e:/psdk3v2/psdk3v2-master/ps3dev/ppu/bin/../lib/gcc/powerpc64-ps3-elf/4.5.2/../../../../powerpc64-ps3-elf/lib\libsysbase.a(kill.o)
                0x0000000000032590                _kill_r
 .opd           0x00000000000325a8       0x18 e:/psdk3v2/psdk3v2-master/ps3dev/ppu/bin/../lib/gcc/powerpc64-ps3-elf/4.5.2/../../../../powerpc64-ps3-elf/lib\libsysbase.a(gettod.o)
                0x00000000000325a8                _gettimeofday_r
 .opd           0x00000000000325c0       0x18 e:/psdk3v2/psdk3v2-master/ps3dev/ppu/bin/../lib/gcc/powerpc64-ps3-elf/4.5.2/../../../../powerpc64-ps3-elf/lib\libc.a(lib_a-errno.o)
                0x00000000000325c0                __errno
 .opd           0x00000000000325d8       0x30 e:/psdk3v2/psdk3v2-master/ps3dev/ppu/bin/../lib/gcc/powerpc64-ps3-elf/4.5.2/../../../../powerpc64-ps3-elf/lib\libc.a(lib_a-sscanf.o)
                0x00000000000325d8                sscanf
                0x00000000000325f0                _sscanf_r
 .opd           0x0000000000032608       0x18 e:/psdk3v2/psdk3v2-master/ps3dev/ppu/bin/../lib/gcc/powerpc64-ps3-elf/4.5.2/../../../../powerpc64-ps3-elf/lib\libc.a(lib_a-strncpy.o)
                0x0000000000032608                strncpy
 .opd           0x0000000000032620       0x18 e:/psdk3v2/psdk3v2-master/ps3dev/ppu/bin/../lib/gcc/powerpc64-ps3-elf/4.5.2/../../../../powerpc64-ps3-elf/lib\libc.a(lib_a-svfscanf.o)
                0x0000000000032620                __ssvfscanf_r
 .opd           0x0000000000032638       0x18 e:/psdk3v2/psdk3v2-master/ps3dev/ppu/bin/../lib/gcc/powerpc64-ps3-elf/4.5.2/../../../../powerpc64-ps3-elf/lib\libc.a(lib_a-iswspace.o)
                0x0000000000032638                iswspace
 .opd           0x0000000000032650       0x30 e:/psdk3v2/psdk3v2-master/ps3dev/ppu/bin/../lib/gcc/powerpc64-ps3-elf/4.5.2/../../../../powerpc64-ps3-elf/lib\libc.a(lib_a-mbrtowc.o)
                0x0000000000032650                _mbrtowc_r
                0x0000000000032668                mbrtowc
 .opd           0x0000000000032680       0x30 e:/psdk3v2/psdk3v2-master/ps3dev/ppu/bin/../lib/gcc/powerpc64-ps3-elf/4.5.2/../../../../powerpc64-ps3-elf/lib\libc.a(lib_a-mbtowc_r.o)
                0x0000000000032680                __ascii_mbtowc
                0x0000000000032698                _mbtowc_r
 .opd           0x00000000000326b0       0x18 e:/psdk3v2/psdk3v2-master/ps3dev/ppu/bin/../lib/gcc/powerpc64-ps3-elf/4.5.2/../../../../powerpc64-ps3-elf/lib\libc.a(lib_a-sccl.o)
                0x00000000000326b0                __sccl
 .opd           0x00000000000326c8       0x18 e:/psdk3v2/psdk3v2-master/ps3dev/ppu/bin/../lib/gcc/powerpc64-ps3-elf/4.5.2/../../../../powerpc64-ps3-elf/lib\libc.a(lib_a-sf_nan.o)
                0x00000000000326c8                nanf
 .opd           0x00000000000326e0       0x60 e:/psdk3v2/psdk3v2-master/ps3dev/ppu/bin/../lib/gcc/powerpc64-ps3-elf/4.5.2/../../../../powerpc64-ps3-elf/lib\libc.a(lib_a-strtod.o)
                0x00000000000326f8                _strtod_r
                0x0000000000032710                strtod
                0x0000000000032728                strtof
 .opd           0x0000000000032740       0x30 e:/psdk3v2/psdk3v2-master/ps3dev/ppu/bin/../lib/gcc/powerpc64-ps3-elf/4.5.2/../../../../powerpc64-ps3-elf/lib\libc.a(lib_a-strtol.o)
                0x0000000000032740                _strtol_r
                0x0000000000032758                strtol
 .opd           0x0000000000032770       0x18 e:/psdk3v2/psdk3v2-master/ps3dev/ppu/bin/../lib/gcc/powerpc64-ps3-elf/4.5.2/../../../../powerpc64-ps3-elf/lib\libc.a(lib_a-strtoll_r.o)
                0x0000000000032770                _strtoll_r
 .opd           0x0000000000032788       0x30 e:/psdk3v2/psdk3v2-master/ps3dev/ppu/bin/../lib/gcc/powerpc64-ps3-elf/4.5.2/../../../../powerpc64-ps3-elf/lib\libc.a(lib_a-strtoul.o)
                0x0000000000032788                _strtoul_r
                0x00000000000327a0                strtoul
 .opd           0x00000000000327b8       0x18 e:/psdk3v2/psdk3v2-master/ps3dev/ppu/bin/../lib/gcc/powerpc64-ps3-elf/4.5.2/../../../../powerpc64-ps3-elf/lib\libc.a(lib_a-strtoull_r.o)
                0x00000000000327b8                _strtoull_r
 .opd           0x00000000000327d0       0x60 e:/psdk3v2/psdk3v2-master/ps3dev/ppu/bin/../lib/gcc/powerpc64-ps3-elf/4.5.2/../../../../powerpc64-ps3-elf/lib\libc.a(lib_a-svfiscanf.o)
                0x00000000000327d0                _sungetc_r
                0x00000000000327e8                __ssrefill_r
                0x0000000000032800                _sfread_r
                0x0000000000032818                __ssvfiscanf_r
 .opd           0x0000000000032830       0x48 e:/psdk3v2/psdk3v2-master/ps3dev/ppu/bin/../lib/gcc/powerpc64-ps3-elf/4.5.2/../../../../powerpc64-ps3-elf/lib\libc.a(lib_a-ungetc.o)
                0x0000000000032830                __submore
                0x0000000000032848                _ungetc_r
                0x0000000000032860                ungetc
 .opd           0x0000000000032878       0x48 e:/psdk3v2/psdk3v2-master/ps3dev/ppu/bin/../lib/gcc/powerpc64-ps3-elf/4.5.2/../../../../powerpc64-ps3-elf/lib\libc.a(lib_a-gdtoa-gethex.o)
                0x0000000000032890                __hexdig_init
                0x00000000000328a8                __gethex
 .opd           0x00000000000328c0       0x18 e:/psdk3v2/psdk3v2-master/ps3dev/ppu/bin/../lib/gcc/powerpc64-ps3-elf/4.5.2/../../../../powerpc64-ps3-elf/lib\libc.a(lib_a-gdtoa-hexnan.o)
                0x00000000000328c0                __hexnan
 .opd           0x00000000000328d8       0x18 e:/psdk3v2/psdk3v2-master/ps3dev/ppu/bin/../lib/gcc/powerpc64-ps3-elf/4.5.2/../../../../powerpc64-ps3-elf/lib\libc.a(lib_a-strncmp.o)
                0x00000000000328d8                strncmp
 .opd           0x00000000000328f0       0x18 e:/psdk3v2/psdk3v2-master/ps3dev/ppu/bin/../lib/gcc/powerpc64-ps3-elf/4.5.2/crtend.o

.branch_lt      0x0000000000032908        0x0
 *(.branch_lt)
 .branch_lt     0x0000000000032908        0x0 linker stubs

.got            0x0000000000032908      0x7c8
 *(.got .toc)
 .toc           0x0000000000032908       0x50 e:/psdk3v2/psdk3v2-master/ps3dev/ppu/bin/../lib/gcc/powerpc64-ps3-elf/4.5.2/crtbegin.o
 .toc           0x0000000000032958       0x28 e:/PSDK3v2/PSDK3v2-master/psl1ght/ppu/lib\librt.a(sbrk.o)
 .toc           0x0000000000032980        0x8 e:/psdk3v2/psdk3v2-master/ps3dev/ppu/bin/../lib/gcc/powerpc64-ps3-elf/4.5.2/crtend.o
 .toc           0x0000000000032988      0x118 e:/psdk3v2/psdk3v2-master/ps3dev/ppu/bin/../lib/gcc/powerpc64-ps3-elf/4.5.2/../../../../powerpc64-ps3-elf/lib/lv2-crt0.o
 .toc           0x0000000000032aa0       0x98 main.o
 .toc           0x0000000000032b38        0x8 e:/psdk3v2/psdk3v2-master/ps3dev/ppu/bin/../lib/gcc/powerpc64-ps3-elf/4.5.2/../../../../powerpc64-ps3-elf/lib\libc.a(lib_a-exit.o)
 .toc           0x0000000000032b40       0x10 e:/psdk3v2/psdk3v2-master/ps3dev/ppu/bin/../lib/gcc/powerpc64-ps3-elf/4.5.2/../../../../powerpc64-ps3-elf/lib\libc.a(lib_a-fflush.o)
 .toc           0x0000000000032b50       0x58 e:/psdk3v2/psdk3v2-master/ps3dev/ppu/bin/../lib/gcc/powerpc64-ps3-elf/4.5.2/../../../../powerpc64-ps3-elf/lib\libc.a(lib_a-findfp.o)
 .toc           0x0000000000032ba8       0x20 e:/psdk3v2/psdk3v2-master/ps3dev/ppu/bin/../lib/gcc/powerpc64-ps3-elf/4.5.2/../../../../powerpc64-ps3-elf/lib\libc.a(lib_a-fopen.o)
 .toc           0x0000000000032bc8       0x28 e:/psdk3v2/psdk3v2-master/ps3dev/ppu/bin/../lib/gcc/powerpc64-ps3-elf/4.5.2/../../../../powerpc64-ps3-elf/lib\libc.a(lib_a-freer.o)
 .toc           0x0000000000032bf0        0x8 e:/psdk3v2/psdk3v2-master/ps3dev/ppu/bin/../lib/gcc/powerpc64-ps3-elf/4.5.2/../../../../powerpc64-ps3-elf/lib\libc.a(lib_a-fseek.o)
 .toc           0x0000000000032bf8        0x8 e:/psdk3v2/psdk3v2-master/ps3dev/ppu/bin/../lib/gcc/powerpc64-ps3-elf/4.5.2/../../../../powerpc64-ps3-elf/lib\libc.a(lib_a-getreent.o)
 .toc           0x0000000000032c00        0x8 e:/psdk3v2/psdk3v2-master/ps3dev/ppu/bin/../lib/gcc/powerpc64-ps3-elf/4.5.2/../../../../powerpc64-ps3-elf/lib\libc.a(lib_a-lock_recursive.o)
 .toc           0x0000000000032c08       0x10 e:/psdk3v2/psdk3v2-master/ps3dev/ppu/bin/../lib/gcc/powerpc64-ps3-elf/4.5.2/../../../../powerpc64-ps3-elf/lib\libc.a(lib_a-makebuf.o)
 .toc           0x0000000000032c18       0x30 e:/psdk3v2/psdk3v2-master/ps3dev/ppu/bin/../lib/gcc/powerpc64-ps3-elf/4.5.2/../../../../powerpc64-ps3-elf/lib\libc.a(lib_a-mallocr.o)
 .toc           0x0000000000032c48        0x8 e:/psdk3v2/psdk3v2-master/ps3dev/ppu/bin/../lib/gcc/powerpc64-ps3-elf/4.5.2/../../../../powerpc64-ps3-elf/lib\libc.a(lib_a-mlock.o)
 .toc           0x0000000000032c50        0x8 e:/psdk3v2/psdk3v2-master/ps3dev/ppu/bin/../lib/gcc/powerpc64-ps3-elf/4.5.2/../../../../powerpc64-ps3-elf/lib\libc.a(lib_a-puts.o)
 .toc           0x0000000000032c58       0x10 e:/psdk3v2/psdk3v2-master/ps3dev/ppu/bin/../lib/gcc/powerpc64-ps3-elf/4.5.2/../../../../powerpc64-ps3-elf/lib\libc.a(lib_a-refill.o)
 .toc           0x0000000000032c68       0x60 e:/psdk3v2/psdk3v2-master/ps3dev/ppu/bin/../lib/gcc/powerpc64-ps3-elf/4.5.2/../../../../powerpc64-ps3-elf/lib\libc.a(lib_a-svfprintf.o)
 .toc           0x0000000000032cc8       0x60 e:/psdk3v2/psdk3v2-master/ps3dev/ppu/bin/../lib/gcc/powerpc64-ps3-elf/4.5.2/../../../../powerpc64-ps3-elf/lib\libc.a(lib_a-vfprintf.o)
 .toc           0x0000000000032d28       0x18 e:/psdk3v2/psdk3v2-master/ps3dev/ppu/bin/../lib/gcc/powerpc64-ps3-elf/4.5.2/../../../../powerpc64-ps3-elf/lib\libc.a(lib_a-__call_atexit.o)
 .toc           0x0000000000032d40       0x80 e:/psdk3v2/psdk3v2-master/ps3dev/ppu/bin/../lib/gcc/powerpc64-ps3-elf/4.5.2/../../../../powerpc64-ps3-elf/lib\libc.a(lib_a-dtoa.o)
 .toc           0x0000000000032dc0       0x38 e:/psdk3v2/psdk3v2-master/ps3dev/ppu/bin/../lib/gcc/powerpc64-ps3-elf/4.5.2/../../../../powerpc64-ps3-elf/lib\libc.a(lib_a-locale.o)
 .toc           0x0000000000032df8       0x10 e:/psdk3v2/psdk3v2-master/ps3dev/ppu/bin/../lib/gcc/powerpc64-ps3-elf/4.5.2/../../../../powerpc64-ps3-elf/lib\libc.a(lib_a-lock_internal.o)
 .toc           0x0000000000032e08       0x20 e:/psdk3v2/psdk3v2-master/ps3dev/ppu/bin/../lib/gcc/powerpc64-ps3-elf/4.5.2/../../../../powerpc64-ps3-elf/lib\libc.a(lib_a-mprec.o)
 .toc           0x0000000000032e28        0x8 e:/psdk3v2/psdk3v2-master/ps3dev/ppu/bin/../lib/gcc/powerpc64-ps3-elf/4.5.2/../../../../powerpc64-ps3-elf/lib\libc.a(lib_a-reallocr.o)
 .toc           0x0000000000032e30       0x30 e:/psdk3v2/psdk3v2-master/ps3dev/ppu/bin/../lib/gcc/powerpc64-ps3-elf/4.5.2/../../../../powerpc64-ps3-elf/lib\libc.a(lib_a-svfiprintf.o)
 .toc           0x0000000000032e60       0x30 e:/psdk3v2/psdk3v2-master/ps3dev/ppu/bin/../lib/gcc/powerpc64-ps3-elf/4.5.2/../../../../powerpc64-ps3-elf/lib\libc.a(lib_a-vfiprintf.o)
 .toc           0x0000000000032e90       0x18 e:/psdk3v2/psdk3v2-master/ps3dev/ppu/bin/../lib/gcc/powerpc64-ps3-elf/4.5.2/../../../../powerpc64-ps3-elf/lib\libc.a(lib_a-__atexit.o)
 .toc           0x0000000000032ea8        0x8 e:/psdk3v2/psdk3v2-master/ps3dev/ppu/bin/../lib/gcc/powerpc64-ps3-elf/4.5.2/../../../../powerpc64-ps3-elf/lib\libc.a(lib_a-wcrtomb.o)
 .toc           0x0000000000032eb0        0x8 e:/psdk3v2/psdk3v2-master/ps3dev/ppu/bin/../lib/gcc/powerpc64-ps3-elf/4.5.2/../../../../powerpc64-ps3-elf/lib\libc.a(lib_a-wctomb_r.o)
 .toc           0x0000000000032eb8        0x8 e:/PSDK3v2/PSDK3v2-master/psl1ght/ppu/lib\librt.a(open.o)
 .toc           0x0000000000032ec0        0x8 e:/PSDK3v2/PSDK3v2-master/psl1ght/ppu/lib\librt.a(socket.o)
 .toc           0x0000000000032ec8        0x8 e:/PSDK3v2/PSDK3v2-master/psl1ght/ppu/lib\librt.a(mkdir.o)
 .toc           0x0000000000032ed0        0x8 e:/PSDK3v2/PSDK3v2-master/psl1ght/ppu/lib\librt.a(umask.o)
 .toc           0x0000000000032ed8        0x8 e:/psdk3v2/psdk3v2-master/ps3dev/ppu/bin/../lib/gcc/powerpc64-ps3-elf/4.5.2/../../../../powerpc64-ps3-elf/lib\libsysbase.a(close.o)
 .toc           0x0000000000032ee0        0x8 e:/psdk3v2/psdk3v2-master/ps3dev/ppu/bin/../lib/gcc/powerpc64-ps3-elf/4.5.2/../../../../powerpc64-ps3-elf/lib\libsysbase.a(sbrk.o)
 .toc           0x0000000000032ee8        0x8 e:/psdk3v2/psdk3v2-master/ps3dev/ppu/bin/../lib/gcc/powerpc64-ps3-elf/4.5.2/../../../../powerpc64-ps3-elf/lib\libsysbase.a(_exit.o)
 .toc           0x0000000000032ef0        0x8 e:/psdk3v2/psdk3v2-master/ps3dev/ppu/bin/../lib/gcc/powerpc64-ps3-elf/4.5.2/../../../../powerpc64-ps3-elf/lib\libsysbase.a(fstat.o)
 .toc           0x0000000000032ef8        0x8 e:/psdk3v2/psdk3v2-master/ps3dev/ppu/bin/../lib/gcc/powerpc64-ps3-elf/4.5.2/../../../../powerpc64-ps3-elf/lib\libsysbase.a(isatty.o)
 .toc           0x0000000000032f00        0x8 e:/psdk3v2/psdk3v2-master/ps3dev/ppu/bin/../lib/gcc/powerpc64-ps3-elf/4.5.2/../../../../powerpc64-ps3-elf/lib\libsysbase.a(lseek.o)
 .toc           0x0000000000032f08        0x8 e:/psdk3v2/psdk3v2-master/ps3dev/ppu/bin/../lib/gcc/powerpc64-ps3-elf/4.5.2/../../../../powerpc64-ps3-elf/lib\libsysbase.a(open.o)
 .toc           0x0000000000032f10        0x8 e:/psdk3v2/psdk3v2-master/ps3dev/ppu/bin/../lib/gcc/powerpc64-ps3-elf/4.5.2/../../../../powerpc64-ps3-elf/lib\libsysbase.a(read.o)
 .toc           0x0000000000032f18        0x8 e:/psdk3v2/psdk3v2-master/ps3dev/ppu/bin/../lib/gcc/powerpc64-ps3-elf/4.5.2/../../../../powerpc64-ps3-elf/lib\libsysbase.a(write.o)
 .toc           0x0000000000032f20        0x8 e:/psdk3v2/psdk3v2-master/ps3dev/ppu/bin/../lib/gcc/powerpc64-ps3-elf/4.5.2/../../../../powerpc64-ps3-elf/lib\libsysbase.a(lock.o)
 .toc           0x0000000000032f28        0x8 e:/psdk3v2/psdk3v2-master/ps3dev/ppu/bin/../lib/gcc/powerpc64-ps3-elf/4.5.2/../../../../powerpc64-ps3-elf/lib\libsysbase.a(getpid.o)
 .toc           0x0000000000032f30        0x8 e:/psdk3v2/psdk3v2-master/ps3dev/ppu/bin/../lib/gcc/powerpc64-ps3-elf/4.5.2/../../../../powerpc64-ps3-elf/lib\libsysbase.a(gettod.o)
 .toc           0x0000000000032f38        0x8 e:/psdk3v2/psdk3v2-master/ps3dev/ppu/bin/../lib/gcc/powerpc64-ps3-elf/4.5.2/../../../../powerpc64-ps3-elf/lib\libc.a(lib_a-sscanf.o)
 .toc           0x0000000000032f40       0x40 e:/psdk3v2/psdk3v2-master/ps3dev/ppu/bin/../lib/gcc/powerpc64-ps3-elf/4.5.2/../../../../powerpc64-ps3-elf/lib\libc.a(lib_a-svfscanf.o)
 .toc           0x0000000000032f80        0x8 e:/psdk3v2/psdk3v2-master/ps3dev/ppu/bin/../lib/gcc/powerpc64-ps3-elf/4.5.2/../../../../powerpc64-ps3-elf/lib\libc.a(lib_a-iswspace.o)
 .toc           0x0000000000032f88       0x10 e:/psdk3v2/psdk3v2-master/ps3dev/ppu/bin/../lib/gcc/powerpc64-ps3-elf/4.5.2/../../../../powerpc64-ps3-elf/lib\libc.a(lib_a-mbrtowc.o)
 .toc           0x0000000000032f98        0x8 e:/psdk3v2/psdk3v2-master/ps3dev/ppu/bin/../lib/gcc/powerpc64-ps3-elf/4.5.2/../../../../powerpc64-ps3-elf/lib\libc.a(lib_a-mbtowc_r.o)
 .toc           0x0000000000032fa0        0x8 e:/psdk3v2/psdk3v2-master/ps3dev/ppu/bin/../lib/gcc/powerpc64-ps3-elf/4.5.2/../../../../powerpc64-ps3-elf/lib\libc.a(lib_a-sf_nan.o)
 .toc           0x0000000000032fa8       0xb0 e:/psdk3v2/psdk3v2-master/ps3dev/ppu/bin/../lib/gcc/powerpc64-ps3-elf/4.5.2/../../../../powerpc64-ps3-elf/lib\libc.a(lib_a-strtod.o)
 .toc           0x0000000000033058        0x8 e:/psdk3v2/psdk3v2-master/ps3dev/ppu/bin/../lib/gcc/powerpc64-ps3-elf/4.5.2/../../../../powerpc64-ps3-elf/lib\libc.a(lib_a-strtol.o)
 .toc           0x0000000000033060        0x8 e:/psdk3v2/psdk3v2-master/ps3dev/ppu/bin/../lib/gcc/powerpc64-ps3-elf/4.5.2/../../../../powerpc64-ps3-elf/lib\libc.a(lib_a-strtoll_r.o)
 .toc           0x0000000000033068        0x8 e:/psdk3v2/psdk3v2-master/ps3dev/ppu/bin/../lib/gcc/powerpc64-ps3-elf/4.5.2/../../../../powerpc64-ps3-elf/lib\libc.a(lib_a-strtoul.o)
 .toc           0x0000000000033070        0x8 e:/psdk3v2/psdk3v2-master/ps3dev/ppu/bin/../lib/gcc/powerpc64-ps3-elf/4.5.2/../../../../powerpc64-ps3-elf/lib\libc.a(lib_a-strtoull_r.o)
 .toc           0x0000000000033078       0x30 e:/psdk3v2/psdk3v2-master/ps3dev/ppu/bin/../lib/gcc/powerpc64-ps3-elf/4.5.2/../../../../powerpc64-ps3-elf/lib\libc.a(lib_a-svfiscanf.o)
 .toc           0x00000000000330a8       0x20 e:/psdk3v2/psdk3v2-master/ps3dev/ppu/bin/../lib/gcc/powerpc64-ps3-elf/4.5.2/../../../../powerpc64-ps3-elf/lib\libc.a(lib_a-gdtoa-gethex.o)
 .toc           0x00000000000330c8        0x8 e:/psdk3v2/psdk3v2-master/ps3dev/ppu/bin/../lib/gcc/powerpc64-ps3-elf/4.5.2/../../../../powerpc64-ps3-elf/lib\libc.a(lib_a-gdtoa-hexnan.o)
 .got           0x00000000000330d0        0x0 ../liblv2.a(sprx.o)
 .toc           0x00000000000330d0        0x0 e:/psdk3v2/psdk3v2-master/ps3dev/ppu/bin/../lib/gcc/powerpc64-ps3-elf/4.5.2/../../../../powerpc64-ps3-elf/lib\libsysbase.a(syscalls.o)
 .toc           0x00000000000330d0        0x0 e:/psdk3v2/psdk3v2-master/ps3dev/ppu/bin/../lib/gcc/powerpc64-ps3-elf/4.5.2/../../../../powerpc64-ps3-elf/lib\libc.a(lib_a-fclose.o)
 .toc           0x00000000000330d0        0x0 e:/psdk3v2/psdk3v2-master/ps3dev/ppu/bin/../lib/gcc/powerpc64-ps3-elf/4.5.2/../../../../powerpc64-ps3-elf/lib\libc.a(lib_a-fgets.o)
 .toc           0x00000000000330d0        0x0 e:/psdk3v2/psdk3v2-master/ps3dev/ppu/bin/../lib/gcc/powerpc64-ps3-elf/4.5.2/../../../../powerpc64-ps3-elf/lib\libc.a(lib_a-fread.o)
 .toc           0x00000000000330d0        0x0 e:/psdk3v2/psdk3v2-master/ps3dev/ppu/bin/../lib/gcc/powerpc64-ps3-elf/4.5.2/../../../../powerpc64-ps3-elf/lib\libc.a(lib_a-ftell.o)
 .toc           0x00000000000330d0        0x0 e:/psdk3v2/psdk3v2-master/ps3dev/ppu/bin/../lib/gcc/powerpc64-ps3-elf/4.5.2/../../../../powerpc64-ps3-elf/lib\libc.a(lib_a-fwalk.o)
 .toc           0x00000000000330d0        0x0 e:/psdk3v2/psdk3v2-master/ps3dev/ppu/bin/../lib/gcc/powerpc64-ps3-elf/4.5.2/../../../../powerpc64-ps3-elf/lib\libc.a(lib_a-fwrite.o)
 .toc           0x00000000000330d0        0x0 e:/psdk3v2/psdk3v2-master/ps3dev/ppu/bin/../lib/gcc/powerpc64-ps3-elf/4.5.2/../../../../powerpc64-ps3-elf/lib\libc.a(lib_a-impure.o)
 .toc           0x00000000000330d0        0x0 e:/psdk3v2/psdk3v2-master/ps3dev/ppu/bin/../lib/gcc/powerpc64-ps3-elf/4.5.2/../../../../powerpc64-ps3-elf/lib\libc.a(lib_a-malloc.o)
 .toc           0x00000000000330d0        0x0 e:/psdk3v2/psdk3v2-master/ps3dev/ppu/bin/../lib/gcc/powerpc64-ps3-elf/4.5.2/../../../../powerpc64-ps3-elf/lib\libc.a(lib_a-memchr.o)
 .toc           0x00000000000330d0        0x0 e:/psdk3v2/psdk3v2-master/ps3dev/ppu/bin/../lib/gcc/powerpc64-ps3-elf/4.5.2/../../../../powerpc64-ps3-elf/lib\libc.a(lib_a-memcpy.o)
 .toc           0x00000000000330d0        0x0 e:/psdk3v2/psdk3v2-master/ps3dev/ppu/bin/../lib/gcc/powerpc64-ps3-elf/4.5.2/../../../../powerpc64-ps3-elf/lib\libc.a(lib_a-memset.o)
 .toc           0x00000000000330d0        0x0 e:/psdk3v2/psdk3v2-master/ps3dev/ppu/bin/../lib/gcc/powerpc64-ps3-elf/4.5.2/../../../../powerpc64-ps3-elf/lib\libc.a(lib_a-printf.o)
 .toc           0x00000000000330d0        0x0 e:/psdk3v2/psdk3v2-master/ps3dev/ppu/bin/../lib/gcc/powerpc64-ps3-elf/4.5.2/../../../../powerpc64-ps3-elf/lib\libc.a(lib_a-putchar.o)
 .toc           0x00000000000330d0        0x0 e:/psdk3v2/psdk3v2-master/ps3dev/ppu/bin/../lib/gcc/powerpc64-ps3-elf/4.5.2/../../../../powerpc64-ps3-elf/lib\libc.a(lib_a-rand.o)
 .toc           0x00000000000330d0        0x0 e:/psdk3v2/psdk3v2-master/ps3dev/ppu/bin/../lib/gcc/powerpc64-ps3-elf/4.5.2/../../../../powerpc64-ps3-elf/lib\libc.a(lib_a-sprintf.o)
 .toc           0x00000000000330d0        0x0 e:/psdk3v2/psdk3v2-master/ps3dev/ppu/bin/../lib/gcc/powerpc64-ps3-elf/4.5.2/../../../../powerpc64-ps3-elf/lib\libc.a(lib_a-stdio.o)
 .toc           0x00000000000330d0        0x0 e:/psdk3v2/psdk3v2-master/ps3dev/ppu/bin/../lib/gcc/powerpc64-ps3-elf/4.5.2/../../../../powerpc64-ps3-elf/lib\libc.a(lib_a-strlen.o)
 .toc           0x00000000000330d0        0x0 e:/psdk3v2/psdk3v2-master/ps3dev/ppu/bin/../lib/gcc/powerpc64-ps3-elf/4.5.2/../../../../powerpc64-ps3-elf/lib\libc.a(lib_a-time.o)
 .toc           0x00000000000330d0        0x0 e:/psdk3v2/psdk3v2-master/ps3dev/ppu/bin/../lib/gcc/powerpc64-ps3-elf/4.5.2/../../../../powerpc64-ps3-elf/lib\libc.a(lib_a-wsetup.o)
 .toc           0x00000000000330d0        0x0 e:/psdk3v2/psdk3v2-master/ps3dev/ppu/bin/../lib/gcc/powerpc64-ps3-elf/4.5.2/../../../../powerpc64-ps3-elf/lib\libc.a(lib_a-flags.o)
 .toc           0x00000000000330d0        0x0 e:/psdk3v2/psdk3v2-master/ps3dev/ppu/bin/../lib/gcc/powerpc64-ps3-elf/4.5.2/../../../../powerpc64-ps3-elf/lib\libc.a(lib_a-fvwrite.o)
 .toc           0x00000000000330d0        0x0 e:/psdk3v2/psdk3v2-master/ps3dev/ppu/bin/../lib/gcc/powerpc64-ps3-elf/4.5.2/../../../../powerpc64-ps3-elf/lib\libc.a(lib_a-memmove.o)
 .toc           0x00000000000330d0        0x0 e:/psdk3v2/psdk3v2-master/ps3dev/ppu/bin/../lib/gcc/powerpc64-ps3-elf/4.5.2/../../../../powerpc64-ps3-elf/lib\libc.a(lib_a-putc.o)
 .toc           0x00000000000330d0        0x0 e:/psdk3v2/psdk3v2-master/ps3dev/ppu/bin/../lib/gcc/powerpc64-ps3-elf/4.5.2/../../../../powerpc64-ps3-elf/lib\libc.a(lib_a-s_fpclassify.o)
 .toc           0x00000000000330d0        0x0 e:/psdk3v2/psdk3v2-master/ps3dev/ppu/bin/../lib/gcc/powerpc64-ps3-elf/4.5.2/../../../../powerpc64-ps3-elf/lib\libc.a(lib_a-strcmp.o)
 .toc           0x00000000000330d0        0x0 e:/psdk3v2/psdk3v2-master/ps3dev/ppu/bin/../lib/gcc/powerpc64-ps3-elf/4.5.2/../../../../powerpc64-ps3-elf/lib\libc.a(lib_a-wbuf.o)
 .toc           0x00000000000330d0        0x0 e:/psdk3v2/psdk3v2-master/ps3dev/ppu/bin/../lib/gcc/powerpc64-ps3-elf/4.5.2/../../../../powerpc64-ps3-elf/lib\libc.a(lib_a-abort.o)
 .toc           0x00000000000330d0        0x0 e:/psdk3v2/psdk3v2-master/ps3dev/ppu/bin/../lib/gcc/powerpc64-ps3-elf/4.5.2/../../../../powerpc64-ps3-elf/lib\libc.a(lib_a-callocr.o)
 .toc           0x00000000000330d0        0x0 e:/psdk3v2/psdk3v2-master/ps3dev/ppu/bin/../lib/gcc/powerpc64-ps3-elf/4.5.2/../../../../powerpc64-ps3-elf/lib\libc.a(lib_a-fputwc.o)
 .toc           0x00000000000330d0        0x0 e:/psdk3v2/psdk3v2-master/ps3dev/ppu/bin/../lib/gcc/powerpc64-ps3-elf/4.5.2/../../../../powerpc64-ps3-elf/lib\libc.a(lib_a-signal.o)
 .toc           0x00000000000330d0        0x0 e:/PSDK3v2/PSDK3v2-master/psl1ght/ppu/lib\librt.a(exit.o)
 .toc           0x00000000000330d0        0x0 e:/PSDK3v2/PSDK3v2-master/psl1ght/ppu/lib\librt.a(close.o)
 .toc           0x00000000000330d0        0x0 e:/PSDK3v2/PSDK3v2-master/psl1ght/ppu/lib\librt.a(lseek.o)
 .toc           0x00000000000330d0        0x0 e:/PSDK3v2/PSDK3v2-master/psl1ght/ppu/lib\librt.a(read.o)
 .toc           0x00000000000330d0        0x0 e:/PSDK3v2/PSDK3v2-master/psl1ght/ppu/lib\librt.a(sleep.o)
 .toc           0x00000000000330d0        0x0 e:/PSDK3v2/PSDK3v2-master/psl1ght/ppu/lib\librt.a(write.o)
 .toc           0x00000000000330d0        0x0 e:/PSDK3v2/PSDK3v2-master/psl1ght/ppu/lib\librt.a(fstat.o)
 .toc           0x00000000000330d0        0x0 e:/PSDK3v2/PSDK3v2-master/psl1ght/ppu/lib\librt.a(lock.o)
 .toc           0x00000000000330d0        0x0 e:/PSDK3v2/PSDK3v2-master/psl1ght/ppu/lib\librt.a(dirent.o)
 .toc           0x00000000000330d0        0x0 e:/PSDK3v2/PSDK3v2-master/psl1ght/ppu/lib\librt.a(times.o)
 .toc           0x00000000000330d0        0x0 e:/PSDK3v2/PSDK3v2-master/psl1ght/ppu/lib\librt.a(lv2errno.o)
 .toc           0x00000000000330d0        0x0 e:/PSDK3v2/PSDK3v2-master/psl1ght/ppu/lib\librt.a(heap.o)
 .toc           0x00000000000330d0        0x0 e:/PSDK3v2/PSDK3v2-master/psl1ght/ppu/lib\librt.a(chmod.o)
 .toc           0x00000000000330d0        0x0 e:/PSDK3v2/PSDK3v2-master/psl1ght/ppu/lib\librt.a(rmdir.o)
 .toc           0x00000000000330d0        0x0 e:/PSDK3v2/PSDK3v2-master/psl1ght/ppu/lib\librt.a(isatty.o)
 .toc           0x00000000000330d0        0x0 e:/PSDK3v2/PSDK3v2-master/psl1ght/ppu/lib\librt.a(gettod.o)
 .toc           0x00000000000330d0        0x0 e:/PSDK3v2/PSDK3v2-master/psl1ght/ppu/lib\librt.a(settod.o)
 .toc           0x00000000000330d0        0x0 e:/psdk3v2/psdk3v2-master/ps3dev/ppu/bin/../lib/gcc/powerpc64-ps3-elf/4.5.2/../../../../powerpc64-ps3-elf/lib\libsysbase.a(kill.o)
 .toc           0x00000000000330d0        0x0 e:/psdk3v2/psdk3v2-master/ps3dev/ppu/bin/../lib/gcc/powerpc64-ps3-elf/4.5.2/../../../../powerpc64-ps3-elf/lib\libc.a(lib_a-errno.o)
 .toc           0x00000000000330d0        0x0 e:/psdk3v2/psdk3v2-master/ps3dev/ppu/bin/../lib/gcc/powerpc64-ps3-elf/4.5.2/../../../../powerpc64-ps3-elf/lib\libc.a(lib_a-strncpy.o)
 .toc           0x00000000000330d0        0x0 e:/psdk3v2/psdk3v2-master/ps3dev/ppu/bin/../lib/gcc/powerpc64-ps3-elf/4.5.2/../../../../powerpc64-ps3-elf/lib\libc.a(lib_a-ctype_.o)
 .toc           0x00000000000330d0        0x0 e:/psdk3v2/psdk3v2-master/ps3dev/ppu/bin/../lib/gcc/powerpc64-ps3-elf/4.5.2/../../../../powerpc64-ps3-elf/lib\libc.a(lib_a-sccl.o)
 .toc           0x00000000000330d0        0x0 e:/psdk3v2/psdk3v2-master/ps3dev/ppu/bin/../lib/gcc/powerpc64-ps3-elf/4.5.2/../../../../powerpc64-ps3-elf/lib\libc.a(lib_a-ungetc.o)
 .toc           0x00000000000330d0        0x0 e:/psdk3v2/psdk3v2-master/ps3dev/ppu/bin/../lib/gcc/powerpc64-ps3-elf/4.5.2/../../../../powerpc64-ps3-elf/lib\libc.a(lib_a-strncmp.o)

.toc.sceStub
 *(.toc.sceStub)
 *(SORT(.toc.sceStub.*))

.tdata
 *(.tdata .tdata.* .gnu.linkonce.td.*)

.tbss           0x00000000000330d0      0x780
 *(.tbss .tbss.* .gnu.linkonce.tb.*)
 .tbss.t_reent  0x00000000000330d0      0x778 e:/psdk3v2/psdk3v2-master/ps3dev/ppu/bin/../lib/gcc/powerpc64-ps3-elf/4.5.2/../../../../powerpc64-ps3-elf/lib\libc.a(lib_a-getreent.o)
 .tbss.t_reentp
                0x0000000000033848        0x8 e:/psdk3v2/psdk3v2-master/ps3dev/ppu/bin/../lib/gcc/powerpc64-ps3-elf/4.5.2/../../../../powerpc64-ps3-elf/lib\libc.a(lib_a-getreent.o)
 *(.tcommon)
                0x0000000010000000                . = ALIGN (0x10000000)

.rodata         0x0000000010000000      0x678
 *(.rodata .rodata.* .gnu.linkonce.r.*)
 .rodata        0x0000000010000000       0x18 e:/psdk3v2/psdk3v2-master/ps3dev/ppu/bin/../lib/gcc/powerpc64-ps3-elf/4.5.2/../../../../powerpc64-ps3-elf/lib/lv2-crt0.o
                0x0000000010000000                _start
 .rodata.str1.8
                0x0000000010000018      0x1d8 main.o
 .rodata.str1.8
                0x00000000100001f0        0x2 e:/psdk3v2/psdk3v2-master/ps3dev/ppu/bin/../lib/gcc/powerpc64-ps3-elf/4.5.2/../../../../powerpc64-ps3-elf/lib\libc.a(lib_a-getreent.o)
 .rodata.str1.8
                0x0000000000000000        0x2 e:/psdk3v2/psdk3v2-master/ps3dev/ppu/bin/../lib/gcc/powerpc64-ps3-elf/4.5.2/../../../../powerpc64-ps3-elf/lib\libc.a(lib_a-impure.o)
 *fill*         0x00000000100001f2        0x6 00
 .rodata._global_impure_ptr
                0x00000000100001f8        0x8 e:/psdk3v2/psdk3v2-master/ps3dev/ppu/bin/../lib/gcc/powerpc64-ps3-elf/4.5.2/../../../../powerpc64-ps3-elf/lib\libc.a(lib_a-impure.o)
                0x00000000100001f8                _global_impure_ptr
 .rodata.__libc_lock_attributes
                0x0000000010000200       0x10 e:/psdk3v2/psdk3v2-master/ps3dev/ppu/bin/../lib/gcc/powerpc64-ps3-elf/4.5.2/../../../../powerpc64-ps3-elf/lib\libc.a(lib_a-lock_recursive.o)
 .rodata.str1.8
                0x0000000000000000        0x2 e:/psdk3v2/psdk3v2-master/ps3dev/ppu/bin/../lib/gcc/powerpc64-ps3-elf/4.5.2/../../../../powerpc64-ps3-elf/lib\libc.a(lib_a-puts.o)
 .rodata.zeroes.4425
                0x0000000010000210       0x10 e:/psdk3v2/psdk3v2-master/ps3dev/ppu/bin/../lib/gcc/powerpc64-ps3-elf/4.5.2/../../../../powerpc64-ps3-elf/lib\libc.a(lib_a-svfprintf.o)
 .rodata.cst8   0x0000000010000220        0x8 e:/psdk3v2/psdk3v2-master/ps3dev/ppu/bin/../lib/gcc/powerpc64-ps3-elf/4.5.2/../../../../powerpc64-ps3-elf/lib\libc.a(lib_a-svfprintf.o)
 .rodata.blanks.4424
                0x0000000010000228       0x10 e:/psdk3v2/psdk3v2-master/ps3dev/ppu/bin/../lib/gcc/powerpc64-ps3-elf/4.5.2/../../../../powerpc64-ps3-elf/lib\libc.a(lib_a-svfprintf.o)
 .rodata.str1.8
                0x0000000010000238       0x5a e:/psdk3v2/psdk3v2-master/ps3dev/ppu/bin/../lib/gcc/powerpc64-ps3-elf/4.5.2/../../../../powerpc64-ps3-elf/lib\libc.a(lib_a-svfprintf.o)
 .rodata.cst8   0x0000000000000000        0x8 e:/psdk3v2/psdk3v2-master/ps3dev/ppu/bin/../lib/gcc/powerpc64-ps3-elf/4.5.2/../../../../powerpc64-ps3-elf/lib\libc.a(lib_a-vfprintf.o)
 *fill*         0x0000000010000292        0x6 00
 .rodata.zeroes.4440
                0x0000000010000298       0x10 e:/psdk3v2/psdk3v2-master/ps3dev/ppu/bin/../lib/gcc/powerpc64-ps3-elf/4.5.2/../../../../powerpc64-ps3-elf/lib\libc.a(lib_a-vfprintf.o)
 .rodata.str1.8
                0x0000000000000000       0x5a e:/psdk3v2/psdk3v2-master/ps3dev/ppu/bin/../lib/gcc/powerpc64-ps3-elf/4.5.2/../../../../powerpc64-ps3-elf/lib\libc.a(lib_a-vfprintf.o)
 .rodata.blanks.4439
                0x00000000100002a8       0x10 e:/psdk3v2/psdk3v2-master/ps3dev/ppu/bin/../lib/gcc/powerpc64-ps3-elf/4.5.2/../../../../powerpc64-ps3-elf/lib\libc.a(lib_a-vfprintf.o)
 .rodata.cst4   0x00000000100002b8       0x18 e:/psdk3v2/psdk3v2-master/ps3dev/ppu/bin/../lib/gcc/powerpc64-ps3-elf/4.5.2/../../../../powerpc64-ps3-elf/lib\libc.a(lib_a-dtoa.o)
 .rodata.cst8   0x00000000100002d0       0x18 e:/psdk3v2/psdk3v2-master/ps3dev/ppu/bin/../lib/gcc/powerpc64-ps3-elf/4.5.2/../../../../powerpc64-ps3-elf/lib\libc.a(lib_a-dtoa.o)
                                         0x20 (size before relaxing)
 .rodata.str1.8
                0x00000000100002e8       0x14 e:/psdk3v2/psdk3v2-master/ps3dev/ppu/bin/../lib/gcc/powerpc64-ps3-elf/4.5.2/../../../../powerpc64-ps3-elf/lib\libc.a(lib_a-dtoa.o)
                                         0x1a (size before relaxing)
 *fill*         0x00000000100002fc        0x4 00
 .rodata.str1.8
                0x0000000010000300        0xa e:/psdk3v2/psdk3v2-master/ps3dev/ppu/bin/../lib/gcc/powerpc64-ps3-elf/4.5.2/../../../../powerpc64-ps3-elf/lib\libc.a(lib_a-locale.o)
                                         0x1a (size before relaxing)
 *fill*         0x000000001000030a        0x2 00
 .rodata.__libc_lock_attributes
                0x000000001000030c       0x10 e:/psdk3v2/psdk3v2-master/ps3dev/ppu/bin/../lib/gcc/powerpc64-ps3-elf/4.5.2/../../../../powerpc64-ps3-elf/lib\libc.a(lib_a-lock_internal.o)
 .rodata.cst4   0x0000000000000000        0x8 e:/psdk3v2/psdk3v2-master/ps3dev/ppu/bin/../lib/gcc/powerpc64-ps3-elf/4.5.2/../../../../powerpc64-ps3-elf/lib\libc.a(lib_a-mprec.o)
 .rodata.p05.2968
                0x000000001000031c        0xc e:/psdk3v2/psdk3v2-master/ps3dev/ppu/bin/../lib/gcc/powerpc64-ps3-elf/4.5.2/../../../../powerpc64-ps3-elf/lib\libc.a(lib_a-mprec.o)
 .rodata.__mprec_bigtens
                0x0000000010000328       0x28 e:/psdk3v2/psdk3v2-master/ps3dev/ppu/bin/../lib/gcc/powerpc64-ps3-elf/4.5.2/../../../../powerpc64-ps3-elf/lib\libc.a(lib_a-mprec.o)
                0x0000000010000328                __mprec_bigtens
 .rodata.__mprec_tinytens
                0x0000000010000350       0x28 e:/psdk3v2/psdk3v2-master/ps3dev/ppu/bin/../lib/gcc/powerpc64-ps3-elf/4.5.2/../../../../powerpc64-ps3-elf/lib\libc.a(lib_a-mprec.o)
                0x0000000010000350                __mprec_tinytens
 .rodata.__mprec_tens
                0x0000000010000378       0xc8 e:/psdk3v2/psdk3v2-master/ps3dev/ppu/bin/../lib/gcc/powerpc64-ps3-elf/4.5.2/../../../../powerpc64-ps3-elf/lib\libc.a(lib_a-mprec.o)
                0x0000000010000378                __mprec_tens
 .rodata.zeroes.4369
                0x0000000010000440       0x10 e:/psdk3v2/psdk3v2-master/ps3dev/ppu/bin/../lib/gcc/powerpc64-ps3-elf/4.5.2/../../../../powerpc64-ps3-elf/lib\libc.a(lib_a-svfiprintf.o)
 .rodata.blanks.4368
                0x0000000010000450       0x10 e:/psdk3v2/psdk3v2-master/ps3dev/ppu/bin/../lib/gcc/powerpc64-ps3-elf/4.5.2/../../../../powerpc64-ps3-elf/lib\libc.a(lib_a-svfiprintf.o)
 .rodata.str1.8
                0x0000000000000000       0x37 e:/psdk3v2/psdk3v2-master/ps3dev/ppu/bin/../lib/gcc/powerpc64-ps3-elf/4.5.2/../../../../powerpc64-ps3-elf/lib\libc.a(lib_a-svfiprintf.o)
 .rodata.zeroes.4383
                0x0000000010000460       0x10 e:/psdk3v2/psdk3v2-master/ps3dev/ppu/bin/../lib/gcc/powerpc64-ps3-elf/4.5.2/../../../../powerpc64-ps3-elf/lib\libc.a(lib_a-vfiprintf.o)
 .rodata.str1.8
                0x0000000000000000       0x37 e:/psdk3v2/psdk3v2-master/ps3dev/ppu/bin/../lib/gcc/powerpc64-ps3-elf/4.5.2/../../../../powerpc64-ps3-elf/lib\libc.a(lib_a-vfiprintf.o)
 .rodata.blanks.4382
                0x0000000010000470       0x10 e:/psdk3v2/psdk3v2-master/ps3dev/ppu/bin/../lib/gcc/powerpc64-ps3-elf/4.5.2/../../../../powerpc64-ps3-elf/lib\libc.a(lib_a-vfiprintf.o)
 .rodata.str1.8
                0x0000000010000480        0xc e:/PSDK3v2/PSDK3v2-master/psl1ght/ppu/lib\librt.a(socket.o)
 .rodata.basefix.4341
                0x000000001000048c       0x22 e:/psdk3v2/psdk3v2-master/ps3dev/ppu/bin/../lib/gcc/powerpc64-ps3-elf/4.5.2/../../../../powerpc64-ps3-elf/lib\libc.a(lib_a-svfscanf.o)
 *fill*         0x00000000100004ae        0x2 00
 .rodata.str1.8
                0x00000000100004b0        0x5 e:/psdk3v2/psdk3v2-master/ps3dev/ppu/bin/../lib/gcc/powerpc64-ps3-elf/4.5.2/../../../../powerpc64-ps3-elf/lib\libc.a(lib_a-svfscanf.o)
 *fill*         0x00000000100004b5        0x3 00
 .rodata._ctype_
                0x00000000100004b8      0x101 e:/psdk3v2/psdk3v2-master/ps3dev/ppu/bin/../lib/gcc/powerpc64-ps3-elf/4.5.2/../../../../powerpc64-ps3-elf/lib\libc.a(lib_a-ctype_.o)
                0x00000000100004b8                _ctype_
 .rodata.str1.8
                0x0000000000000000        0x1 e:/psdk3v2/psdk3v2-master/ps3dev/ppu/bin/../lib/gcc/powerpc64-ps3-elf/4.5.2/../../../../powerpc64-ps3-elf/lib\libc.a(lib_a-mbrtowc.o)
 *fill*         0x00000000100005b9        0x3 00
 .rodata.cst4   0x00000000100005bc        0x4 e:/psdk3v2/psdk3v2-master/ps3dev/ppu/bin/../lib/gcc/powerpc64-ps3-elf/4.5.2/../../../../powerpc64-ps3-elf/lib\libc.a(lib_a-sf_nan.o)
 .rodata.cst4   0x00000000100005c0        0xc e:/psdk3v2/psdk3v2-master/ps3dev/ppu/bin/../lib/gcc/powerpc64-ps3-elf/4.5.2/../../../../powerpc64-ps3-elf/lib\libc.a(lib_a-strtod.o)
                                         0x14 (size before relaxing)
 *fill*         0x00000000100005cc        0x4 00
 .rodata.cst8   0x00000000100005d0       0x20 e:/psdk3v2/psdk3v2-master/ps3dev/ppu/bin/../lib/gcc/powerpc64-ps3-elf/4.5.2/../../../../powerpc64-ps3-elf/lib\libc.a(lib_a-strtod.o)
                                         0x28 (size before relaxing)
 .rodata.str1.8
                0x00000000100005f0       0x13 e:/psdk3v2/psdk3v2-master/ps3dev/ppu/bin/../lib/gcc/powerpc64-ps3-elf/4.5.2/../../../../powerpc64-ps3-elf/lib\libc.a(lib_a-strtod.o)
 *fill*         0x0000000010000603        0x5 00
 .rodata.tinytens
                0x0000000010000608       0x28 e:/psdk3v2/psdk3v2-master/ps3dev/ppu/bin/../lib/gcc/powerpc64-ps3-elf/4.5.2/../../../../powerpc64-ps3-elf/lib\libc.a(lib_a-strtod.o)
 .rodata.basefix.3841
                0x0000000010000630       0x22 e:/psdk3v2/psdk3v2-master/ps3dev/ppu/bin/../lib/gcc/powerpc64-ps3-elf/4.5.2/../../../../powerpc64-ps3-elf/lib\libc.a(lib_a-svfiscanf.o)
 *fill*         0x0000000010000652        0x6 00
 .rodata.str1.8
                0x0000000010000658       0x20 e:/psdk3v2/psdk3v2-master/ps3dev/ppu/bin/../lib/gcc/powerpc64-ps3-elf/4.5.2/../../../../powerpc64-ps3-elf/lib\libc.a(lib_a-gdtoa-gethex.o)
                                         0x1b (size before relaxing)

.rodata1
 *(.rodata1)

.spu_image
 *(.spu_image .spu_image.*)
                0x0000000010010000                . = ALIGN (0x10000)

.data           0x0000000010010000     0x10a0
 *(.data .data.* .gnu.linkonce.d.*)
 .data          0x0000000010010000        0x0 e:/psdk3v2/psdk3v2-master/ps3dev/ppu/bin/../lib/gcc/powerpc64-ps3-elf/4.5.2/../../../../powerpc64-ps3-elf/lib/lv2-crti.o
 .data          0x0000000010010000        0x0 e:/psdk3v2/psdk3v2-master/ps3dev/ppu/bin/../lib/gcc/powerpc64-ps3-elf/4.5.2/crtbegin.o
 .data.__dso_handle
                0x0000000010010000        0x8 e:/psdk3v2/psdk3v2-master/ps3dev/ppu/bin/../lib/gcc/powerpc64-ps3-elf/4.5.2/crtbegin.o
                0x0000000010010000                __dso_handle
 .data          0x0000000010010008        0x0 e:/psdk3v2/psdk3v2-master/ps3dev/ppu/bin/../lib/gcc/powerpc64-ps3-elf/4.5.2/../../../../powerpc64-ps3-elf/lib/lv2-crt0.o
 .data          0x0000000010010008        0x0 e:/psdk3v2/psdk3v2-master/ps3dev/ppu/bin/../lib/gcc/powerpc64-ps3-elf/4.5.2/../../../../powerpc64-ps3-elf/lib/lv2-sprx.o
 .data          0x0000000010010008        0x0 main.o
 .data.anton    0x0000000010010008        0x8 main.o
                0x0000000010010008                anton
 .data          0x0000000010010010        0x0 ../liblv2.a(sprx.o)
 .data          0x0000000010010010        0x0 e:/psdk3v2/psdk3v2-master/ps3dev/ppu/bin/../lib/gcc/powerpc64-ps3-elf/4.5.2/../../../../powerpc64-ps3-elf/lib\libsysbase.a(syscalls.o)
 .data          0x0000000010010010        0x0 e:/psdk3v2/psdk3v2-master/ps3dev/ppu/bin/../lib/gcc/powerpc64-ps3-elf/4.5.2/../../../../powerpc64-ps3-elf/lib\libc.a(lib_a-exit.o)
 .data          0x0000000010010010        0x0 e:/psdk3v2/psdk3v2-master/ps3dev/ppu/bin/../lib/gcc/powerpc64-ps3-elf/4.5.2/../../../../powerpc64-ps3-elf/lib\libc.a(lib_a-fclose.o)
 .data          0x0000000010010010        0x0 e:/psdk3v2/psdk3v2-master/ps3dev/ppu/bin/../lib/gcc/powerpc64-ps3-elf/4.5.2/../../../../powerpc64-ps3-elf/lib\libc.a(lib_a-fflush.o)
 .data          0x0000000010010010        0x0 e:/psdk3v2/psdk3v2-master/ps3dev/ppu/bin/../lib/gcc/powerpc64-ps3-elf/4.5.2/../../../../powerpc64-ps3-elf/lib\libc.a(lib_a-fgets.o)
 .data          0x0000000010010010        0x0 e:/psdk3v2/psdk3v2-master/ps3dev/ppu/bin/../lib/gcc/powerpc64-ps3-elf/4.5.2/../../../../powerpc64-ps3-elf/lib\libc.a(lib_a-findfp.o)
 .data          0x0000000010010010        0x0 e:/psdk3v2/psdk3v2-master/ps3dev/ppu/bin/../lib/gcc/powerpc64-ps3-elf/4.5.2/../../../../powerpc64-ps3-elf/lib\libc.a(lib_a-fopen.o)
 .data          0x0000000010010010        0x0 e:/psdk3v2/psdk3v2-master/ps3dev/ppu/bin/../lib/gcc/powerpc64-ps3-elf/4.5.2/../../../../powerpc64-ps3-elf/lib\libc.a(lib_a-fread.o)
 .data          0x0000000010010010        0x0 e:/psdk3v2/psdk3v2-master/ps3dev/ppu/bin/../lib/gcc/powerpc64-ps3-elf/4.5.2/../../../../powerpc64-ps3-elf/lib\libc.a(lib_a-freer.o)
 .data          0x0000000010010010        0x0 e:/psdk3v2/psdk3v2-master/ps3dev/ppu/bin/../lib/gcc/powerpc64-ps3-elf/4.5.2/../../../../powerpc64-ps3-elf/lib\libc.a(lib_a-fseek.o)
 .data          0x0000000010010010        0x0 e:/psdk3v2/psdk3v2-master/ps3dev/ppu/bin/../lib/gcc/powerpc64-ps3-elf/4.5.2/../../../../powerpc64-ps3-elf/lib\libc.a(lib_a-ftell.o)
 .data          0x0000000010010010        0x0 e:/psdk3v2/psdk3v2-master/ps3dev/ppu/bin/../lib/gcc/powerpc64-ps3-elf/4.5.2/../../../../powerpc64-ps3-elf/lib\libc.a(lib_a-fwalk.o)
 .data          0x0000000010010010        0x0 e:/psdk3v2/psdk3v2-master/ps3dev/ppu/bin/../lib/gcc/powerpc64-ps3-elf/4.5.2/../../../../powerpc64-ps3-elf/lib\libc.a(lib_a-fwrite.o)
 .data          0x0000000010010010        0x0 e:/psdk3v2/psdk3v2-master/ps3dev/ppu/bin/../lib/gcc/powerpc64-ps3-elf/4.5.2/../../../../powerpc64-ps3-elf/lib\libc.a(lib_a-getreent.o)
 .data          0x0000000010010010        0x0 e:/psdk3v2/psdk3v2-master/ps3dev/ppu/bin/../lib/gcc/powerpc64-ps3-elf/4.5.2/../../../../powerpc64-ps3-elf/lib\libc.a(lib_a-impure.o)
 .data.impure_data
                0x0000000010010010      0x778 e:/psdk3v2/psdk3v2-master/ps3dev/ppu/bin/../lib/gcc/powerpc64-ps3-elf/4.5.2/../../../../powerpc64-ps3-elf/lib\libc.a(lib_a-impure.o)
 .data._impure_ptr
                0x0000000010010788        0x8 e:/psdk3v2/psdk3v2-master/ps3dev/ppu/bin/../lib/gcc/powerpc64-ps3-elf/4.5.2/../../../../powerpc64-ps3-elf/lib\libc.a(lib_a-impure.o)
                0x0000000010010788                _impure_ptr
 .data          0x0000000010010790        0x0 e:/psdk3v2/psdk3v2-master/ps3dev/ppu/bin/../lib/gcc/powerpc64-ps3-elf/4.5.2/../../../../powerpc64-ps3-elf/lib\libc.a(lib_a-lock_recursive.o)
 .data          0x0000000010010790        0x0 e:/psdk3v2/psdk3v2-master/ps3dev/ppu/bin/../lib/gcc/powerpc64-ps3-elf/4.5.2/../../../../powerpc64-ps3-elf/lib\libc.a(lib_a-makebuf.o)
 .data          0x0000000010010790        0x0 e:/psdk3v2/psdk3v2-master/ps3dev/ppu/bin/../lib/gcc/powerpc64-ps3-elf/4.5.2/../../../../powerpc64-ps3-elf/lib\libc.a(lib_a-malloc.o)
 .data          0x0000000010010790        0x0 e:/psdk3v2/psdk3v2-master/ps3dev/ppu/bin/../lib/gcc/powerpc64-ps3-elf/4.5.2/../../../../powerpc64-ps3-elf/lib\libc.a(lib_a-mallocr.o)
 .data.rel.__malloc_av_
                0x0000000010010790      0x810 e:/psdk3v2/psdk3v2-master/ps3dev/ppu/bin/../lib/gcc/powerpc64-ps3-elf/4.5.2/../../../../powerpc64-ps3-elf/lib\libc.a(lib_a-mallocr.o)
                0x0000000010010790                __malloc_av_
 .data.__malloc_trim_threshold
                0x0000000010010fa0        0x8 e:/psdk3v2/psdk3v2-master/ps3dev/ppu/bin/../lib/gcc/powerpc64-ps3-elf/4.5.2/../../../../powerpc64-ps3-elf/lib\libc.a(lib_a-mallocr.o)
                0x0000000010010fa0                __malloc_trim_threshold
 .data.__malloc_sbrk_base
                0x0000000010010fa8        0x8 e:/psdk3v2/psdk3v2-master/ps3dev/ppu/bin/../lib/gcc/powerpc64-ps3-elf/4.5.2/../../../../powerpc64-ps3-elf/lib\libc.a(lib_a-mallocr.o)
                0x0000000010010fa8                __malloc_sbrk_base
 .data          0x0000000010010fb0        0x0 e:/psdk3v2/psdk3v2-master/ps3dev/ppu/bin/../lib/gcc/powerpc64-ps3-elf/4.5.2/../../../../powerpc64-ps3-elf/lib\libc.a(lib_a-memchr.o)
 .data          0x0000000010010fb0        0x0 e:/psdk3v2/psdk3v2-master/ps3dev/ppu/bin/../lib/gcc/powerpc64-ps3-elf/4.5.2/../../../../powerpc64-ps3-elf/lib\libc.a(lib_a-memcpy.o)
 .data          0x0000000010010fb0        0x0 e:/psdk3v2/psdk3v2-master/ps3dev/ppu/bin/../lib/gcc/powerpc64-ps3-elf/4.5.2/../../../../powerpc64-ps3-elf/lib\libc.a(lib_a-memset.o)
 .data          0x0000000010010fb0        0x0 e:/psdk3v2/psdk3v2-master/ps3dev/ppu/bin/../lib/gcc/powerpc64-ps3-elf/4.5.2/../../../../powerpc64-ps3-elf/lib\libc.a(lib_a-mlock.o)
 .data          0x0000000010010fb0        0x0 e:/psdk3v2/psdk3v2-master/ps3dev/ppu/bin/../lib/gcc/powerpc64-ps3-elf/4.5.2/../../../../powerpc64-ps3-elf/lib\libc.a(lib_a-printf.o)
 .data          0x0000000010010fb0        0x0 e:/psdk3v2/psdk3v2-master/ps3dev/ppu/bin/../lib/gcc/powerpc64-ps3-elf/4.5.2/../../../../powerpc64-ps3-elf/lib\libc.a(lib_a-putchar.o)
 .data          0x0000000010010fb0        0x0 e:/psdk3v2/psdk3v2-master/ps3dev/ppu/bin/../lib/gcc/powerpc64-ps3-elf/4.5.2/../../../../powerpc64-ps3-elf/lib\libc.a(lib_a-puts.o)
 .data          0x0000000010010fb0        0x0 e:/psdk3v2/psdk3v2-master/ps3dev/ppu/bin/../lib/gcc/powerpc64-ps3-elf/4.5.2/../../../../powerpc64-ps3-elf/lib\libc.a(lib_a-rand.o)
 .data          0x0000000010010fb0        0x0 e:/psdk3v2/psdk3v2-master/ps3dev/ppu/bin/../lib/gcc/powerpc64-ps3-elf/4.5.2/../../../../powerpc64-ps3-elf/lib\libc.a(lib_a-refill.o)
 .data          0x0000000010010fb0        0x0 e:/psdk3v2/psdk3v2-master/ps3dev/ppu/bin/../lib/gcc/powerpc64-ps3-elf/4.5.2/../../../../powerpc64-ps3-elf/lib\libc.a(lib_a-sprintf.o)
 .data          0x0000000010010fb0        0x0 e:/psdk3v2/psdk3v2-master/ps3dev/ppu/bin/../lib/gcc/powerpc64-ps3-elf/4.5.2/../../../../powerpc64-ps3-elf/lib\libc.a(lib_a-stdio.o)
 .data          0x0000000010010fb0        0x0 e:/psdk3v2/psdk3v2-master/ps3dev/ppu/bin/../lib/gcc/powerpc64-ps3-elf/4.5.2/../../../../powerpc64-ps3-elf/lib\libc.a(lib_a-strlen.o)
 .data          0x0000000010010fb0        0x0 e:/psdk3v2/psdk3v2-master/ps3dev/ppu/bin/../lib/gcc/powerpc64-ps3-elf/4.5.2/../../../../powerpc64-ps3-elf/lib\libc.a(lib_a-svfprintf.o)
 .data          0x0000000010010fb0        0x0 e:/psdk3v2/psdk3v2-master/ps3dev/ppu/bin/../lib/gcc/powerpc64-ps3-elf/4.5.2/../../../../powerpc64-ps3-elf/lib\libc.a(lib_a-time.o)
 .data          0x0000000010010fb0        0x0 e:/psdk3v2/psdk3v2-master/ps3dev/ppu/bin/../lib/gcc/powerpc64-ps3-elf/4.5.2/../../../../powerpc64-ps3-elf/lib\libc.a(lib_a-vfprintf.o)
 .data          0x0000000010010fb0        0x0 e:/psdk3v2/psdk3v2-master/ps3dev/ppu/bin/../lib/gcc/powerpc64-ps3-elf/4.5.2/../../../../powerpc64-ps3-elf/lib\libc.a(lib_a-wsetup.o)
 .data          0x0000000010010fb0        0x0 e:/psdk3v2/psdk3v2-master/ps3dev/ppu/bin/../lib/gcc/powerpc64-ps3-elf/4.5.2/../../../../powerpc64-ps3-elf/lib\libc.a(lib_a-__call_atexit.o)
 .data          0x0000000010010fb0        0x0 e:/psdk3v2/psdk3v2-master/ps3dev/ppu/bin/../lib/gcc/powerpc64-ps3-elf/4.5.2/../../../../powerpc64-ps3-elf/lib\libc.a(lib_a-dtoa.o)
 .data          0x0000000010010fb0        0x0 e:/psdk3v2/psdk3v2-master/ps3dev/ppu/bin/../lib/gcc/powerpc64-ps3-elf/4.5.2/../../../../powerpc64-ps3-elf/lib\libc.a(lib_a-flags.o)
 .data          0x0000000010010fb0        0x0 e:/psdk3v2/psdk3v2-master/ps3dev/ppu/bin/../lib/gcc/powerpc64-ps3-elf/4.5.2/../../../../powerpc64-ps3-elf/lib\libc.a(lib_a-fvwrite.o)
 .data          0x0000000010010fb0        0x0 e:/psdk3v2/psdk3v2-master/ps3dev/ppu/bin/../lib/gcc/powerpc64-ps3-elf/4.5.2/../../../../powerpc64-ps3-elf/lib\libc.a(lib_a-locale.o)
 .data.lc_message_charset
                0x0000000010010fb0       0x20 e:/psdk3v2/psdk3v2-master/ps3dev/ppu/bin/../lib/gcc/powerpc64-ps3-elf/4.5.2/../../../../powerpc64-ps3-elf/lib\libc.a(lib_a-locale.o)
 .data.lconv    0x0000000010010fd0       0x60 e:/psdk3v2/psdk3v2-master/ps3dev/ppu/bin/../lib/gcc/powerpc64-ps3-elf/4.5.2/../../../../powerpc64-ps3-elf/lib\libc.a(lib_a-locale.o)
 .data.lc_ctype_charset
                0x0000000010011030       0x20 e:/psdk3v2/psdk3v2-master/ps3dev/ppu/bin/../lib/gcc/powerpc64-ps3-elf/4.5.2/../../../../powerpc64-ps3-elf/lib\libc.a(lib_a-locale.o)
 .data.__mb_cur_max
                0x0000000010011050        0x4 e:/psdk3v2/psdk3v2-master/ps3dev/ppu/bin/../lib/gcc/powerpc64-ps3-elf/4.5.2/../../../../powerpc64-ps3-elf/lib\libc.a(lib_a-locale.o)
                0x0000000010011050                __mb_cur_max
 .data          0x0000000010011054        0x0 e:/psdk3v2/psdk3v2-master/ps3dev/ppu/bin/../lib/gcc/powerpc64-ps3-elf/4.5.2/../../../../powerpc64-ps3-elf/lib\libc.a(lib_a-lock_internal.o)
 .data          0x0000000010011054        0x0 e:/psdk3v2/psdk3v2-master/ps3dev/ppu/bin/../lib/gcc/powerpc64-ps3-elf/4.5.2/../../../../powerpc64-ps3-elf/lib\libc.a(lib_a-memmove.o)
 .data          0x0000000010011054        0x0 e:/psdk3v2/psdk3v2-master/ps3dev/ppu/bin/../lib/gcc/powerpc64-ps3-elf/4.5.2/../../../../powerpc64-ps3-elf/lib\libc.a(lib_a-mprec.o)
 .data          0x0000000010011054        0x0 e:/psdk3v2/psdk3v2-master/ps3dev/ppu/bin/../lib/gcc/powerpc64-ps3-elf/4.5.2/../../../../powerpc64-ps3-elf/lib\libc.a(lib_a-putc.o)
 .data          0x0000000010011054        0x0 e:/psdk3v2/psdk3v2-master/ps3dev/ppu/bin/../lib/gcc/powerpc64-ps3-elf/4.5.2/../../../../powerpc64-ps3-elf/lib\libc.a(lib_a-reallocr.o)
 .data          0x0000000010011054        0x0 e:/psdk3v2/psdk3v2-master/ps3dev/ppu/bin/../lib/gcc/powerpc64-ps3-elf/4.5.2/../../../../powerpc64-ps3-elf/lib\libc.a(lib_a-s_fpclassify.o)
 .data          0x0000000010011054        0x0 e:/psdk3v2/psdk3v2-master/ps3dev/ppu/bin/../lib/gcc/powerpc64-ps3-elf/4.5.2/../../../../powerpc64-ps3-elf/lib\libc.a(lib_a-strcmp.o)
 .data          0x0000000010011054        0x0 e:/psdk3v2/psdk3v2-master/ps3dev/ppu/bin/../lib/gcc/powerpc64-ps3-elf/4.5.2/../../../../powerpc64-ps3-elf/lib\libc.a(lib_a-svfiprintf.o)
 .data          0x0000000010011054        0x0 e:/psdk3v2/psdk3v2-master/ps3dev/ppu/bin/../lib/gcc/powerpc64-ps3-elf/4.5.2/../../../../powerpc64-ps3-elf/lib\libc.a(lib_a-vfiprintf.o)
 .data          0x0000000010011054        0x0 e:/psdk3v2/psdk3v2-master/ps3dev/ppu/bin/../lib/gcc/powerpc64-ps3-elf/4.5.2/../../../../powerpc64-ps3-elf/lib\libc.a(lib_a-wbuf.o)
 .data          0x0000000010011054        0x0 e:/psdk3v2/psdk3v2-master/ps3dev/ppu/bin/../lib/gcc/powerpc64-ps3-elf/4.5.2/../../../../powerpc64-ps3-elf/lib\libc.a(lib_a-__atexit.o)
 .data          0x0000000010011054        0x0 e:/psdk3v2/psdk3v2-master/ps3dev/ppu/bin/../lib/gcc/powerpc64-ps3-elf/4.5.2/../../../../powerpc64-ps3-elf/lib\libc.a(lib_a-abort.o)
 .data          0x0000000010011054        0x0 e:/psdk3v2/psdk3v2-master/ps3dev/ppu/bin/../lib/gcc/powerpc64-ps3-elf/4.5.2/../../../../powerpc64-ps3-elf/lib\libc.a(lib_a-callocr.o)
 .data          0x0000000010011054        0x0 e:/psdk3v2/psdk3v2-master/ps3dev/ppu/bin/../lib/gcc/powerpc64-ps3-elf/4.5.2/../../../../powerpc64-ps3-elf/lib\libc.a(lib_a-fputwc.o)
 .data          0x0000000010011054        0x0 e:/psdk3v2/psdk3v2-master/ps3dev/ppu/bin/../lib/gcc/powerpc64-ps3-elf/4.5.2/../../../../powerpc64-ps3-elf/lib\libc.a(lib_a-signal.o)
 .data          0x0000000010011054        0x0 e:/psdk3v2/psdk3v2-master/ps3dev/ppu/bin/../lib/gcc/powerpc64-ps3-elf/4.5.2/../../../../powerpc64-ps3-elf/lib\libc.a(lib_a-wcrtomb.o)
 .data          0x0000000010011054        0x0 e:/psdk3v2/psdk3v2-master/ps3dev/ppu/bin/../lib/gcc/powerpc64-ps3-elf/4.5.2/../../../../powerpc64-ps3-elf/lib\libc.a(lib_a-wctomb_r.o)
 *fill*         0x0000000010011054        0x4 00
 .data.rel.__wctomb
                0x0000000010011058        0x8 e:/psdk3v2/psdk3v2-master/ps3dev/ppu/bin/../lib/gcc/powerpc64-ps3-elf/4.5.2/../../../../powerpc64-ps3-elf/lib\libc.a(lib_a-wctomb_r.o)
                0x0000000010011058                __wctomb
 .data          0x0000000010011060        0x0 e:/PSDK3v2/PSDK3v2-master/psl1ght/ppu/lib\librt.a(sbrk.o)
 .data          0x0000000010011060        0x0 e:/PSDK3v2/PSDK3v2-master/psl1ght/ppu/lib\librt.a(exit.o)
 .data          0x0000000010011060        0x0 e:/PSDK3v2/PSDK3v2-master/psl1ght/ppu/lib\librt.a(close.o)
 .data          0x0000000010011060        0x0 e:/PSDK3v2/PSDK3v2-master/psl1ght/ppu/lib\librt.a(lseek.o)
 .data          0x0000000010011060        0x0 e:/PSDK3v2/PSDK3v2-master/psl1ght/ppu/lib\librt.a(read.o)
 .data          0x0000000010011060        0x0 e:/PSDK3v2/PSDK3v2-master/psl1ght/ppu/lib\librt.a(open.o)
 .data          0x0000000010011060        0x0 e:/PSDK3v2/PSDK3v2-master/psl1ght/ppu/lib\librt.a(sleep.o)
 .data          0x0000000010011060        0x0 e:/PSDK3v2/PSDK3v2-master/psl1ght/ppu/lib\librt.a(write.o)
 .data          0x0000000010011060        0x0 e:/PSDK3v2/PSDK3v2-master/psl1ght/ppu/lib\librt.a(fstat.o)
 .data          0x0000000010011060        0x0 e:/PSDK3v2/PSDK3v2-master/psl1ght/ppu/lib\librt.a(socket.o)
 .data          0x0000000010011060        0x0 e:/PSDK3v2/PSDK3v2-master/psl1ght/ppu/lib\librt.a(lock.o)
 .data          0x0000000010011060        0x0 e:/PSDK3v2/PSDK3v2-master/psl1ght/ppu/lib\librt.a(dirent.o)
 .data          0x0000000010011060        0x0 e:/PSDK3v2/PSDK3v2-master/psl1ght/ppu/lib\librt.a(mkdir.o)
 .data          0x0000000010011060        0x0 e:/PSDK3v2/PSDK3v2-master/psl1ght/ppu/lib\librt.a(times.o)
 .data          0x0000000010011060        0x0 e:/PSDK3v2/PSDK3v2-master/psl1ght/ppu/lib\librt.a(umask.o)
 .data.g_umask  0x0000000010011060        0x4 e:/PSDK3v2/PSDK3v2-master/psl1ght/ppu/lib\librt.a(umask.o)
                0x0000000010011060                g_umask
 .data          0x0000000010011064        0x0 e:/PSDK3v2/PSDK3v2-master/psl1ght/ppu/lib\librt.a(lv2errno.o)
 .data          0x0000000010011064        0x0 e:/PSDK3v2/PSDK3v2-master/psl1ght/ppu/lib\librt.a(heap.o)
 .data          0x0000000010011064        0x0 e:/PSDK3v2/PSDK3v2-master/psl1ght/ppu/lib\librt.a(chmod.o)
 .data          0x0000000010011064        0x0 e:/PSDK3v2/PSDK3v2-master/psl1ght/ppu/lib\librt.a(rmdir.o)
 .data          0x0000000010011064        0x0 e:/PSDK3v2/PSDK3v2-master/psl1ght/ppu/lib\librt.a(isatty.o)
 .data          0x0000000010011064        0x0 e:/PSDK3v2/PSDK3v2-master/psl1ght/ppu/lib\librt.a(gettod.o)
 .data          0x0000000010011064        0x0 e:/PSDK3v2/PSDK3v2-master/psl1ght/ppu/lib\librt.a(settod.o)
 .data          0x0000000010011064        0x0 e:/psdk3v2/psdk3v2-master/ps3dev/ppu/bin/../lib/gcc/powerpc64-ps3-elf/4.5.2/../../../../powerpc64-ps3-elf/lib\libsysbase.a(close.o)
 .data          0x0000000010011064        0x0 e:/psdk3v2/psdk3v2-master/ps3dev/ppu/bin/../lib/gcc/powerpc64-ps3-elf/4.5.2/../../../../powerpc64-ps3-elf/lib\libsysbase.a(sbrk.o)
 .data          0x0000000010011064        0x0 e:/psdk3v2/psdk3v2-master/ps3dev/ppu/bin/../lib/gcc/powerpc64-ps3-elf/4.5.2/../../../../powerpc64-ps3-elf/lib\libsysbase.a(_exit.o)
 .data          0x0000000010011064        0x0 e:/psdk3v2/psdk3v2-master/ps3dev/ppu/bin/../lib/gcc/powerpc64-ps3-elf/4.5.2/../../../../powerpc64-ps3-elf/lib\libsysbase.a(fstat.o)
 .data          0x0000000010011064        0x0 e:/psdk3v2/psdk3v2-master/ps3dev/ppu/bin/../lib/gcc/powerpc64-ps3-elf/4.5.2/../../../../powerpc64-ps3-elf/lib\libsysbase.a(isatty.o)
 .data          0x0000000010011064        0x0 e:/psdk3v2/psdk3v2-master/ps3dev/ppu/bin/../lib/gcc/powerpc64-ps3-elf/4.5.2/../../../../powerpc64-ps3-elf/lib\libsysbase.a(lseek.o)
 .data          0x0000000010011064        0x0 e:/psdk3v2/psdk3v2-master/ps3dev/ppu/bin/../lib/gcc/powerpc64-ps3-elf/4.5.2/../../../../powerpc64-ps3-elf/lib\libsysbase.a(open.o)
 .data          0x0000000010011064        0x0 e:/psdk3v2/psdk3v2-master/ps3dev/ppu/bin/../lib/gcc/powerpc64-ps3-elf/4.5.2/../../../../powerpc64-ps3-elf/lib\libsysbase.a(read.o)
 .data          0x0000000010011064        0x0 e:/psdk3v2/psdk3v2-master/ps3dev/ppu/bin/../lib/gcc/powerpc64-ps3-elf/4.5.2/../../../../powerpc64-ps3-elf/lib\libsysbase.a(write.o)
 .data          0x0000000010011064        0x0 e:/psdk3v2/psdk3v2-master/ps3dev/ppu/bin/../lib/gcc/powerpc64-ps3-elf/4.5.2/../../../../powerpc64-ps3-elf/lib\libsysbase.a(lock.o)
 .data          0x0000000010011064        0x0 e:/psdk3v2/psdk3v2-master/ps3dev/ppu/bin/../lib/gcc/powerpc64-ps3-elf/4.5.2/../../../../powerpc64-ps3-elf/lib\libsysbase.a(getpid.o)
 .data          0x0000000010011064        0x0 e:/psdk3v2/psdk3v2-master/ps3dev/ppu/bin/../lib/gcc/powerpc64-ps3-elf/4.5.2/../../../../powerpc64-ps3-elf/lib\libsysbase.a(kill.o)
 .data          0x0000000010011064        0x0 e:/psdk3v2/psdk3v2-master/ps3dev/ppu/bin/../lib/gcc/powerpc64-ps3-elf/4.5.2/../../../../powerpc64-ps3-elf/lib\libsysbase.a(gettod.o)
 .data          0x0000000010011064        0x0 e:/psdk3v2/psdk3v2-master/ps3dev/ppu/bin/../lib/gcc/powerpc64-ps3-elf/4.5.2/../../../../powerpc64-ps3-elf/lib\libc.a(lib_a-errno.o)
 .data          0x0000000010011064        0x0 e:/psdk3v2/psdk3v2-master/ps3dev/ppu/bin/../lib/gcc/powerpc64-ps3-elf/4.5.2/../../../../powerpc64-ps3-elf/lib\libc.a(lib_a-sscanf.o)
 .data          0x0000000010011064        0x0 e:/psdk3v2/psdk3v2-master/ps3dev/ppu/bin/../lib/gcc/powerpc64-ps3-elf/4.5.2/../../../../powerpc64-ps3-elf/lib\libc.a(lib_a-strncpy.o)
 .data          0x0000000010011064        0x0 e:/psdk3v2/psdk3v2-master/ps3dev/ppu/bin/../lib/gcc/powerpc64-ps3-elf/4.5.2/../../../../powerpc64-ps3-elf/lib\libc.a(lib_a-svfscanf.o)
 .data          0x0000000010011064        0x0 e:/psdk3v2/psdk3v2-master/ps3dev/ppu/bin/../lib/gcc/powerpc64-ps3-elf/4.5.2/../../../../powerpc64-ps3-elf/lib\libc.a(lib_a-ctype_.o)
 *fill*         0x0000000010011064        0x4 00
 .data.rel.__ctype_ptr__
                0x0000000010011068        0x8 e:/psdk3v2/psdk3v2-master/ps3dev/ppu/bin/../lib/gcc/powerpc64-ps3-elf/4.5.2/../../../../powerpc64-ps3-elf/lib\libc.a(lib_a-ctype_.o)
                0x0000000010011068                __ctype_ptr__
 .data          0x0000000010011070        0x0 e:/psdk3v2/psdk3v2-master/ps3dev/ppu/bin/../lib/gcc/powerpc64-ps3-elf/4.5.2/../../../../powerpc64-ps3-elf/lib\libc.a(lib_a-iswspace.o)
 .data          0x0000000010011070        0x0 e:/psdk3v2/psdk3v2-master/ps3dev/ppu/bin/../lib/gcc/powerpc64-ps3-elf/4.5.2/../../../../powerpc64-ps3-elf/lib\libc.a(lib_a-mbrtowc.o)
 .data          0x0000000010011070        0x0 e:/psdk3v2/psdk3v2-master/ps3dev/ppu/bin/../lib/gcc/powerpc64-ps3-elf/4.5.2/../../../../powerpc64-ps3-elf/lib\libc.a(lib_a-mbtowc_r.o)
 .data.rel.__mbtowc
                0x0000000010011070        0x8 e:/psdk3v2/psdk3v2-master/ps3dev/ppu/bin/../lib/gcc/powerpc64-ps3-elf/4.5.2/../../../../powerpc64-ps3-elf/lib\libc.a(lib_a-mbtowc_r.o)
                0x0000000010011070                __mbtowc
 .data          0x0000000010011078        0x0 e:/psdk3v2/psdk3v2-master/ps3dev/ppu/bin/../lib/gcc/powerpc64-ps3-elf/4.5.2/../../../../powerpc64-ps3-elf/lib\libc.a(lib_a-sccl.o)
 .data          0x0000000010011078        0x0 e:/psdk3v2/psdk3v2-master/ps3dev/ppu/bin/../lib/gcc/powerpc64-ps3-elf/4.5.2/../../../../powerpc64-ps3-elf/lib\libc.a(lib_a-sf_nan.o)
 .data          0x0000000010011078        0x0 e:/psdk3v2/psdk3v2-master/ps3dev/ppu/bin/../lib/gcc/powerpc64-ps3-elf/4.5.2/../../../../powerpc64-ps3-elf/lib\libc.a(lib_a-strtod.o)
 .data.fpi.2928
                0x0000000010011078       0x14 e:/psdk3v2/psdk3v2-master/ps3dev/ppu/bin/../lib/gcc/powerpc64-ps3-elf/4.5.2/../../../../powerpc64-ps3-elf/lib\libc.a(lib_a-strtod.o)
 .data.fpinan.2964
                0x000000001001108c       0x14 e:/psdk3v2/psdk3v2-master/ps3dev/ppu/bin/../lib/gcc/powerpc64-ps3-elf/4.5.2/../../../../powerpc64-ps3-elf/lib\libc.a(lib_a-strtod.o)
 .data          0x00000000100110a0        0x0 e:/psdk3v2/psdk3v2-master/ps3dev/ppu/bin/../lib/gcc/powerpc64-ps3-elf/4.5.2/../../../../powerpc64-ps3-elf/lib\libc.a(lib_a-strtol.o)
 .data          0x00000000100110a0        0x0 e:/psdk3v2/psdk3v2-master/ps3dev/ppu/bin/../lib/gcc/powerpc64-ps3-elf/4.5.2/../../../../powerpc64-ps3-elf/lib\libc.a(lib_a-strtoll_r.o)
 .data          0x00000000100110a0        0x0 e:/psdk3v2/psdk3v2-master/ps3dev/ppu/bin/../lib/gcc/powerpc64-ps3-elf/4.5.2/../../../../powerpc64-ps3-elf/lib\libc.a(lib_a-strtoul.o)
 .data          0x00000000100110a0        0x0 e:/psdk3v2/psdk3v2-master/ps3dev/ppu/bin/../lib/gcc/powerpc64-ps3-elf/4.5.2/../../../../powerpc64-ps3-elf/lib\libc.a(lib_a-strtoull_r.o)
 .data          0x00000000100110a0        0x0 e:/psdk3v2/psdk3v2-master/ps3dev/ppu/bin/../lib/gcc/powerpc64-ps3-elf/4.5.2/../../../../powerpc64-ps3-elf/lib\libc.a(lib_a-svfiscanf.o)
 .data          0x00000000100110a0        0x0 e:/psdk3v2/psdk3v2-master/ps3dev/ppu/bin/../lib/gcc/powerpc64-ps3-elf/4.5.2/../../../../powerpc64-ps3-elf/lib\libc.a(lib_a-ungetc.o)
 .data          0x00000000100110a0        0x0 e:/psdk3v2/psdk3v2-master/ps3dev/ppu/bin/../lib/gcc/powerpc64-ps3-elf/4.5.2/../../../../powerpc64-ps3-elf/lib\libc.a(lib_a-gdtoa-gethex.o)
 .data          0x00000000100110a0        0x0 e:/psdk3v2/psdk3v2-master/ps3dev/ppu/bin/../lib/gcc/powerpc64-ps3-elf/4.5.2/../../../../powerpc64-ps3-elf/lib\libc.a(lib_a-gdtoa-hexnan.o)
 .data          0x00000000100110a0        0x0 e:/psdk3v2/psdk3v2-master/ps3dev/ppu/bin/../lib/gcc/powerpc64-ps3-elf/4.5.2/../../../../powerpc64-ps3-elf/lib\libc.a(lib_a-strncmp.o)
 .data          0x00000000100110a0        0x0 e:/psdk3v2/psdk3v2-master/ps3dev/ppu/bin/../lib/gcc/powerpc64-ps3-elf/4.5.2/crtend.o
 .data          0x00000000100110a0        0x0 e:/psdk3v2/psdk3v2-master/ps3dev/ppu/bin/../lib/gcc/powerpc64-ps3-elf/4.5.2/../../../../powerpc64-ps3-elf/lib/lv2-crtn.o
 *(.gnu.linkonce.d.*personality*)

.data1
 *(.data1)

.sdata
 *(.sdata .sdata.* .gnu.linkonce.s.*)
                0x00000000100110a0                _edata = .
                0x00000000100110a0                PROVIDE (edata, .)
                0x00000000100110a0                __bss_start = .

.tocbss
 *(.tocbss)

.sbss           0x00000000100110a0        0x0
                0x00000000100110a0                PROVIDE (__sbss_start, .)
                0x00000000100110a0                PROVIDE (___sbss_start, .)
 *(.dynsbss)
 *(.sbss .sbss.* .gnu.linkonce.sb.*)
 *(.scommon)
                0x00000000100110a0                PROVIDE (__sbss_end, .)
                0x00000000100110a0                PROVIDE (___sbss_end, .)

.plt
 *(.plt)

.bss            0x00000000100110c0    0x12468
 *(.dynbss)
 *(.bss .bss.* .gnu.linkonce.b.*)
 .bss           0x00000000100110c0        0x0 e:/psdk3v2/psdk3v2-master/ps3dev/ppu/bin/../lib/gcc/powerpc64-ps3-elf/4.5.2/../../../../powerpc64-ps3-elf/lib/lv2-crti.o
 .bss           0x00000000100110c0        0x0 e:/psdk3v2/psdk3v2-master/ps3dev/ppu/bin/../lib/gcc/powerpc64-ps3-elf/4.5.2/crtbegin.o
 .bss.completed.4302
                0x00000000100110c0        0x1 e:/psdk3v2/psdk3v2-master/ps3dev/ppu/bin/../lib/gcc/powerpc64-ps3-elf/4.5.2/crtbegin.o
 *fill*         0x00000000100110c1        0x7 00
 .bss.dtor_idx.4304
                0x00000000100110c8        0x8 e:/psdk3v2/psdk3v2-master/ps3dev/ppu/bin/../lib/gcc/powerpc64-ps3-elf/4.5.2/crtbegin.o
 .bss.object.4314
                0x00000000100110d0       0x30 e:/psdk3v2/psdk3v2-master/ps3dev/ppu/bin/../lib/gcc/powerpc64-ps3-elf/4.5.2/crtbegin.o
 .bss           0x0000000010011100        0x8 e:/psdk3v2/psdk3v2-master/ps3dev/ppu/bin/../lib/gcc/powerpc64-ps3-elf/4.5.2/../../../../powerpc64-ps3-elf/lib/lv2-crt0.o
                0x0000000010011100                __libc_stack_end
 .bss           0x0000000010011108        0x0 e:/psdk3v2/psdk3v2-master/ps3dev/ppu/bin/../lib/gcc/powerpc64-ps3-elf/4.5.2/../../../../powerpc64-ps3-elf/lib/lv2-sprx.o
 .bss           0x0000000010011108        0x0 main.o
 .bss.from_reboot
                0x0000000010011108        0x4 main.o
                0x0000000010011108                from_reboot
 .bss.verbose   0x000000001001110c        0x4 main.o
                0x000000001001110c                verbose
 .bss.dev_rw_mounted
                0x0000000010011110        0x4 main.o
                0x0000000010011110                dev_rw_mounted
 .bss           0x0000000010011114        0x0 ../liblv2.a(sprx.o)
 .bss           0x0000000010011114        0x0 e:/psdk3v2/psdk3v2-master/ps3dev/ppu/bin/../lib/gcc/powerpc64-ps3-elf/4.5.2/../../../../powerpc64-ps3-elf/lib\libsysbase.a(syscalls.o)
 *fill*         0x0000000010011114        0x4 00
 .bss.__syscalls
                0x0000000010011118      0x170 e:/psdk3v2/psdk3v2-master/ps3dev/ppu/bin/../lib/gcc/powerpc64-ps3-elf/4.5.2/../../../../powerpc64-ps3-elf/lib\libsysbase.a(syscalls.o)
                0x0000000010011118                __syscalls
 .bss           0x0000000010011288        0x0 e:/psdk3v2/psdk3v2-master/ps3dev/ppu/bin/../lib/gcc/powerpc64-ps3-elf/4.5.2/../../../../powerpc64-ps3-elf/lib\libc.a(lib_a-exit.o)
 .bss           0x0000000010011288        0x0 e:/psdk3v2/psdk3v2-master/ps3dev/ppu/bin/../lib/gcc/powerpc64-ps3-elf/4.5.2/../../../../powerpc64-ps3-elf/lib\libc.a(lib_a-fclose.o)
 .bss           0x0000000010011288        0x0 e:/psdk3v2/psdk3v2-master/ps3dev/ppu/bin/../lib/gcc/powerpc64-ps3-elf/4.5.2/../../../../powerpc64-ps3-elf/lib\libc.a(lib_a-fflush.o)
 .bss           0x0000000010011288        0x0 e:/psdk3v2/psdk3v2-master/ps3dev/ppu/bin/../lib/gcc/powerpc64-ps3-elf/4.5.2/../../../../powerpc64-ps3-elf/lib\libc.a(lib_a-fgets.o)
 .bss           0x0000000010011288        0x0 e:/psdk3v2/psdk3v2-master/ps3dev/ppu/bin/../lib/gcc/powerpc64-ps3-elf/4.5.2/../../../../powerpc64-ps3-elf/lib\libc.a(lib_a-findfp.o)
 .bss.__sfp_lock
                0x0000000010011288       0x18 e:/psdk3v2/psdk3v2-master/ps3dev/ppu/bin/../lib/gcc/powerpc64-ps3-elf/4.5.2/../../../../powerpc64-ps3-elf/lib\libc.a(lib_a-findfp.o)
 .bss.__sinit_lock
                0x00000000100112a0       0x18 e:/psdk3v2/psdk3v2-master/ps3dev/ppu/bin/../lib/gcc/powerpc64-ps3-elf/4.5.2/../../../../powerpc64-ps3-elf/lib\libc.a(lib_a-findfp.o)
 .bss           0x00000000100112b8        0x0 e:/psdk3v2/psdk3v2-master/ps3dev/ppu/bin/../lib/gcc/powerpc64-ps3-elf/4.5.2/../../../../powerpc64-ps3-elf/lib\libc.a(lib_a-fopen.o)
 .bss           0x00000000100112b8        0x0 e:/psdk3v2/psdk3v2-master/ps3dev/ppu/bin/../lib/gcc/powerpc64-ps3-elf/4.5.2/../../../../powerpc64-ps3-elf/lib\libc.a(lib_a-fread.o)
 .bss           0x00000000100112b8        0x0 e:/psdk3v2/psdk3v2-master/ps3dev/ppu/bin/../lib/gcc/powerpc64-ps3-elf/4.5.2/../../../../powerpc64-ps3-elf/lib\libc.a(lib_a-freer.o)
 .bss           0x00000000100112b8        0x0 e:/psdk3v2/psdk3v2-master/ps3dev/ppu/bin/../lib/gcc/powerpc64-ps3-elf/4.5.2/../../../../powerpc64-ps3-elf/lib\libc.a(lib_a-fseek.o)
 .bss           0x00000000100112b8        0x0 e:/psdk3v2/psdk3v2-master/ps3dev/ppu/bin/../lib/gcc/powerpc64-ps3-elf/4.5.2/../../../../powerpc64-ps3-elf/lib\libc.a(lib_a-ftell.o)
 .bss           0x00000000100112b8        0x0 e:/psdk3v2/psdk3v2-master/ps3dev/ppu/bin/../lib/gcc/powerpc64-ps3-elf/4.5.2/../../../../powerpc64-ps3-elf/lib\libc.a(lib_a-fwalk.o)
 .bss           0x00000000100112b8        0x0 e:/psdk3v2/psdk3v2-master/ps3dev/ppu/bin/../lib/gcc/powerpc64-ps3-elf/4.5.2/../../../../powerpc64-ps3-elf/lib\libc.a(lib_a-fwrite.o)
 .bss           0x00000000100112b8        0x0 e:/psdk3v2/psdk3v2-master/ps3dev/ppu/bin/../lib/gcc/powerpc64-ps3-elf/4.5.2/../../../../powerpc64-ps3-elf/lib\libc.a(lib_a-getreent.o)
 .bss           0x00000000100112b8        0x0 e:/psdk3v2/psdk3v2-master/ps3dev/ppu/bin/../lib/gcc/powerpc64-ps3-elf/4.5.2/../../../../powerpc64-ps3-elf/lib\libc.a(lib_a-impure.o)
 .bss           0x00000000100112b8        0x0 e:/psdk3v2/psdk3v2-master/ps3dev/ppu/bin/../lib/gcc/powerpc64-ps3-elf/4.5.2/../../../../powerpc64-ps3-elf/lib\libc.a(lib_a-lock_recursive.o)
 .bss           0x00000000100112b8        0x0 e:/psdk3v2/psdk3v2-master/ps3dev/ppu/bin/../lib/gcc/powerpc64-ps3-elf/4.5.2/../../../../powerpc64-ps3-elf/lib\libc.a(lib_a-makebuf.o)
 .bss           0x00000000100112b8        0x0 e:/psdk3v2/psdk3v2-master/ps3dev/ppu/bin/../lib/gcc/powerpc64-ps3-elf/4.5.2/../../../../powerpc64-ps3-elf/lib\libc.a(lib_a-malloc.o)
 .bss           0x00000000100112b8        0x0 e:/psdk3v2/psdk3v2-master/ps3dev/ppu/bin/../lib/gcc/powerpc64-ps3-elf/4.5.2/../../../../powerpc64-ps3-elf/lib\libc.a(lib_a-mallocr.o)
 .bss.__malloc_max_total_mem
                0x00000000100112b8        0x8 e:/psdk3v2/psdk3v2-master/ps3dev/ppu/bin/../lib/gcc/powerpc64-ps3-elf/4.5.2/../../../../powerpc64-ps3-elf/lib\libc.a(lib_a-mallocr.o)
                0x00000000100112b8                __malloc_max_total_mem
 .bss.__malloc_max_sbrked_mem
                0x00000000100112c0        0x8 e:/psdk3v2/psdk3v2-master/ps3dev/ppu/bin/../lib/gcc/powerpc64-ps3-elf/4.5.2/../../../../powerpc64-ps3-elf/lib\libc.a(lib_a-mallocr.o)
                0x00000000100112c0                __malloc_max_sbrked_mem
 .bss.__malloc_top_pad
                0x00000000100112c8        0x8 e:/psdk3v2/psdk3v2-master/ps3dev/ppu/bin/../lib/gcc/powerpc64-ps3-elf/4.5.2/../../../../powerpc64-ps3-elf/lib\libc.a(lib_a-mallocr.o)
                0x00000000100112c8                __malloc_top_pad
 .bss.__malloc_current_mallinfo
                0x00000000100112d0       0x28 e:/psdk3v2/psdk3v2-master/ps3dev/ppu/bin/../lib/gcc/powerpc64-ps3-elf/4.5.2/../../../../powerpc64-ps3-elf/lib\libc.a(lib_a-mallocr.o)
                0x00000000100112d0                __malloc_current_mallinfo
 .bss           0x00000000100112f8        0x0 e:/psdk3v2/psdk3v2-master/ps3dev/ppu/bin/../lib/gcc/powerpc64-ps3-elf/4.5.2/../../../../powerpc64-ps3-elf/lib\libc.a(lib_a-memchr.o)
 .bss           0x00000000100112f8        0x0 e:/psdk3v2/psdk3v2-master/ps3dev/ppu/bin/../lib/gcc/powerpc64-ps3-elf/4.5.2/../../../../powerpc64-ps3-elf/lib\libc.a(lib_a-memcpy.o)
 .bss           0x00000000100112f8        0x0 e:/psdk3v2/psdk3v2-master/ps3dev/ppu/bin/../lib/gcc/powerpc64-ps3-elf/4.5.2/../../../../powerpc64-ps3-elf/lib\libc.a(lib_a-memset.o)
 .bss           0x00000000100112f8        0x0 e:/psdk3v2/psdk3v2-master/ps3dev/ppu/bin/../lib/gcc/powerpc64-ps3-elf/4.5.2/../../../../powerpc64-ps3-elf/lib\libc.a(lib_a-mlock.o)
 .bss.__malloc_lock_object
                0x00000000100112f8       0x18 e:/psdk3v2/psdk3v2-master/ps3dev/ppu/bin/../lib/gcc/powerpc64-ps3-elf/4.5.2/../../../../powerpc64-ps3-elf/lib\libc.a(lib_a-mlock.o)
 .bss           0x0000000010011310        0x0 e:/psdk3v2/psdk3v2-master/ps3dev/ppu/bin/../lib/gcc/powerpc64-ps3-elf/4.5.2/../../../../powerpc64-ps3-elf/lib\libc.a(lib_a-printf.o)
 .bss           0x0000000010011310        0x0 e:/psdk3v2/psdk3v2-master/ps3dev/ppu/bin/../lib/gcc/powerpc64-ps3-elf/4.5.2/../../../../powerpc64-ps3-elf/lib\libc.a(lib_a-putchar.o)
 .bss           0x0000000010011310        0x0 e:/psdk3v2/psdk3v2-master/ps3dev/ppu/bin/../lib/gcc/powerpc64-ps3-elf/4.5.2/../../../../powerpc64-ps3-elf/lib\libc.a(lib_a-puts.o)
 .bss           0x0000000010011310        0x0 e:/psdk3v2/psdk3v2-master/ps3dev/ppu/bin/../lib/gcc/powerpc64-ps3-elf/4.5.2/../../../../powerpc64-ps3-elf/lib\libc.a(lib_a-rand.o)
 .bss           0x0000000010011310        0x0 e:/psdk3v2/psdk3v2-master/ps3dev/ppu/bin/../lib/gcc/powerpc64-ps3-elf/4.5.2/../../../../powerpc64-ps3-elf/lib\libc.a(lib_a-refill.o)
 .bss           0x0000000010011310        0x0 e:/psdk3v2/psdk3v2-master/ps3dev/ppu/bin/../lib/gcc/powerpc64-ps3-elf/4.5.2/../../../../powerpc64-ps3-elf/lib\libc.a(lib_a-sprintf.o)
 .bss           0x0000000010011310        0x0 e:/psdk3v2/psdk3v2-master/ps3dev/ppu/bin/../lib/gcc/powerpc64-ps3-elf/4.5.2/../../../../powerpc64-ps3-elf/lib\libc.a(lib_a-stdio.o)
 .bss           0x0000000010011310        0x0 e:/psdk3v2/psdk3v2-master/ps3dev/ppu/bin/../lib/gcc/powerpc64-ps3-elf/4.5.2/../../../../powerpc64-ps3-elf/lib\libc.a(lib_a-strlen.o)
 .bss           0x0000000010011310        0x0 e:/psdk3v2/psdk3v2-master/ps3dev/ppu/bin/../lib/gcc/powerpc64-ps3-elf/4.5.2/../../../../powerpc64-ps3-elf/lib\libc.a(lib_a-svfprintf.o)
 .bss           0x0000000010011310        0x0 e:/psdk3v2/psdk3v2-master/ps3dev/ppu/bin/../lib/gcc/powerpc64-ps3-elf/4.5.2/../../../../powerpc64-ps3-elf/lib\libc.a(lib_a-time.o)
 .bss           0x0000000010011310        0x0 e:/psdk3v2/psdk3v2-master/ps3dev/ppu/bin/../lib/gcc/powerpc64-ps3-elf/4.5.2/../../../../powerpc64-ps3-elf/lib\libc.a(lib_a-vfprintf.o)
 .bss           0x0000000010011310        0x0 e:/psdk3v2/psdk3v2-master/ps3dev/ppu/bin/../lib/gcc/powerpc64-ps3-elf/4.5.2/../../../../powerpc64-ps3-elf/lib\libc.a(lib_a-wsetup.o)
 .bss           0x0000000010011310        0x0 e:/psdk3v2/psdk3v2-master/ps3dev/ppu/bin/../lib/gcc/powerpc64-ps3-elf/4.5.2/../../../../powerpc64-ps3-elf/lib\libc.a(lib_a-__call_atexit.o)
 .bss           0x0000000010011310        0x0 e:/psdk3v2/psdk3v2-master/ps3dev/ppu/bin/../lib/gcc/powerpc64-ps3-elf/4.5.2/../../../../powerpc64-ps3-elf/lib\libc.a(lib_a-dtoa.o)
 .bss           0x0000000010011310        0x0 e:/psdk3v2/psdk3v2-master/ps3dev/ppu/bin/../lib/gcc/powerpc64-ps3-elf/4.5.2/../../../../powerpc64-ps3-elf/lib\libc.a(lib_a-flags.o)
 .bss           0x0000000010011310        0x0 e:/psdk3v2/psdk3v2-master/ps3dev/ppu/bin/../lib/gcc/powerpc64-ps3-elf/4.5.2/../../../../powerpc64-ps3-elf/lib\libc.a(lib_a-fvwrite.o)
 .bss           0x0000000010011310        0x0 e:/psdk3v2/psdk3v2-master/ps3dev/ppu/bin/../lib/gcc/powerpc64-ps3-elf/4.5.2/../../../../powerpc64-ps3-elf/lib\libc.a(lib_a-locale.o)
 .bss._PathLocale
                0x0000000010011310        0x8 e:/psdk3v2/psdk3v2-master/ps3dev/ppu/bin/../lib/gcc/powerpc64-ps3-elf/4.5.2/../../../../powerpc64-ps3-elf/lib\libc.a(lib_a-locale.o)
                0x0000000010011310                _PathLocale
 .bss.__nlocale_changed
                0x0000000010011318        0x4 e:/psdk3v2/psdk3v2-master/ps3dev/ppu/bin/../lib/gcc/powerpc64-ps3-elf/4.5.2/../../../../powerpc64-ps3-elf/lib\libc.a(lib_a-locale.o)
                0x0000000010011318                __nlocale_changed
 .bss.__mlocale_changed
                0x000000001001131c        0x4 e:/psdk3v2/psdk3v2-master/ps3dev/ppu/bin/../lib/gcc/powerpc64-ps3-elf/4.5.2/../../../../powerpc64-ps3-elf/lib\libc.a(lib_a-locale.o)
                0x000000001001131c                __mlocale_changed
 .bss           0x0000000010011320        0x0 e:/psdk3v2/psdk3v2-master/ps3dev/ppu/bin/../lib/gcc/powerpc64-ps3-elf/4.5.2/../../../../powerpc64-ps3-elf/lib\libc.a(lib_a-lock_internal.o)
 .bss.metaLock  0x0000000010011320       0x18 e:/psdk3v2/psdk3v2-master/ps3dev/ppu/bin/../lib/gcc/powerpc64-ps3-elf/4.5.2/../../../../powerpc64-ps3-elf/lib\libc.a(lib_a-lock_internal.o)
 .bss           0x0000000010011338        0x0 e:/psdk3v2/psdk3v2-master/ps3dev/ppu/bin/../lib/gcc/powerpc64-ps3-elf/4.5.2/../../../../powerpc64-ps3-elf/lib\libc.a(lib_a-memmove.o)
 .bss           0x0000000010011338        0x0 e:/psdk3v2/psdk3v2-master/ps3dev/ppu/bin/../lib/gcc/powerpc64-ps3-elf/4.5.2/../../../../powerpc64-ps3-elf/lib\libc.a(lib_a-mprec.o)
 .bss           0x0000000010011338        0x0 e:/psdk3v2/psdk3v2-master/ps3dev/ppu/bin/../lib/gcc/powerpc64-ps3-elf/4.5.2/../../../../powerpc64-ps3-elf/lib\libc.a(lib_a-putc.o)
 .bss           0x0000000010011338        0x0 e:/psdk3v2/psdk3v2-master/ps3dev/ppu/bin/../lib/gcc/powerpc64-ps3-elf/4.5.2/../../../../powerpc64-ps3-elf/lib\libc.a(lib_a-reallocr.o)
 .bss           0x0000000010011338        0x0 e:/psdk3v2/psdk3v2-master/ps3dev/ppu/bin/../lib/gcc/powerpc64-ps3-elf/4.5.2/../../../../powerpc64-ps3-elf/lib\libc.a(lib_a-s_fpclassify.o)
 .bss           0x0000000010011338        0x0 e:/psdk3v2/psdk3v2-master/ps3dev/ppu/bin/../lib/gcc/powerpc64-ps3-elf/4.5.2/../../../../powerpc64-ps3-elf/lib\libc.a(lib_a-strcmp.o)
 .bss           0x0000000010011338        0x0 e:/psdk3v2/psdk3v2-master/ps3dev/ppu/bin/../lib/gcc/powerpc64-ps3-elf/4.5.2/../../../../powerpc64-ps3-elf/lib\libc.a(lib_a-svfiprintf.o)
 .bss           0x0000000010011338        0x0 e:/psdk3v2/psdk3v2-master/ps3dev/ppu/bin/../lib/gcc/powerpc64-ps3-elf/4.5.2/../../../../powerpc64-ps3-elf/lib\libc.a(lib_a-vfiprintf.o)
 .bss           0x0000000010011338        0x0 e:/psdk3v2/psdk3v2-master/ps3dev/ppu/bin/../lib/gcc/powerpc64-ps3-elf/4.5.2/../../../../powerpc64-ps3-elf/lib\libc.a(lib_a-wbuf.o)
 .bss           0x0000000010011338        0x0 e:/psdk3v2/psdk3v2-master/ps3dev/ppu/bin/../lib/gcc/powerpc64-ps3-elf/4.5.2/../../../../powerpc64-ps3-elf/lib\libc.a(lib_a-__atexit.o)
 .bss.__atexit_lock
                0x0000000010011338       0x18 e:/psdk3v2/psdk3v2-master/ps3dev/ppu/bin/../lib/gcc/powerpc64-ps3-elf/4.5.2/../../../../powerpc64-ps3-elf/lib\libc.a(lib_a-__atexit.o)
                0x0000000010011338                __atexit_lock
 .bss           0x0000000010011350        0x0 e:/psdk3v2/psdk3v2-master/ps3dev/ppu/bin/../lib/gcc/powerpc64-ps3-elf/4.5.2/../../../../powerpc64-ps3-elf/lib\libc.a(lib_a-abort.o)
 .bss           0x0000000010011350        0x0 e:/psdk3v2/psdk3v2-master/ps3dev/ppu/bin/../lib/gcc/powerpc64-ps3-elf/4.5.2/../../../../powerpc64-ps3-elf/lib\libc.a(lib_a-callocr.o)
 .bss           0x0000000010011350        0x0 e:/psdk3v2/psdk3v2-master/ps3dev/ppu/bin/../lib/gcc/powerpc64-ps3-elf/4.5.2/../../../../powerpc64-ps3-elf/lib\libc.a(lib_a-fputwc.o)
 .bss           0x0000000010011350        0x0 e:/psdk3v2/psdk3v2-master/ps3dev/ppu/bin/../lib/gcc/powerpc64-ps3-elf/4.5.2/../../../../powerpc64-ps3-elf/lib\libc.a(lib_a-signal.o)
 .bss           0x0000000010011350        0x0 e:/psdk3v2/psdk3v2-master/ps3dev/ppu/bin/../lib/gcc/powerpc64-ps3-elf/4.5.2/../../../../powerpc64-ps3-elf/lib\libc.a(lib_a-wcrtomb.o)
 .bss           0x0000000010011350        0x0 e:/psdk3v2/psdk3v2-master/ps3dev/ppu/bin/../lib/gcc/powerpc64-ps3-elf/4.5.2/../../../../powerpc64-ps3-elf/lib\libc.a(lib_a-wctomb_r.o)
 .bss           0x0000000010011350        0x0 e:/PSDK3v2/PSDK3v2-master/psl1ght/ppu/lib\librt.a(sbrk.o)
 .bss.__sbrk_baseaddr
                0x0000000010011350        0x4 e:/PSDK3v2/PSDK3v2-master/psl1ght/ppu/lib\librt.a(sbrk.o)
 *fill*         0x0000000010011354        0x4 00
 .bss.__sbrk_curr_regionentry
                0x0000000010011358        0x8 e:/PSDK3v2/PSDK3v2-master/psl1ght/ppu/lib\librt.a(sbrk.o)
 *fill*         0x0000000010011360       0x20 00
 .bss.__region_list_entries
                0x0000000010011380     0x2020 e:/PSDK3v2/PSDK3v2-master/psl1ght/ppu/lib\librt.a(sbrk.o)
 .bss.__sbrk_spinlock
                0x00000000100133a0        0x4 e:/PSDK3v2/PSDK3v2-master/psl1ght/ppu/lib\librt.a(sbrk.o)
 *fill*         0x00000000100133a4        0x4 00
 .bss.__region_heap
                0x00000000100133a8       0x48 e:/PSDK3v2/PSDK3v2-master/psl1ght/ppu/lib\librt.a(sbrk.o)
 .bss           0x00000000100133f0        0x0 e:/PSDK3v2/PSDK3v2-master/psl1ght/ppu/lib\librt.a(exit.o)
 .bss           0x00000000100133f0        0x0 e:/PSDK3v2/PSDK3v2-master/psl1ght/ppu/lib\librt.a(close.o)
 .bss           0x00000000100133f0        0x0 e:/PSDK3v2/PSDK3v2-master/psl1ght/ppu/lib\librt.a(lseek.o)
 .bss           0x00000000100133f0        0x0 e:/PSDK3v2/PSDK3v2-master/psl1ght/ppu/lib\librt.a(read.o)
 .bss           0x00000000100133f0        0x0 e:/PSDK3v2/PSDK3v2-master/psl1ght/ppu/lib\librt.a(open.o)
 .bss           0x00000000100133f0        0x0 e:/PSDK3v2/PSDK3v2-master/psl1ght/ppu/lib\librt.a(sleep.o)
 .bss           0x00000000100133f0        0x0 e:/PSDK3v2/PSDK3v2-master/psl1ght/ppu/lib\librt.a(write.o)
 .bss           0x00000000100133f0        0x0 e:/PSDK3v2/PSDK3v2-master/psl1ght/ppu/lib\librt.a(fstat.o)
 .bss           0x00000000100133f0        0x0 e:/PSDK3v2/PSDK3v2-master/psl1ght/ppu/lib\librt.a(socket.o)
 .bss           0x00000000100133f0        0x0 e:/PSDK3v2/PSDK3v2-master/psl1ght/ppu/lib\librt.a(lock.o)
 .bss           0x00000000100133f0        0x0 e:/PSDK3v2/PSDK3v2-master/psl1ght/ppu/lib\librt.a(dirent.o)
 .bss           0x00000000100133f0        0x0 e:/PSDK3v2/PSDK3v2-master/psl1ght/ppu/lib\librt.a(mkdir.o)
 .bss           0x00000000100133f0        0x0 e:/PSDK3v2/PSDK3v2-master/psl1ght/ppu/lib\librt.a(times.o)
 .bss           0x00000000100133f0        0x0 e:/PSDK3v2/PSDK3v2-master/psl1ght/ppu/lib\librt.a(umask.o)
 .bss           0x00000000100133f0        0x0 e:/PSDK3v2/PSDK3v2-master/psl1ght/ppu/lib\librt.a(lv2errno.o)
 .bss           0x00000000100133f0        0x0 e:/PSDK3v2/PSDK3v2-master/psl1ght/ppu/lib\librt.a(heap.o)
 .bss           0x00000000100133f0        0x0 e:/PSDK3v2/PSDK3v2-master/psl1ght/ppu/lib\librt.a(chmod.o)
 .bss           0x00000000100133f0        0x0 e:/PSDK3v2/PSDK3v2-master/psl1ght/ppu/lib\librt.a(rmdir.o)
 .bss           0x00000000100133f0        0x0 e:/PSDK3v2/PSDK3v2-master/psl1ght/ppu/lib\librt.a(isatty.o)
 .bss           0x00000000100133f0        0x0 e:/PSDK3v2/PSDK3v2-master/psl1ght/ppu/lib\librt.a(gettod.o)
 .bss           0x00000000100133f0        0x0 e:/PSDK3v2/PSDK3v2-master/psl1ght/ppu/lib\librt.a(settod.o)
 .bss           0x00000000100133f0        0x0 e:/psdk3v2/psdk3v2-master/ps3dev/ppu/bin/../lib/gcc/powerpc64-ps3-elf/4.5.2/../../../../powerpc64-ps3-elf/lib\libsysbase.a(close.o)
 .bss           0x00000000100133f0        0x0 e:/psdk3v2/psdk3v2-master/ps3dev/ppu/bin/../lib/gcc/powerpc64-ps3-elf/4.5.2/../../../../powerpc64-ps3-elf/lib\libsysbase.a(sbrk.o)
 .bss           0x00000000100133f0        0x0 e:/psdk3v2/psdk3v2-master/ps3dev/ppu/bin/../lib/gcc/powerpc64-ps3-elf/4.5.2/../../../../powerpc64-ps3-elf/lib\libsysbase.a(_exit.o)
 .bss           0x00000000100133f0        0x0 e:/psdk3v2/psdk3v2-master/ps3dev/ppu/bin/../lib/gcc/powerpc64-ps3-elf/4.5.2/../../../../powerpc64-ps3-elf/lib\libsysbase.a(fstat.o)
 .bss           0x00000000100133f0        0x0 e:/psdk3v2/psdk3v2-master/ps3dev/ppu/bin/../lib/gcc/powerpc64-ps3-elf/4.5.2/../../../../powerpc64-ps3-elf/lib\libsysbase.a(isatty.o)
 .bss           0x00000000100133f0        0x0 e:/psdk3v2/psdk3v2-master/ps3dev/ppu/bin/../lib/gcc/powerpc64-ps3-elf/4.5.2/../../../../powerpc64-ps3-elf/lib\libsysbase.a(lseek.o)
 .bss           0x00000000100133f0        0x0 e:/psdk3v2/psdk3v2-master/ps3dev/ppu/bin/../lib/gcc/powerpc64-ps3-elf/4.5.2/../../../../powerpc64-ps3-elf/lib\libsysbase.a(open.o)
 .bss           0x00000000100133f0        0x0 e:/psdk3v2/psdk3v2-master/ps3dev/ppu/bin/../lib/gcc/powerpc64-ps3-elf/4.5.2/../../../../powerpc64-ps3-elf/lib\libsysbase.a(read.o)
 .bss           0x00000000100133f0        0x0 e:/psdk3v2/psdk3v2-master/ps3dev/ppu/bin/../lib/gcc/powerpc64-ps3-elf/4.5.2/../../../../powerpc64-ps3-elf/lib\libsysbase.a(write.o)
 .bss           0x00000000100133f0        0x0 e:/psdk3v2/psdk3v2-master/ps3dev/ppu/bin/../lib/gcc/powerpc64-ps3-elf/4.5.2/../../../../powerpc64-ps3-elf/lib\libsysbase.a(lock.o)
 .bss           0x00000000100133f0        0x0 e:/psdk3v2/psdk3v2-master/ps3dev/ppu/bin/../lib/gcc/powerpc64-ps3-elf/4.5.2/../../../../powerpc64-ps3-elf/lib\libsysbase.a(getpid.o)
 .bss           0x00000000100133f0        0x0 e:/psdk3v2/psdk3v2-master/ps3dev/ppu/bin/../lib/gcc/powerpc64-ps3-elf/4.5.2/../../../../powerpc64-ps3-elf/lib\libsysbase.a(kill.o)
 .bss           0x00000000100133f0        0x0 e:/psdk3v2/psdk3v2-master/ps3dev/ppu/bin/../lib/gcc/powerpc64-ps3-elf/4.5.2/../../../../powerpc64-ps3-elf/lib\libsysbase.a(gettod.o)
 .bss           0x00000000100133f0        0x0 e:/psdk3v2/psdk3v2-master/ps3dev/ppu/bin/../lib/gcc/powerpc64-ps3-elf/4.5.2/../../../../powerpc64-ps3-elf/lib\libc.a(lib_a-errno.o)
 .bss           0x00000000100133f0        0x0 e:/psdk3v2/psdk3v2-master/ps3dev/ppu/bin/../lib/gcc/powerpc64-ps3-elf/4.5.2/../../../../powerpc64-ps3-elf/lib\libc.a(lib_a-sscanf.o)
 .bss           0x00000000100133f0        0x0 e:/psdk3v2/psdk3v2-master/ps3dev/ppu/bin/../lib/gcc/powerpc64-ps3-elf/4.5.2/../../../../powerpc64-ps3-elf/lib\libc.a(lib_a-strncpy.o)
 .bss           0x00000000100133f0        0x0 e:/psdk3v2/psdk3v2-master/ps3dev/ppu/bin/../lib/gcc/powerpc64-ps3-elf/4.5.2/../../../../powerpc64-ps3-elf/lib\libc.a(lib_a-svfscanf.o)
 .bss           0x00000000100133f0        0x0 e:/psdk3v2/psdk3v2-master/ps3dev/ppu/bin/../lib/gcc/powerpc64-ps3-elf/4.5.2/../../../../powerpc64-ps3-elf/lib\libc.a(lib_a-ctype_.o)
 .bss           0x00000000100133f0        0x0 e:/psdk3v2/psdk3v2-master/ps3dev/ppu/bin/../lib/gcc/powerpc64-ps3-elf/4.5.2/../../../../powerpc64-ps3-elf/lib\libc.a(lib_a-iswspace.o)
 .bss           0x00000000100133f0        0x0 e:/psdk3v2/psdk3v2-master/ps3dev/ppu/bin/../lib/gcc/powerpc64-ps3-elf/4.5.2/../../../../powerpc64-ps3-elf/lib\libc.a(lib_a-mbrtowc.o)
 .bss           0x00000000100133f0        0x0 e:/psdk3v2/psdk3v2-master/ps3dev/ppu/bin/../lib/gcc/powerpc64-ps3-elf/4.5.2/../../../../powerpc64-ps3-elf/lib\libc.a(lib_a-mbtowc_r.o)
 .bss           0x00000000100133f0        0x0 e:/psdk3v2/psdk3v2-master/ps3dev/ppu/bin/../lib/gcc/powerpc64-ps3-elf/4.5.2/../../../../powerpc64-ps3-elf/lib\libc.a(lib_a-sccl.o)
 .bss           0x00000000100133f0        0x0 e:/psdk3v2/psdk3v2-master/ps3dev/ppu/bin/../lib/gcc/powerpc64-ps3-elf/4.5.2/../../../../powerpc64-ps3-elf/lib\libc.a(lib_a-sf_nan.o)
 .bss           0x00000000100133f0        0x0 e:/psdk3v2/psdk3v2-master/ps3dev/ppu/bin/../lib/gcc/powerpc64-ps3-elf/4.5.2/../../../../powerpc64-ps3-elf/lib\libc.a(lib_a-strtod.o)
 .bss           0x00000000100133f0        0x0 e:/psdk3v2/psdk3v2-master/ps3dev/ppu/bin/../lib/gcc/powerpc64-ps3-elf/4.5.2/../../../../powerpc64-ps3-elf/lib\libc.a(lib_a-strtol.o)
 .bss           0x00000000100133f0        0x0 e:/psdk3v2/psdk3v2-master/ps3dev/ppu/bin/../lib/gcc/powerpc64-ps3-elf/4.5.2/../../../../powerpc64-ps3-elf/lib\libc.a(lib_a-strtoll_r.o)
 .bss           0x00000000100133f0        0x0 e:/psdk3v2/psdk3v2-master/ps3dev/ppu/bin/../lib/gcc/powerpc64-ps3-elf/4.5.2/../../../../powerpc64-ps3-elf/lib\libc.a(lib_a-strtoul.o)
 .bss           0x00000000100133f0        0x0 e:/psdk3v2/psdk3v2-master/ps3dev/ppu/bin/../lib/gcc/powerpc64-ps3-elf/4.5.2/../../../../powerpc64-ps3-elf/lib\libc.a(lib_a-strtoull_r.o)
 .bss           0x00000000100133f0        0x0 e:/psdk3v2/psdk3v2-master/ps3dev/ppu/bin/../lib/gcc/powerpc64-ps3-elf/4.5.2/../../../../powerpc64-ps3-elf/lib\libc.a(lib_a-svfiscanf.o)
 .bss           0x00000000100133f0        0x0 e:/psdk3v2/psdk3v2-master/ps3dev/ppu/bin/../lib/gcc/powerpc64-ps3-elf/4.5.2/../../../../powerpc64-ps3-elf/lib\libc.a(lib_a-ungetc.o)
 .bss           0x00000000100133f0        0x0 e:/psdk3v2/psdk3v2-master/ps3dev/ppu/bin/../lib/gcc/powerpc64-ps3-elf/4.5.2/../../../../powerpc64-ps3-elf/lib\libc.a(lib_a-gdtoa-gethex.o)
 .bss           0x00000000100133f0        0x0 e:/psdk3v2/psdk3v2-master/ps3dev/ppu/bin/../lib/gcc/powerpc64-ps3-elf/4.5.2/../../../../powerpc64-ps3-elf/lib\libc.a(lib_a-gdtoa-hexnan.o)
 .bss           0x00000000100133f0        0x0 e:/psdk3v2/psdk3v2-master/ps3dev/ppu/bin/../lib/gcc/powerpc64-ps3-elf/4.5.2/../../../../powerpc64-ps3-elf/lib\libc.a(lib_a-strncmp.o)
 .bss           0x00000000100133f0        0x0 e:/psdk3v2/psdk3v2-master/ps3dev/ppu/bin/../lib/gcc/powerpc64-ps3-elf/4.5.2/crtend.o
 .bss           0x00000000100133f0        0x0 e:/psdk3v2/psdk3v2-master/ps3dev/ppu/bin/../lib/gcc/powerpc64-ps3-elf/4.5.2/../../../../powerpc64-ps3-elf/lib/lv2-crtn.o
 *(COMMON)
 COMMON         0x00000000100133f0    0x10034 main.o
                0x00000000100133f0                buffer
                0x00000000100233f0                stat1
 *fill*         0x0000000010023424        0x4 00
 COMMON         0x0000000010023428      0x100 e:/psdk3v2/psdk3v2-master/ps3dev/ppu/bin/../lib/gcc/powerpc64-ps3-elf/4.5.2/../../../../powerpc64-ps3-elf/lib\libc.a(lib_a-gdtoa-gethex.o)
                0x0000000010023428                __hexdig
                0x0000000010023528                . = ALIGN (0x8)

.iplt           0x0000000010023528        0x0
 .iplt          0x0000000000000000        0x0 linker stubs
                0x0000000020000000                . = ALIGN (0x10000000)

.rsx_image
 *(.rsx_*)
                0x0000000020000000                _end = .
                0x0000000020000000                __end = .
                0x0000000020000000                PROVIDE (end, .)
                0x0000000020000000                . = ALIGN (0x8)

.stab
 *(.stab)

.stabstr
 *(.stabstr)

.stab.excl
 *(.stab.excl)

.stab.exclstr
 *(.stab.exclstr)

.stab.index
 *(.stab.index)

.stab.indexstr
 *(.stab.indexstr)

.comment        0x0000000000000000       0x11
 *(.comment)
 .comment       0x0000000000000000       0x11 e:/psdk3v2/psdk3v2-master/ps3dev/ppu/bin/../lib/gcc/powerpc64-ps3-elf/4.5.2/crtbegin.o
                                         0x12 (size before relaxing)
 .comment       0x0000000000000000       0x12 e:/psdk3v2/psdk3v2-master/ps3dev/ppu/bin/../lib/gcc/powerpc64-ps3-elf/4.5.2/../../../../powerpc64-ps3-elf/lib/lv2-crt0.o
 .comment       0x0000000000000000       0x12 main.o
 .comment       0x0000000000000000       0x12 ../liblv2.a(sprx.o)
 .comment       0x0000000000000000       0x12 e:/psdk3v2/psdk3v2-master/ps3dev/ppu/bin/../lib/gcc/powerpc64-ps3-elf/4.5.2/../../../../powerpc64-ps3-elf/lib\libsysbase.a(syscalls.o)
 .comment       0x0000000000000000       0x12 e:/psdk3v2/psdk3v2-master/ps3dev/ppu/bin/../lib/gcc/powerpc64-ps3-elf/4.5.2/../../../../powerpc64-ps3-elf/lib\libc.a(lib_a-exit.o)
 .comment       0x0000000000000000       0x12 e:/psdk3v2/psdk3v2-master/ps3dev/ppu/bin/../lib/gcc/powerpc64-ps3-elf/4.5.2/../../../../powerpc64-ps3-elf/lib\libc.a(lib_a-fclose.o)
 .comment       0x0000000000000000       0x12 e:/psdk3v2/psdk3v2-master/ps3dev/ppu/bin/../lib/gcc/powerpc64-ps3-elf/4.5.2/../../../../powerpc64-ps3-elf/lib\libc.a(lib_a-fflush.o)
 .comment       0x0000000000000000       0x12 e:/psdk3v2/psdk3v2-master/ps3dev/ppu/bin/../lib/gcc/powerpc64-ps3-elf/4.5.2/../../../../powerpc64-ps3-elf/lib\libc.a(lib_a-fgets.o)
 .comment       0x0000000000000000       0x12 e:/psdk3v2/psdk3v2-master/ps3dev/ppu/bin/../lib/gcc/powerpc64-ps3-elf/4.5.2/../../../../powerpc64-ps3-elf/lib\libc.a(lib_a-findfp.o)
 .comment       0x0000000000000000       0x12 e:/psdk3v2/psdk3v2-master/ps3dev/ppu/bin/../lib/gcc/powerpc64-ps3-elf/4.5.2/../../../../powerpc64-ps3-elf/lib\libc.a(lib_a-fopen.o)
 .comment       0x0000000000000000       0x12 e:/psdk3v2/psdk3v2-master/ps3dev/ppu/bin/../lib/gcc/powerpc64-ps3-elf/4.5.2/../../../../powerpc64-ps3-elf/lib\libc.a(lib_a-fread.o)
 .comment       0x0000000000000000       0x12 e:/psdk3v2/psdk3v2-master/ps3dev/ppu/bin/../lib/gcc/powerpc64-ps3-elf/4.5.2/../../../../powerpc64-ps3-elf/lib\libc.a(lib_a-freer.o)
 .comment       0x0000000000000000       0x12 e:/psdk3v2/psdk3v2-master/ps3dev/ppu/bin/../lib/gcc/powerpc64-ps3-elf/4.5.2/../../../../powerpc64-ps3-elf/lib\libc.a(lib_a-fseek.o)
 .comment       0x0000000000000000       0x12 e:/psdk3v2/psdk3v2-master/ps3dev/ppu/bin/../lib/gcc/powerpc64-ps3-elf/4.5.2/../../../../powerpc64-ps3-elf/lib\libc.a(lib_a-ftell.o)
 .comment       0x0000000000000000       0x12 e:/psdk3v2/psdk3v2-master/ps3dev/ppu/bin/../lib/gcc/powerpc64-ps3-elf/4.5.2/../../../../powerpc64-ps3-elf/lib\libc.a(lib_a-fwalk.o)
 .comment       0x0000000000000000       0x12 e:/psdk3v2/psdk3v2-master/ps3dev/ppu/bin/../lib/gcc/powerpc64-ps3-elf/4.5.2/../../../../powerpc64-ps3-elf/lib\libc.a(lib_a-fwrite.o)
 .comment       0x0000000000000000       0x12 e:/psdk3v2/psdk3v2-master/ps3dev/ppu/bin/../lib/gcc/powerpc64-ps3-elf/4.5.2/../../../../powerpc64-ps3-elf/lib\libc.a(lib_a-getreent.o)
 .comment       0x0000000000000000       0x12 e:/psdk3v2/psdk3v2-master/ps3dev/ppu/bin/../lib/gcc/powerpc64-ps3-elf/4.5.2/../../../../powerpc64-ps3-elf/lib\libc.a(lib_a-impure.o)
 .comment       0x0000000000000000       0x12 e:/psdk3v2/psdk3v2-master/ps3dev/ppu/bin/../lib/gcc/powerpc64-ps3-elf/4.5.2/../../../../powerpc64-ps3-elf/lib\libc.a(lib_a-lock_recursive.o)
 .comment       0x0000000000000000       0x12 e:/psdk3v2/psdk3v2-master/ps3dev/ppu/bin/../lib/gcc/powerpc64-ps3-elf/4.5.2/../../../../powerpc64-ps3-elf/lib\libc.a(lib_a-makebuf.o)
 .comment       0x0000000000000000       0x12 e:/psdk3v2/psdk3v2-master/ps3dev/ppu/bin/../lib/gcc/powerpc64-ps3-elf/4.5.2/../../../../powerpc64-ps3-elf/lib\libc.a(lib_a-malloc.o)
 .comment       0x0000000000000000       0x12 e:/psdk3v2/psdk3v2-master/ps3dev/ppu/bin/../lib/gcc/powerpc64-ps3-elf/4.5.2/../../../../powerpc64-ps3-elf/lib\libc.a(lib_a-mallocr.o)
 .comment       0x0000000000000000       0x12 e:/psdk3v2/psdk3v2-master/ps3dev/ppu/bin/../lib/gcc/powerpc64-ps3-elf/4.5.2/../../../../powerpc64-ps3-elf/lib\libc.a(lib_a-memchr.o)
 .comment       0x0000000000000000       0x12 e:/psdk3v2/psdk3v2-master/ps3dev/ppu/bin/../lib/gcc/powerpc64-ps3-elf/4.5.2/../../../../powerpc64-ps3-elf/lib\libc.a(lib_a-memcpy.o)
 .comment       0x0000000000000000       0x12 e:/psdk3v2/psdk3v2-master/ps3dev/ppu/bin/../lib/gcc/powerpc64-ps3-elf/4.5.2/../../../../powerpc64-ps3-elf/lib\libc.a(lib_a-memset.o)
 .comment       0x0000000000000000       0x12 e:/psdk3v2/psdk3v2-master/ps3dev/ppu/bin/../lib/gcc/powerpc64-ps3-elf/4.5.2/../../../../powerpc64-ps3-elf/lib\libc.a(lib_a-mlock.o)
 .comment       0x0000000000000000       0x12 e:/psdk3v2/psdk3v2-master/ps3dev/ppu/bin/../lib/gcc/powerpc64-ps3-elf/4.5.2/../../../../powerpc64-ps3-elf/lib\libc.a(lib_a-printf.o)
 .comment       0x0000000000000000       0x12 e:/psdk3v2/psdk3v2-master/ps3dev/ppu/bin/../lib/gcc/powerpc64-ps3-elf/4.5.2/../../../../powerpc64-ps3-elf/lib\libc.a(lib_a-putchar.o)
 .comment       0x0000000000000000       0x12 e:/psdk3v2/psdk3v2-master/ps3dev/ppu/bin/../lib/gcc/powerpc64-ps3-elf/4.5.2/../../../../powerpc64-ps3-elf/lib\libc.a(lib_a-puts.o)
 .comment       0x0000000000000000       0x12 e:/psdk3v2/psdk3v2-master/ps3dev/ppu/bin/../lib/gcc/powerpc64-ps3-elf/4.5.2/../../../../powerpc64-ps3-elf/lib\libc.a(lib_a-rand.o)
 .comment       0x0000000000000000       0x12 e:/psdk3v2/psdk3v2-master/ps3dev/ppu/bin/../lib/gcc/powerpc64-ps3-elf/4.5.2/../../../../powerpc64-ps3-elf/lib\libc.a(lib_a-refill.o)
 .comment       0x0000000000000000       0x12 e:/psdk3v2/psdk3v2-master/ps3dev/ppu/bin/../lib/gcc/powerpc64-ps3-elf/4.5.2/../../../../powerpc64-ps3-elf/lib\libc.a(lib_a-sprintf.o)
 .comment       0x0000000000000000       0x12 e:/psdk3v2/psdk3v2-master/ps3dev/ppu/bin/../lib/gcc/powerpc64-ps3-elf/4.5.2/../../../../powerpc64-ps3-elf/lib\libc.a(lib_a-stdio.o)
 .comment       0x0000000000000000       0x12 e:/psdk3v2/psdk3v2-master/ps3dev/ppu/bin/../lib/gcc/powerpc64-ps3-elf/4.5.2/../../../../powerpc64-ps3-elf/lib\libc.a(lib_a-strlen.o)
 .comment       0x0000000000000000       0x12 e:/psdk3v2/psdk3v2-master/ps3dev/ppu/bin/../lib/gcc/powerpc64-ps3-elf/4.5.2/../../../../powerpc64-ps3-elf/lib\libc.a(lib_a-svfprintf.o)
 .comment       0x0000000000000000       0x12 e:/psdk3v2/psdk3v2-master/ps3dev/ppu/bin/../lib/gcc/powerpc64-ps3-elf/4.5.2/../../../../powerpc64-ps3-elf/lib\libc.a(lib_a-time.o)
 .comment       0x0000000000000000       0x12 e:/psdk3v2/psdk3v2-master/ps3dev/ppu/bin/../lib/gcc/powerpc64-ps3-elf/4.5.2/../../../../powerpc64-ps3-elf/lib\libc.a(lib_a-vfprintf.o)
 .comment       0x0000000000000000       0x12 e:/psdk3v2/psdk3v2-master/ps3dev/ppu/bin/../lib/gcc/powerpc64-ps3-elf/4.5.2/../../../../powerpc64-ps3-elf/lib\libc.a(lib_a-wsetup.o)
 .comment       0x0000000000000000       0x12 e:/psdk3v2/psdk3v2-master/ps3dev/ppu/bin/../lib/gcc/powerpc64-ps3-elf/4.5.2/../../../../powerpc64-ps3-elf/lib\libc.a(lib_a-__call_atexit.o)
 .comment       0x0000000000000000       0x12 e:/psdk3v2/psdk3v2-master/ps3dev/ppu/bin/../lib/gcc/powerpc64-ps3-elf/4.5.2/../../../../powerpc64-ps3-elf/lib\libc.a(lib_a-dtoa.o)
 .comment       0x0000000000000000       0x12 e:/psdk3v2/psdk3v2-master/ps3dev/ppu/bin/../lib/gcc/powerpc64-ps3-elf/4.5.2/../../../../powerpc64-ps3-elf/lib\libc.a(lib_a-flags.o)
 .comment       0x0000000000000000       0x12 e:/psdk3v2/psdk3v2-master/ps3dev/ppu/bin/../lib/gcc/powerpc64-ps3-elf/4.5.2/../../../../powerpc64-ps3-elf/lib\libc.a(lib_a-fvwrite.o)
 .comment       0x0000000000000000       0x12 e:/psdk3v2/psdk3v2-master/ps3dev/ppu/bin/../lib/gcc/powerpc64-ps3-elf/4.5.2/../../../../powerpc64-ps3-elf/lib\libc.a(lib_a-locale.o)
 .comment       0x0000000000000000       0x12 e:/psdk3v2/psdk3v2-master/ps3dev/ppu/bin/../lib/gcc/powerpc64-ps3-elf/4.5.2/../../../../powerpc64-ps3-elf/lib\libc.a(lib_a-lock_internal.o)
 .comment       0x0000000000000000       0x12 e:/psdk3v2/psdk3v2-master/ps3dev/ppu/bin/../lib/gcc/powerpc64-ps3-elf/4.5.2/../../../../powerpc64-ps3-elf/lib\libc.a(lib_a-memmove.o)
 .comment       0x0000000000000000       0x12 e:/psdk3v2/psdk3v2-master/ps3dev/ppu/bin/../lib/gcc/powerpc64-ps3-elf/4.5.2/../../../../powerpc64-ps3-elf/lib\libc.a(lib_a-mprec.o)
 .comment       0x0000000000000000       0x12 e:/psdk3v2/psdk3v2-master/ps3dev/ppu/bin/../lib/gcc/powerpc64-ps3-elf/4.5.2/../../../../powerpc64-ps3-elf/lib\libc.a(lib_a-putc.o)
 .comment       0x0000000000000000       0x12 e:/psdk3v2/psdk3v2-master/ps3dev/ppu/bin/../lib/gcc/powerpc64-ps3-elf/4.5.2/../../../../powerpc64-ps3-elf/lib\libc.a(lib_a-reallocr.o)
 .comment       0x0000000000000000       0x12 e:/psdk3v2/psdk3v2-master/ps3dev/ppu/bin/../lib/gcc/powerpc64-ps3-elf/4.5.2/../../../../powerpc64-ps3-elf/lib\libc.a(lib_a-s_fpclassify.o)
 .comment       0x0000000000000000       0x12 e:/psdk3v2/psdk3v2-master/ps3dev/ppu/bin/../lib/gcc/powerpc64-ps3-elf/4.5.2/../../../../powerpc64-ps3-elf/lib\libc.a(lib_a-strcmp.o)
 .comment       0x0000000000000000       0x12 e:/psdk3v2/psdk3v2-master/ps3dev/ppu/bin/../lib/gcc/powerpc64-ps3-elf/4.5.2/../../../../powerpc64-ps3-elf/lib\libc.a(lib_a-svfiprintf.o)
 .comment       0x0000000000000000       0x12 e:/psdk3v2/psdk3v2-master/ps3dev/ppu/bin/../lib/gcc/powerpc64-ps3-elf/4.5.2/../../../../powerpc64-ps3-elf/lib\libc.a(lib_a-vfiprintf.o)
 .comment       0x0000000000000000       0x12 e:/psdk3v2/psdk3v2-master/ps3dev/ppu/bin/../lib/gcc/powerpc64-ps3-elf/4.5.2/../../../../powerpc64-ps3-elf/lib\libc.a(lib_a-wbuf.o)
 .comment       0x0000000000000000       0x12 e:/psdk3v2/psdk3v2-master/ps3dev/ppu/bin/../lib/gcc/powerpc64-ps3-elf/4.5.2/../../../../powerpc64-ps3-elf/lib\libc.a(lib_a-__atexit.o)
 .comment       0x0000000000000000       0x12 e:/psdk3v2/psdk3v2-master/ps3dev/ppu/bin/../lib/gcc/powerpc64-ps3-elf/4.5.2/../../../../powerpc64-ps3-elf/lib\libc.a(lib_a-abort.o)
 .comment       0x0000000000000000       0x12 e:/psdk3v2/psdk3v2-master/ps3dev/ppu/bin/../lib/gcc/powerpc64-ps3-elf/4.5.2/../../../../powerpc64-ps3-elf/lib\libc.a(lib_a-callocr.o)
 .comment       0x0000000000000000       0x12 e:/psdk3v2/psdk3v2-master/ps3dev/ppu/bin/../lib/gcc/powerpc64-ps3-elf/4.5.2/../../../../powerpc64-ps3-elf/lib\libc.a(lib_a-fputwc.o)
 .comment       0x0000000000000000       0x12 e:/psdk3v2/psdk3v2-master/ps3dev/ppu/bin/../lib/gcc/powerpc64-ps3-elf/4.5.2/../../../../powerpc64-ps3-elf/lib\libc.a(lib_a-signal.o)
 .comment       0x0000000000000000       0x12 e:/psdk3v2/psdk3v2-master/ps3dev/ppu/bin/../lib/gcc/powerpc64-ps3-elf/4.5.2/../../../../powerpc64-ps3-elf/lib\libc.a(lib_a-wcrtomb.o)
 .comment       0x0000000000000000       0x12 e:/psdk3v2/psdk3v2-master/ps3dev/ppu/bin/../lib/gcc/powerpc64-ps3-elf/4.5.2/../../../../powerpc64-ps3-elf/lib\libc.a(lib_a-wctomb_r.o)
 .comment       0x0000000000000000       0x12 e:/PSDK3v2/PSDK3v2-master/psl1ght/ppu/lib\librt.a(sbrk.o)
 .comment       0x0000000000000000       0x12 e:/PSDK3v2/PSDK3v2-master/psl1ght/ppu/lib\librt.a(exit.o)
 .comment       0x0000000000000000       0x12 e:/PSDK3v2/PSDK3v2-master/psl1ght/ppu/lib\librt.a(close.o)
 .comment       0x0000000000000000       0x12 e:/PSDK3v2/PSDK3v2-master/psl1ght/ppu/lib\librt.a(lseek.o)
 .comment       0x0000000000000000       0x12 e:/PSDK3v2/PSDK3v2-master/psl1ght/ppu/lib\librt.a(read.o)
 .comment       0x0000000000000000       0x12 e:/PSDK3v2/PSDK3v2-master/psl1ght/ppu/lib\librt.a(open.o)
 .comment       0x0000000000000000       0x12 e:/PSDK3v2/PSDK3v2-master/psl1ght/ppu/lib\librt.a(sleep.o)
 .comment       0x0000000000000000       0x12 e:/PSDK3v2/PSDK3v2-master/psl1ght/ppu/lib\librt.a(write.o)
 .comment       0x0000000000000000       0x12 e:/PSDK3v2/PSDK3v2-master/psl1ght/ppu/lib\librt.a(fstat.o)
 .comment       0x0000000000000000       0x12 e:/PSDK3v2/PSDK3v2-master/psl1ght/ppu/lib\librt.a(socket.o)
 .comment       0x0000000000000000       0x12 e:/PSDK3v2/PSDK3v2-master/psl1ght/ppu/lib\librt.a(lock.o)
 .comment       0x0000000000000000       0x12 e:/PSDK3v2/PSDK3v2-master/psl1ght/ppu/lib\librt.a(dirent.o)
 .comment       0x0000000000000000       0x12 e:/PSDK3v2/PSDK3v2-master/psl1ght/ppu/lib\librt.a(mkdir.o)
 .comment       0x0000000000000000       0x12 e:/PSDK3v2/PSDK3v2-master/psl1ght/ppu/lib\librt.a(times.o)
 .comment       0x0000000000000000       0x12 e:/PSDK3v2/PSDK3v2-master/psl1ght/ppu/lib\librt.a(umask.o)
 .comment       0x0000000000000000       0x12 e:/PSDK3v2/PSDK3v2-master/psl1ght/ppu/lib\librt.a(lv2errno.o)
 .comment       0x0000000000000000       0x12 e:/PSDK3v2/PSDK3v2-master/psl1ght/ppu/lib\librt.a(heap.o)
 .comment       0x0000000000000000       0x12 e:/PSDK3v2/PSDK3v2-master/psl1ght/ppu/lib\librt.a(chmod.o)
 .comment       0x0000000000000000       0x12 e:/PSDK3v2/PSDK3v2-master/psl1ght/ppu/lib\librt.a(rmdir.o)
 .comment       0x0000000000000000       0x12 e:/PSDK3v2/PSDK3v2-master/psl1ght/ppu/lib\librt.a(isatty.o)
 .comment       0x0000000000000000       0x12 e:/PSDK3v2/PSDK3v2-master/psl1ght/ppu/lib\librt.a(gettod.o)
 .comment       0x0000000000000000       0x12 e:/PSDK3v2/PSDK3v2-master/psl1ght/ppu/lib\librt.a(settod.o)
 .comment       0x0000000000000000       0x12 e:/psdk3v2/psdk3v2-master/ps3dev/ppu/bin/../lib/gcc/powerpc64-ps3-elf/4.5.2/../../../../powerpc64-ps3-elf/lib\libsysbase.a(close.o)
 .comment       0x0000000000000000       0x12 e:/psdk3v2/psdk3v2-master/ps3dev/ppu/bin/../lib/gcc/powerpc64-ps3-elf/4.5.2/../../../../powerpc64-ps3-elf/lib\libsysbase.a(sbrk.o)
 .comment       0x0000000000000000       0x12 e:/psdk3v2/psdk3v2-master/ps3dev/ppu/bin/../lib/gcc/powerpc64-ps3-elf/4.5.2/../../../../powerpc64-ps3-elf/lib\libsysbase.a(_exit.o)
 .comment       0x0000000000000000       0x12 e:/psdk3v2/psdk3v2-master/ps3dev/ppu/bin/../lib/gcc/powerpc64-ps3-elf/4.5.2/../../../../powerpc64-ps3-elf/lib\libsysbase.a(fstat.o)
 .comment       0x0000000000000000       0x12 e:/psdk3v2/psdk3v2-master/ps3dev/ppu/bin/../lib/gcc/powerpc64-ps3-elf/4.5.2/../../../../powerpc64-ps3-elf/lib\libsysbase.a(isatty.o)
 .comment       0x0000000000000000       0x12 e:/psdk3v2/psdk3v2-master/ps3dev/ppu/bin/../lib/gcc/powerpc64-ps3-elf/4.5.2/../../../../powerpc64-ps3-elf/lib\libsysbase.a(lseek.o)
 .comment       0x0000000000000000       0x12 e:/psdk3v2/psdk3v2-master/ps3dev/ppu/bin/../lib/gcc/powerpc64-ps3-elf/4.5.2/../../../../powerpc64-ps3-elf/lib\libsysbase.a(open.o)
 .comment       0x0000000000000000       0x12 e:/psdk3v2/psdk3v2-master/ps3dev/ppu/bin/../lib/gcc/powerpc64-ps3-elf/4.5.2/../../../../powerpc64-ps3-elf/lib\libsysbase.a(read.o)
 .comment       0x0000000000000000       0x12 e:/psdk3v2/psdk3v2-master/ps3dev/ppu/bin/../lib/gcc/powerpc64-ps3-elf/4.5.2/../../../../powerpc64-ps3-elf/lib\libsysbase.a(write.o)
 .comment       0x0000000000000000       0x12 e:/psdk3v2/psdk3v2-master/ps3dev/ppu/bin/../lib/gcc/powerpc64-ps3-elf/4.5.2/../../../../powerpc64-ps3-elf/lib\libsysbase.a(lock.o)
 .comment       0x0000000000000000       0x12 e:/psdk3v2/psdk3v2-master/ps3dev/ppu/bin/../lib/gcc/powerpc64-ps3-elf/4.5.2/../../../../powerpc64-ps3-elf/lib\libsysbase.a(getpid.o)
 .comment       0x0000000000000000       0x12 e:/psdk3v2/psdk3v2-master/ps3dev/ppu/bin/../lib/gcc/powerpc64-ps3-elf/4.5.2/../../../../powerpc64-ps3-elf/lib\libsysbase.a(kill.o)
 .comment       0x0000000000000000       0x12 e:/psdk3v2/psdk3v2-master/ps3dev/ppu/bin/../lib/gcc/powerpc64-ps3-elf/4.5.2/../../../../powerpc64-ps3-elf/lib\libsysbase.a(gettod.o)
 .comment       0x0000000000000000       0x12 e:/psdk3v2/psdk3v2-master/ps3dev/ppu/bin/../lib/gcc/powerpc64-ps3-elf/4.5.2/../../../../powerpc64-ps3-elf/lib\libc.a(lib_a-errno.o)
 .comment       0x0000000000000000       0x12 e:/psdk3v2/psdk3v2-master/ps3dev/ppu/bin/../lib/gcc/powerpc64-ps3-elf/4.5.2/../../../../powerpc64-ps3-elf/lib\libc.a(lib_a-sscanf.o)
 .comment       0x0000000000000000       0x12 e:/psdk3v2/psdk3v2-master/ps3dev/ppu/bin/../lib/gcc/powerpc64-ps3-elf/4.5.2/../../../../powerpc64-ps3-elf/lib\libc.a(lib_a-strncpy.o)
 .comment       0x0000000000000000       0x12 e:/psdk3v2/psdk3v2-master/ps3dev/ppu/bin/../lib/gcc/powerpc64-ps3-elf/4.5.2/../../../../powerpc64-ps3-elf/lib\libc.a(lib_a-svfscanf.o)
 .comment       0x0000000000000000       0x12 e:/psdk3v2/psdk3v2-master/ps3dev/ppu/bin/../lib/gcc/powerpc64-ps3-elf/4.5.2/../../../../powerpc64-ps3-elf/lib\libc.a(lib_a-ctype_.o)
 .comment       0x0000000000000000       0x12 e:/psdk3v2/psdk3v2-master/ps3dev/ppu/bin/../lib/gcc/powerpc64-ps3-elf/4.5.2/../../../../powerpc64-ps3-elf/lib\libc.a(lib_a-iswspace.o)
 .comment       0x0000000000000000       0x12 e:/psdk3v2/psdk3v2-master/ps3dev/ppu/bin/../lib/gcc/powerpc64-ps3-elf/4.5.2/../../../../powerpc64-ps3-elf/lib\libc.a(lib_a-mbrtowc.o)
 .comment       0x0000000000000000       0x12 e:/psdk3v2/psdk3v2-master/ps3dev/ppu/bin/../lib/gcc/powerpc64-ps3-elf/4.5.2/../../../../powerpc64-ps3-elf/lib\libc.a(lib_a-mbtowc_r.o)
 .comment       0x0000000000000000       0x12 e:/psdk3v2/psdk3v2-master/ps3dev/ppu/bin/../lib/gcc/powerpc64-ps3-elf/4.5.2/../../../../powerpc64-ps3-elf/lib\libc.a(lib_a-sccl.o)
 .comment       0x0000000000000000       0x12 e:/psdk3v2/psdk3v2-master/ps3dev/ppu/bin/../lib/gcc/powerpc64-ps3-elf/4.5.2/../../../../powerpc64-ps3-elf/lib\libc.a(lib_a-sf_nan.o)
 .comment       0x0000000000000000       0x12 e:/psdk3v2/psdk3v2-master/ps3dev/ppu/bin/../lib/gcc/powerpc64-ps3-elf/4.5.2/../../../../powerpc64-ps3-elf/lib\libc.a(lib_a-strtod.o)
 .comment       0x0000000000000000       0x12 e:/psdk3v2/psdk3v2-master/ps3dev/ppu/bin/../lib/gcc/powerpc64-ps3-elf/4.5.2/../../../../powerpc64-ps3-elf/lib\libc.a(lib_a-strtol.o)
 .comment       0x0000000000000000       0x12 e:/psdk3v2/psdk3v2-master/ps3dev/ppu/bin/../lib/gcc/powerpc64-ps3-elf/4.5.2/../../../../powerpc64-ps3-elf/lib\libc.a(lib_a-strtoll_r.o)
 .comment       0x0000000000000000       0x12 e:/psdk3v2/psdk3v2-master/ps3dev/ppu/bin/../lib/gcc/powerpc64-ps3-elf/4.5.2/../../../../powerpc64-ps3-elf/lib\libc.a(lib_a-strtoul.o)
 .comment       0x0000000000000000       0x12 e:/psdk3v2/psdk3v2-master/ps3dev/ppu/bin/../lib/gcc/powerpc64-ps3-elf/4.5.2/../../../../powerpc64-ps3-elf/lib\libc.a(lib_a-strtoull_r.o)
 .comment       0x0000000000000000       0x12 e:/psdk3v2/psdk3v2-master/ps3dev/ppu/bin/../lib/gcc/powerpc64-ps3-elf/4.5.2/../../../../powerpc64-ps3-elf/lib\libc.a(lib_a-svfiscanf.o)
 .comment       0x0000000000000000       0x12 e:/psdk3v2/psdk3v2-master/ps3dev/ppu/bin/../lib/gcc/powerpc64-ps3-elf/4.5.2/../../../../powerpc64-ps3-elf/lib\libc.a(lib_a-ungetc.o)
 .comment       0x0000000000000000       0x12 e:/psdk3v2/psdk3v2-master/ps3dev/ppu/bin/../lib/gcc/powerpc64-ps3-elf/4.5.2/../../../../powerpc64-ps3-elf/lib\libc.a(lib_a-gdtoa-gethex.o)
 .comment       0x0000000000000000       0x12 e:/psdk3v2/psdk3v2-master/ps3dev/ppu/bin/../lib/gcc/powerpc64-ps3-elf/4.5.2/../../../../powerpc64-ps3-elf/lib\libc.a(lib_a-gdtoa-hexnan.o)
 .comment       0x0000000000000000       0x12 e:/psdk3v2/psdk3v2-master/ps3dev/ppu/bin/../lib/gcc/powerpc64-ps3-elf/4.5.2/../../../../powerpc64-ps3-elf/lib\libc.a(lib_a-strncmp.o)
 .comment       0x0000000000000000       0x12 e:/psdk3v2/psdk3v2-master/ps3dev/ppu/bin/../lib/gcc/powerpc64-ps3-elf/4.5.2/crtend.o

.debug
 *(.debug)

.line
 *(.line)

.debug_srcinfo
 *(.debug_srcinfo)

.debug_sfnames
 *(.debug_sfnames)

.debug_aranges  0x0000000000000000     0x1690
 *(.debug_aranges)
 .debug_aranges
                0x0000000000000000       0x30 e:/psdk3v2/psdk3v2-master/ps3dev/ppu/bin/../lib/gcc/powerpc64-ps3-elf/4.5.2/../../../../powerpc64-ps3-elf/lib\libc.a(lib_a-exit.o)
 .debug_aranges
                0x0000000000000030       0x40 e:/psdk3v2/psdk3v2-master/ps3dev/ppu/bin/../lib/gcc/powerpc64-ps3-elf/4.5.2/../../../../powerpc64-ps3-elf/lib\libc.a(lib_a-fclose.o)
 .debug_aranges
                0x0000000000000070       0x40 e:/psdk3v2/psdk3v2-master/ps3dev/ppu/bin/../lib/gcc/powerpc64-ps3-elf/4.5.2/../../../../powerpc64-ps3-elf/lib\libc.a(lib_a-fflush.o)
 .debug_aranges
                0x00000000000000b0       0x40 e:/psdk3v2/psdk3v2-master/ps3dev/ppu/bin/../lib/gcc/powerpc64-ps3-elf/4.5.2/../../../../powerpc64-ps3-elf/lib\libc.a(lib_a-fgets.o)
 .debug_aranges
                0x00000000000000f0       0xf0 e:/psdk3v2/psdk3v2-master/ps3dev/ppu/bin/../lib/gcc/powerpc64-ps3-elf/4.5.2/../../../../powerpc64-ps3-elf/lib\libc.a(lib_a-findfp.o)
 .debug_aranges
                0x00000000000001e0       0x40 e:/psdk3v2/psdk3v2-master/ps3dev/ppu/bin/../lib/gcc/powerpc64-ps3-elf/4.5.2/../../../../powerpc64-ps3-elf/lib\libc.a(lib_a-fopen.o)
 .debug_aranges
                0x0000000000000220       0x40 e:/psdk3v2/psdk3v2-master/ps3dev/ppu/bin/../lib/gcc/powerpc64-ps3-elf/4.5.2/../../../../powerpc64-ps3-elf/lib\libc.a(lib_a-fread.o)
 .debug_aranges
                0x0000000000000260       0x40 e:/psdk3v2/psdk3v2-master/ps3dev/ppu/bin/../lib/gcc/powerpc64-ps3-elf/4.5.2/../../../../powerpc64-ps3-elf/lib\libc.a(lib_a-freer.o)
 .debug_aranges
                0x00000000000002a0       0x40 e:/psdk3v2/psdk3v2-master/ps3dev/ppu/bin/../lib/gcc/powerpc64-ps3-elf/4.5.2/../../../../powerpc64-ps3-elf/lib\libc.a(lib_a-fseek.o)
 .debug_aranges
                0x00000000000002e0       0x40 e:/psdk3v2/psdk3v2-master/ps3dev/ppu/bin/../lib/gcc/powerpc64-ps3-elf/4.5.2/../../../../powerpc64-ps3-elf/lib\libc.a(lib_a-ftell.o)
 .debug_aranges
                0x0000000000000320       0x40 e:/psdk3v2/psdk3v2-master/ps3dev/ppu/bin/../lib/gcc/powerpc64-ps3-elf/4.5.2/../../../../powerpc64-ps3-elf/lib\libc.a(lib_a-fwalk.o)
 .debug_aranges
                0x0000000000000360       0x40 e:/psdk3v2/psdk3v2-master/ps3dev/ppu/bin/../lib/gcc/powerpc64-ps3-elf/4.5.2/../../../../powerpc64-ps3-elf/lib\libc.a(lib_a-fwrite.o)
 .debug_aranges
                0x00000000000003a0       0x30 e:/psdk3v2/psdk3v2-master/ps3dev/ppu/bin/../lib/gcc/powerpc64-ps3-elf/4.5.2/../../../../powerpc64-ps3-elf/lib\libc.a(lib_a-getreent.o)
 .debug_aranges
                0x00000000000003d0       0x70 e:/psdk3v2/psdk3v2-master/ps3dev/ppu/bin/../lib/gcc/powerpc64-ps3-elf/4.5.2/../../../../powerpc64-ps3-elf/lib\libc.a(lib_a-lock_recursive.o)
 .debug_aranges
                0x0000000000000440       0x30 e:/psdk3v2/psdk3v2-master/ps3dev/ppu/bin/../lib/gcc/powerpc64-ps3-elf/4.5.2/../../../../powerpc64-ps3-elf/lib\libc.a(lib_a-makebuf.o)
 .debug_aranges
                0x0000000000000470       0x40 e:/psdk3v2/psdk3v2-master/ps3dev/ppu/bin/../lib/gcc/powerpc64-ps3-elf/4.5.2/../../../../powerpc64-ps3-elf/lib\libc.a(lib_a-malloc.o)
 .debug_aranges
                0x00000000000004b0       0x30 e:/psdk3v2/psdk3v2-master/ps3dev/ppu/bin/../lib/gcc/powerpc64-ps3-elf/4.5.2/../../../../powerpc64-ps3-elf/lib\libc.a(lib_a-mallocr.o)
 .debug_aranges
                0x00000000000004e0       0x30 e:/psdk3v2/psdk3v2-master/ps3dev/ppu/bin/../lib/gcc/powerpc64-ps3-elf/4.5.2/../../../../powerpc64-ps3-elf/lib\libc.a(lib_a-memchr.o)
 .debug_aranges
                0x0000000000000510       0x30 e:/psdk3v2/psdk3v2-master/ps3dev/ppu/bin/../lib/gcc/powerpc64-ps3-elf/4.5.2/../../../../powerpc64-ps3-elf/lib\libc.a(lib_a-memcpy.o)
 .debug_aranges
                0x0000000000000540       0x30 e:/psdk3v2/psdk3v2-master/ps3dev/ppu/bin/../lib/gcc/powerpc64-ps3-elf/4.5.2/../../../../powerpc64-ps3-elf/lib\libc.a(lib_a-memset.o)
 .debug_aranges
                0x0000000000000570       0x40 e:/psdk3v2/psdk3v2-master/ps3dev/ppu/bin/../lib/gcc/powerpc64-ps3-elf/4.5.2/../../../../powerpc64-ps3-elf/lib\libc.a(lib_a-mlock.o)
 .debug_aranges
                0x00000000000005b0       0x40 e:/psdk3v2/psdk3v2-master/ps3dev/ppu/bin/../lib/gcc/powerpc64-ps3-elf/4.5.2/../../../../powerpc64-ps3-elf/lib\libc.a(lib_a-printf.o)
 .debug_aranges
                0x00000000000005f0       0x40 e:/psdk3v2/psdk3v2-master/ps3dev/ppu/bin/../lib/gcc/powerpc64-ps3-elf/4.5.2/../../../../powerpc64-ps3-elf/lib\libc.a(lib_a-putchar.o)
 .debug_aranges
                0x0000000000000630       0x40 e:/psdk3v2/psdk3v2-master/ps3dev/ppu/bin/../lib/gcc/powerpc64-ps3-elf/4.5.2/../../../../powerpc64-ps3-elf/lib\libc.a(lib_a-puts.o)
 .debug_aranges
                0x0000000000000670       0x40 e:/psdk3v2/psdk3v2-master/ps3dev/ppu/bin/../lib/gcc/powerpc64-ps3-elf/4.5.2/../../../../powerpc64-ps3-elf/lib\libc.a(lib_a-rand.o)
 .debug_aranges
                0x00000000000006b0       0x40 e:/psdk3v2/psdk3v2-master/ps3dev/ppu/bin/../lib/gcc/powerpc64-ps3-elf/4.5.2/../../../../powerpc64-ps3-elf/lib\libc.a(lib_a-refill.o)
 .debug_aranges
                0x00000000000006f0       0x40 e:/psdk3v2/psdk3v2-master/ps3dev/ppu/bin/../lib/gcc/powerpc64-ps3-elf/4.5.2/../../../../powerpc64-ps3-elf/lib\libc.a(lib_a-sprintf.o)
 .debug_aranges
                0x0000000000000730       0x70 e:/psdk3v2/psdk3v2-master/ps3dev/ppu/bin/../lib/gcc/powerpc64-ps3-elf/4.5.2/../../../../powerpc64-ps3-elf/lib\libc.a(lib_a-stdio.o)
 .debug_aranges
                0x00000000000007a0       0x30 e:/psdk3v2/psdk3v2-master/ps3dev/ppu/bin/../lib/gcc/powerpc64-ps3-elf/4.5.2/../../../../powerpc64-ps3-elf/lib\libc.a(lib_a-strlen.o)
 .debug_aranges
                0x00000000000007d0       0x30 e:/psdk3v2/psdk3v2-master/ps3dev/ppu/bin/../lib/gcc/powerpc64-ps3-elf/4.5.2/../../../../powerpc64-ps3-elf/lib\libc.a(lib_a-svfprintf.o)
 .debug_aranges
                0x0000000000000800       0x30 e:/psdk3v2/psdk3v2-master/ps3dev/ppu/bin/../lib/gcc/powerpc64-ps3-elf/4.5.2/../../../../powerpc64-ps3-elf/lib\libc.a(lib_a-time.o)
 .debug_aranges
                0x0000000000000830       0x40 e:/psdk3v2/psdk3v2-master/ps3dev/ppu/bin/../lib/gcc/powerpc64-ps3-elf/4.5.2/../../../../powerpc64-ps3-elf/lib\libc.a(lib_a-vfprintf.o)
 .debug_aranges
                0x0000000000000870       0x30 e:/psdk3v2/psdk3v2-master/ps3dev/ppu/bin/../lib/gcc/powerpc64-ps3-elf/4.5.2/../../../../powerpc64-ps3-elf/lib\libc.a(lib_a-wsetup.o)
 .debug_aranges
                0x00000000000008a0       0x30 e:/psdk3v2/psdk3v2-master/ps3dev/ppu/bin/../lib/gcc/powerpc64-ps3-elf/4.5.2/../../../../powerpc64-ps3-elf/lib\libc.a(lib_a-__call_atexit.o)
 .debug_aranges
                0x00000000000008d0       0x40 e:/psdk3v2/psdk3v2-master/ps3dev/ppu/bin/../lib/gcc/powerpc64-ps3-elf/4.5.2/../../../../powerpc64-ps3-elf/lib\libc.a(lib_a-dtoa.o)
 .debug_aranges
                0x0000000000000910       0x30 e:/psdk3v2/psdk3v2-master/ps3dev/ppu/bin/../lib/gcc/powerpc64-ps3-elf/4.5.2/../../../../powerpc64-ps3-elf/lib\libc.a(lib_a-flags.o)
 .debug_aranges
                0x0000000000000940       0x30 e:/psdk3v2/psdk3v2-master/ps3dev/ppu/bin/../lib/gcc/powerpc64-ps3-elf/4.5.2/../../../../powerpc64-ps3-elf/lib\libc.a(lib_a-fvwrite.o)
 .debug_aranges
                0x0000000000000970       0xa0 e:/psdk3v2/psdk3v2-master/ps3dev/ppu/bin/../lib/gcc/powerpc64-ps3-elf/4.5.2/../../../../powerpc64-ps3-elf/lib\libc.a(lib_a-locale.o)
 .debug_aranges
                0x0000000000000a10       0x40 e:/psdk3v2/psdk3v2-master/ps3dev/ppu/bin/../lib/gcc/powerpc64-ps3-elf/4.5.2/../../../../powerpc64-ps3-elf/lib\libc.a(lib_a-lock_internal.o)
 .debug_aranges
                0x0000000000000a50       0x30 e:/psdk3v2/psdk3v2-master/ps3dev/ppu/bin/../lib/gcc/powerpc64-ps3-elf/4.5.2/../../../../powerpc64-ps3-elf/lib\libc.a(lib_a-memmove.o)
 .debug_aranges
                0x0000000000000a80      0x150 e:/psdk3v2/psdk3v2-master/ps3dev/ppu/bin/../lib/gcc/powerpc64-ps3-elf/4.5.2/../../../../powerpc64-ps3-elf/lib\libc.a(lib_a-mprec.o)
 .debug_aranges
                0x0000000000000bd0       0x40 e:/psdk3v2/psdk3v2-master/ps3dev/ppu/bin/../lib/gcc/powerpc64-ps3-elf/4.5.2/../../../../powerpc64-ps3-elf/lib\libc.a(lib_a-putc.o)
 .debug_aranges
                0x0000000000000c10       0x30 e:/psdk3v2/psdk3v2-master/ps3dev/ppu/bin/../lib/gcc/powerpc64-ps3-elf/4.5.2/../../../../powerpc64-ps3-elf/lib\libc.a(lib_a-reallocr.o)
 .debug_aranges
                0x0000000000000c40       0x30 e:/psdk3v2/psdk3v2-master/ps3dev/ppu/bin/../lib/gcc/powerpc64-ps3-elf/4.5.2/../../../../powerpc64-ps3-elf/lib\libc.a(lib_a-s_fpclassify.o)
 .debug_aranges
                0x0000000000000c70       0x30 e:/psdk3v2/psdk3v2-master/ps3dev/ppu/bin/../lib/gcc/powerpc64-ps3-elf/4.5.2/../../../../powerpc64-ps3-elf/lib\libc.a(lib_a-strcmp.o)
 .debug_aranges
                0x0000000000000ca0       0x40 e:/psdk3v2/psdk3v2-master/ps3dev/ppu/bin/../lib/gcc/powerpc64-ps3-elf/4.5.2/../../../../powerpc64-ps3-elf/lib\libc.a(lib_a-svfiprintf.o)
 .debug_aranges
                0x0000000000000ce0       0x50 e:/psdk3v2/psdk3v2-master/ps3dev/ppu/bin/../lib/gcc/powerpc64-ps3-elf/4.5.2/../../../../powerpc64-ps3-elf/lib\libc.a(lib_a-vfiprintf.o)
 .debug_aranges
                0x0000000000000d30       0x40 e:/psdk3v2/psdk3v2-master/ps3dev/ppu/bin/../lib/gcc/powerpc64-ps3-elf/4.5.2/../../../../powerpc64-ps3-elf/lib\libc.a(lib_a-wbuf.o)
 .debug_aranges
                0x0000000000000d70       0x30 e:/psdk3v2/psdk3v2-master/ps3dev/ppu/bin/../lib/gcc/powerpc64-ps3-elf/4.5.2/../../../../powerpc64-ps3-elf/lib\libc.a(lib_a-__atexit.o)
 .debug_aranges
                0x0000000000000da0       0x30 e:/psdk3v2/psdk3v2-master/ps3dev/ppu/bin/../lib/gcc/powerpc64-ps3-elf/4.5.2/../../../../powerpc64-ps3-elf/lib\libc.a(lib_a-abort.o)
 .debug_aranges
                0x0000000000000dd0       0x30 e:/psdk3v2/psdk3v2-master/ps3dev/ppu/bin/../lib/gcc/powerpc64-ps3-elf/4.5.2/../../../../powerpc64-ps3-elf/lib\libc.a(lib_a-callocr.o)
 .debug_aranges
                0x0000000000000e00       0x40 e:/psdk3v2/psdk3v2-master/ps3dev/ppu/bin/../lib/gcc/powerpc64-ps3-elf/4.5.2/../../../../powerpc64-ps3-elf/lib\libc.a(lib_a-fputwc.o)
 .debug_aranges
                0x0000000000000e40       0xa0 e:/psdk3v2/psdk3v2-master/ps3dev/ppu/bin/../lib/gcc/powerpc64-ps3-elf/4.5.2/../../../../powerpc64-ps3-elf/lib\libc.a(lib_a-signal.o)
 .debug_aranges
                0x0000000000000ee0       0x40 e:/psdk3v2/psdk3v2-master/ps3dev/ppu/bin/../lib/gcc/powerpc64-ps3-elf/4.5.2/../../../../powerpc64-ps3-elf/lib\libc.a(lib_a-wcrtomb.o)
 .debug_aranges
                0x0000000000000f20       0x40 e:/psdk3v2/psdk3v2-master/ps3dev/ppu/bin/../lib/gcc/powerpc64-ps3-elf/4.5.2/../../../../powerpc64-ps3-elf/lib\libc.a(lib_a-wctomb_r.o)
 .debug_aranges
                0x0000000000000f60       0x30 e:/psdk3v2/psdk3v2-master/ps3dev/ppu/bin/../lib/gcc/powerpc64-ps3-elf/4.5.2/../../../../powerpc64-ps3-elf/lib\libsysbase.a(close.o)
 .debug_aranges
                0x0000000000000f90       0x30 e:/psdk3v2/psdk3v2-master/ps3dev/ppu/bin/../lib/gcc/powerpc64-ps3-elf/4.5.2/../../../../powerpc64-ps3-elf/lib\libsysbase.a(sbrk.o)
 .debug_aranges
                0x0000000000000fc0       0x30 e:/psdk3v2/psdk3v2-master/ps3dev/ppu/bin/../lib/gcc/powerpc64-ps3-elf/4.5.2/../../../../powerpc64-ps3-elf/lib\libsysbase.a(_exit.o)
 .debug_aranges
                0x0000000000000ff0       0x30 e:/psdk3v2/psdk3v2-master/ps3dev/ppu/bin/../lib/gcc/powerpc64-ps3-elf/4.5.2/../../../../powerpc64-ps3-elf/lib\libsysbase.a(fstat.o)
 .debug_aranges
                0x0000000000001020       0x30 e:/psdk3v2/psdk3v2-master/ps3dev/ppu/bin/../lib/gcc/powerpc64-ps3-elf/4.5.2/../../../../powerpc64-ps3-elf/lib\libsysbase.a(isatty.o)
 .debug_aranges
                0x0000000000001050       0x30 e:/psdk3v2/psdk3v2-master/ps3dev/ppu/bin/../lib/gcc/powerpc64-ps3-elf/4.5.2/../../../../powerpc64-ps3-elf/lib\libsysbase.a(lseek.o)
 .debug_aranges
                0x0000000000001080       0x30 e:/psdk3v2/psdk3v2-master/ps3dev/ppu/bin/../lib/gcc/powerpc64-ps3-elf/4.5.2/../../../../powerpc64-ps3-elf/lib\libsysbase.a(open.o)
 .debug_aranges
                0x00000000000010b0       0x30 e:/psdk3v2/psdk3v2-master/ps3dev/ppu/bin/../lib/gcc/powerpc64-ps3-elf/4.5.2/../../../../powerpc64-ps3-elf/lib\libsysbase.a(read.o)
 .debug_aranges
                0x00000000000010e0       0x30 e:/psdk3v2/psdk3v2-master/ps3dev/ppu/bin/../lib/gcc/powerpc64-ps3-elf/4.5.2/../../../../powerpc64-ps3-elf/lib\libsysbase.a(write.o)
 .debug_aranges
                0x0000000000001110       0x70 e:/psdk3v2/psdk3v2-master/ps3dev/ppu/bin/../lib/gcc/powerpc64-ps3-elf/4.5.2/../../../../powerpc64-ps3-elf/lib\libsysbase.a(lock.o)
 .debug_aranges
                0x0000000000001180       0x30 e:/psdk3v2/psdk3v2-master/ps3dev/ppu/bin/../lib/gcc/powerpc64-ps3-elf/4.5.2/../../../../powerpc64-ps3-elf/lib\libsysbase.a(getpid.o)
 .debug_aranges
                0x00000000000011b0       0x30 e:/psdk3v2/psdk3v2-master/ps3dev/ppu/bin/../lib/gcc/powerpc64-ps3-elf/4.5.2/../../../../powerpc64-ps3-elf/lib\libsysbase.a(kill.o)
 .debug_aranges
                0x00000000000011e0       0x30 e:/psdk3v2/psdk3v2-master/ps3dev/ppu/bin/../lib/gcc/powerpc64-ps3-elf/4.5.2/../../../../powerpc64-ps3-elf/lib\libsysbase.a(gettod.o)
 .debug_aranges
                0x0000000000001210       0x30 e:/psdk3v2/psdk3v2-master/ps3dev/ppu/bin/../lib/gcc/powerpc64-ps3-elf/4.5.2/../../../../powerpc64-ps3-elf/lib\libc.a(lib_a-errno.o)
 .debug_aranges
                0x0000000000001240       0x40 e:/psdk3v2/psdk3v2-master/ps3dev/ppu/bin/../lib/gcc/powerpc64-ps3-elf/4.5.2/../../../../powerpc64-ps3-elf/lib\libc.a(lib_a-sscanf.o)
 .debug_aranges
                0x0000000000001280       0x30 e:/psdk3v2/psdk3v2-master/ps3dev/ppu/bin/../lib/gcc/powerpc64-ps3-elf/4.5.2/../../../../powerpc64-ps3-elf/lib\libc.a(lib_a-strncpy.o)
 .debug_aranges
                0x00000000000012b0       0x30 e:/psdk3v2/psdk3v2-master/ps3dev/ppu/bin/../lib/gcc/powerpc64-ps3-elf/4.5.2/../../../../powerpc64-ps3-elf/lib\libc.a(lib_a-svfscanf.o)
 .debug_aranges
                0x00000000000012e0       0x30 e:/psdk3v2/psdk3v2-master/ps3dev/ppu/bin/../lib/gcc/powerpc64-ps3-elf/4.5.2/../../../../powerpc64-ps3-elf/lib\libc.a(lib_a-iswspace.o)
 .debug_aranges
                0x0000000000001310       0x40 e:/psdk3v2/psdk3v2-master/ps3dev/ppu/bin/../lib/gcc/powerpc64-ps3-elf/4.5.2/../../../../powerpc64-ps3-elf/lib\libc.a(lib_a-mbrtowc.o)
 .debug_aranges
                0x0000000000001350       0x40 e:/psdk3v2/psdk3v2-master/ps3dev/ppu/bin/../lib/gcc/powerpc64-ps3-elf/4.5.2/../../../../powerpc64-ps3-elf/lib\libc.a(lib_a-mbtowc_r.o)
 .debug_aranges
                0x0000000000001390       0x30 e:/psdk3v2/psdk3v2-master/ps3dev/ppu/bin/../lib/gcc/powerpc64-ps3-elf/4.5.2/../../../../powerpc64-ps3-elf/lib\libc.a(lib_a-sccl.o)
 .debug_aranges
                0x00000000000013c0       0x30 e:/psdk3v2/psdk3v2-master/ps3dev/ppu/bin/../lib/gcc/powerpc64-ps3-elf/4.5.2/../../../../powerpc64-ps3-elf/lib\libc.a(lib_a-sf_nan.o)
 .debug_aranges
                0x00000000000013f0       0x60 e:/psdk3v2/psdk3v2-master/ps3dev/ppu/bin/../lib/gcc/powerpc64-ps3-elf/4.5.2/../../../../powerpc64-ps3-elf/lib\libc.a(lib_a-strtod.o)
 .debug_aranges
                0x0000000000001450       0x40 e:/psdk3v2/psdk3v2-master/ps3dev/ppu/bin/../lib/gcc/powerpc64-ps3-elf/4.5.2/../../../../powerpc64-ps3-elf/lib\libc.a(lib_a-strtol.o)
 .debug_aranges
                0x0000000000001490       0x30 e:/psdk3v2/psdk3v2-master/ps3dev/ppu/bin/../lib/gcc/powerpc64-ps3-elf/4.5.2/../../../../powerpc64-ps3-elf/lib\libc.a(lib_a-strtoll_r.o)
 .debug_aranges
                0x00000000000014c0       0x40 e:/psdk3v2/psdk3v2-master/ps3dev/ppu/bin/../lib/gcc/powerpc64-ps3-elf/4.5.2/../../../../powerpc64-ps3-elf/lib\libc.a(lib_a-strtoul.o)
 .debug_aranges
                0x0000000000001500       0x30 e:/psdk3v2/psdk3v2-master/ps3dev/ppu/bin/../lib/gcc/powerpc64-ps3-elf/4.5.2/../../../../powerpc64-ps3-elf/lib\libc.a(lib_a-strtoull_r.o)
 .debug_aranges
                0x0000000000001530       0x60 e:/psdk3v2/psdk3v2-master/ps3dev/ppu/bin/../lib/gcc/powerpc64-ps3-elf/4.5.2/../../../../powerpc64-ps3-elf/lib\libc.a(lib_a-svfiscanf.o)
 .debug_aranges
                0x0000000000001590       0x50 e:/psdk3v2/psdk3v2-master/ps3dev/ppu/bin/../lib/gcc/powerpc64-ps3-elf/4.5.2/../../../../powerpc64-ps3-elf/lib\libc.a(lib_a-ungetc.o)
 .debug_aranges
                0x00000000000015e0       0x50 e:/psdk3v2/psdk3v2-master/ps3dev/ppu/bin/../lib/gcc/powerpc64-ps3-elf/4.5.2/../../../../powerpc64-ps3-elf/lib\libc.a(lib_a-gdtoa-gethex.o)
 .debug_aranges
                0x0000000000001630       0x30 e:/psdk3v2/psdk3v2-master/ps3dev/ppu/bin/../lib/gcc/powerpc64-ps3-elf/4.5.2/../../../../powerpc64-ps3-elf/lib\libc.a(lib_a-gdtoa-hexnan.o)
 .debug_aranges
                0x0000000000001660       0x30 e:/psdk3v2/psdk3v2-master/ps3dev/ppu/bin/../lib/gcc/powerpc64-ps3-elf/4.5.2/../../../../powerpc64-ps3-elf/lib\libc.a(lib_a-strncmp.o)

.debug_pubnames
                0x0000000000000000     0x128b
 *(.debug_pubnames)
 .debug_pubnames
                0x0000000000000000       0x21 e:/psdk3v2/psdk3v2-master/ps3dev/ppu/bin/../lib/gcc/powerpc64-ps3-elf/4.5.2/../../../../powerpc64-ps3-elf/lib\libsysbase.a(syscalls.o)
 .debug_pubnames
                0x0000000000000021       0x1b e:/psdk3v2/psdk3v2-master/ps3dev/ppu/bin/../lib/gcc/powerpc64-ps3-elf/4.5.2/../../../../powerpc64-ps3-elf/lib\libc.a(lib_a-exit.o)
 .debug_pubnames
                0x000000000000003c       0x2b e:/psdk3v2/psdk3v2-master/ps3dev/ppu/bin/../lib/gcc/powerpc64-ps3-elf/4.5.2/../../../../powerpc64-ps3-elf/lib\libc.a(lib_a-fclose.o)
 .debug_pubnames
                0x0000000000000067       0x2b e:/psdk3v2/psdk3v2-master/ps3dev/ppu/bin/../lib/gcc/powerpc64-ps3-elf/4.5.2/../../../../powerpc64-ps3-elf/lib\libc.a(lib_a-fflush.o)
 .debug_pubnames
                0x0000000000000092       0x29 e:/psdk3v2/psdk3v2-master/ps3dev/ppu/bin/../lib/gcc/powerpc64-ps3-elf/4.5.2/../../../../powerpc64-ps3-elf/lib\libc.a(lib_a-fgets.o)
 .debug_pubnames
                0x00000000000000bb       0xdb e:/psdk3v2/psdk3v2-master/ps3dev/ppu/bin/../lib/gcc/powerpc64-ps3-elf/4.5.2/../../../../powerpc64-ps3-elf/lib\libc.a(lib_a-findfp.o)
 .debug_pubnames
                0x0000000000000196       0x29 e:/psdk3v2/psdk3v2-master/ps3dev/ppu/bin/../lib/gcc/powerpc64-ps3-elf/4.5.2/../../../../powerpc64-ps3-elf/lib\libc.a(lib_a-fopen.o)
 .debug_pubnames
                0x00000000000001bf       0x29 e:/psdk3v2/psdk3v2-master/ps3dev/ppu/bin/../lib/gcc/powerpc64-ps3-elf/4.5.2/../../../../powerpc64-ps3-elf/lib\libc.a(lib_a-fread.o)
 .debug_pubnames
                0x00000000000001e8       0x31 e:/psdk3v2/psdk3v2-master/ps3dev/ppu/bin/../lib/gcc/powerpc64-ps3-elf/4.5.2/../../../../powerpc64-ps3-elf/lib\libc.a(lib_a-freer.o)
 .debug_pubnames
                0x0000000000000219       0x29 e:/psdk3v2/psdk3v2-master/ps3dev/ppu/bin/../lib/gcc/powerpc64-ps3-elf/4.5.2/../../../../powerpc64-ps3-elf/lib\libc.a(lib_a-fseek.o)
 .debug_pubnames
                0x0000000000000242       0x29 e:/psdk3v2/psdk3v2-master/ps3dev/ppu/bin/../lib/gcc/powerpc64-ps3-elf/4.5.2/../../../../powerpc64-ps3-elf/lib\libc.a(lib_a-ftell.o)
 .debug_pubnames
                0x000000000000026b       0x2e e:/psdk3v2/psdk3v2-master/ps3dev/ppu/bin/../lib/gcc/powerpc64-ps3-elf/4.5.2/../../../../powerpc64-ps3-elf/lib\libc.a(lib_a-fwalk.o)
 .debug_pubnames
                0x0000000000000299       0x2b e:/psdk3v2/psdk3v2-master/ps3dev/ppu/bin/../lib/gcc/powerpc64-ps3-elf/4.5.2/../../../../powerpc64-ps3-elf/lib\libc.a(lib_a-fwrite.o)
 .debug_pubnames
                0x00000000000002c4       0x21 e:/psdk3v2/psdk3v2-master/ps3dev/ppu/bin/../lib/gcc/powerpc64-ps3-elf/4.5.2/../../../../powerpc64-ps3-elf/lib\libc.a(lib_a-getreent.o)
 .debug_pubnames
                0x00000000000002e5       0x39 e:/psdk3v2/psdk3v2-master/ps3dev/ppu/bin/../lib/gcc/powerpc64-ps3-elf/4.5.2/../../../../powerpc64-ps3-elf/lib\libc.a(lib_a-impure.o)
 .debug_pubnames
                0x000000000000031e       0xbb e:/psdk3v2/psdk3v2-master/ps3dev/ppu/bin/../lib/gcc/powerpc64-ps3-elf/4.5.2/../../../../powerpc64-ps3-elf/lib\libc.a(lib_a-lock_recursive.o)
 .debug_pubnames
                0x00000000000003d9       0x23 e:/psdk3v2/psdk3v2-master/ps3dev/ppu/bin/../lib/gcc/powerpc64-ps3-elf/4.5.2/../../../../powerpc64-ps3-elf/lib\libc.a(lib_a-makebuf.o)
 .debug_pubnames
                0x00000000000003fc       0x26 e:/psdk3v2/psdk3v2-master/ps3dev/ppu/bin/../lib/gcc/powerpc64-ps3-elf/4.5.2/../../../../powerpc64-ps3-elf/lib\libc.a(lib_a-malloc.o)
 .debug_pubnames
                0x0000000000000422       0xce e:/psdk3v2/psdk3v2-master/ps3dev/ppu/bin/../lib/gcc/powerpc64-ps3-elf/4.5.2/../../../../powerpc64-ps3-elf/lib\libc.a(lib_a-mallocr.o)
 .debug_pubnames
                0x00000000000004f0       0x1d e:/psdk3v2/psdk3v2-master/ps3dev/ppu/bin/../lib/gcc/powerpc64-ps3-elf/4.5.2/../../../../powerpc64-ps3-elf/lib\libc.a(lib_a-memchr.o)
 .debug_pubnames
                0x000000000000050d       0x1d e:/psdk3v2/psdk3v2-master/ps3dev/ppu/bin/../lib/gcc/powerpc64-ps3-elf/4.5.2/../../../../powerpc64-ps3-elf/lib\libc.a(lib_a-memcpy.o)
 .debug_pubnames
                0x000000000000052a       0x1d e:/psdk3v2/psdk3v2-master/ps3dev/ppu/bin/../lib/gcc/powerpc64-ps3-elf/4.5.2/../../../../powerpc64-ps3-elf/lib\libc.a(lib_a-memset.o)
 .debug_pubnames
                0x0000000000000547       0x38 e:/psdk3v2/psdk3v2-master/ps3dev/ppu/bin/../lib/gcc/powerpc64-ps3-elf/4.5.2/../../../../powerpc64-ps3-elf/lib\libc.a(lib_a-mlock.o)
 .debug_pubnames
                0x000000000000057f       0x2b e:/psdk3v2/psdk3v2-master/ps3dev/ppu/bin/../lib/gcc/powerpc64-ps3-elf/4.5.2/../../../../powerpc64-ps3-elf/lib\libc.a(lib_a-printf.o)
 .debug_pubnames
                0x00000000000005aa       0x2d e:/psdk3v2/psdk3v2-master/ps3dev/ppu/bin/../lib/gcc/powerpc64-ps3-elf/4.5.2/../../../../powerpc64-ps3-elf/lib\libc.a(lib_a-putchar.o)
 .debug_pubnames
                0x00000000000005d7       0x27 e:/psdk3v2/psdk3v2-master/ps3dev/ppu/bin/../lib/gcc/powerpc64-ps3-elf/4.5.2/../../../../powerpc64-ps3-elf/lib\libc.a(lib_a-puts.o)
 .debug_pubnames
                0x00000000000005fe       0x25 e:/psdk3v2/psdk3v2-master/ps3dev/ppu/bin/../lib/gcc/powerpc64-ps3-elf/4.5.2/../../../../powerpc64-ps3-elf/lib\libc.a(lib_a-rand.o)
 .debug_pubnames
                0x0000000000000623       0x22 e:/psdk3v2/psdk3v2-master/ps3dev/ppu/bin/../lib/gcc/powerpc64-ps3-elf/4.5.2/../../../../powerpc64-ps3-elf/lib\libc.a(lib_a-refill.o)
 .debug_pubnames
                0x0000000000000645       0x2d e:/psdk3v2/psdk3v2-master/ps3dev/ppu/bin/../lib/gcc/powerpc64-ps3-elf/4.5.2/../../../../powerpc64-ps3-elf/lib\libc.a(lib_a-sprintf.o)
 .debug_pubnames
                0x0000000000000672       0x53 e:/psdk3v2/psdk3v2-master/ps3dev/ppu/bin/../lib/gcc/powerpc64-ps3-elf/4.5.2/../../../../powerpc64-ps3-elf/lib\libc.a(lib_a-stdio.o)
 .debug_pubnames
                0x00000000000006c5       0x1d e:/psdk3v2/psdk3v2-master/ps3dev/ppu/bin/../lib/gcc/powerpc64-ps3-elf/4.5.2/../../../../powerpc64-ps3-elf/lib\libc.a(lib_a-strlen.o)
 .debug_pubnames
                0x00000000000006e2       0x23 e:/psdk3v2/psdk3v2-master/ps3dev/ppu/bin/../lib/gcc/powerpc64-ps3-elf/4.5.2/../../../../powerpc64-ps3-elf/lib\libc.a(lib_a-svfprintf.o)
 .debug_pubnames
                0x0000000000000705       0x1b e:/psdk3v2/psdk3v2-master/ps3dev/ppu/bin/../lib/gcc/powerpc64-ps3-elf/4.5.2/../../../../powerpc64-ps3-elf/lib\libc.a(lib_a-time.o)
 .debug_pubnames
                0x0000000000000720       0x2f e:/psdk3v2/psdk3v2-master/ps3dev/ppu/bin/../lib/gcc/powerpc64-ps3-elf/4.5.2/../../../../powerpc64-ps3-elf/lib\libc.a(lib_a-vfprintf.o)
 .debug_pubnames
                0x000000000000074f       0x22 e:/psdk3v2/psdk3v2-master/ps3dev/ppu/bin/../lib/gcc/powerpc64-ps3-elf/4.5.2/../../../../powerpc64-ps3-elf/lib\libc.a(lib_a-wsetup.o)
 .debug_pubnames
                0x0000000000000771       0x27 e:/psdk3v2/psdk3v2-master/ps3dev/ppu/bin/../lib/gcc/powerpc64-ps3-elf/4.5.2/../../../../powerpc64-ps3-elf/lib\libc.a(lib_a-__call_atexit.o)
 .debug_pubnames
                0x0000000000000798       0x1e e:/psdk3v2/psdk3v2-master/ps3dev/ppu/bin/../lib/gcc/powerpc64-ps3-elf/4.5.2/../../../../powerpc64-ps3-elf/lib\libc.a(lib_a-dtoa.o)
 .debug_pubnames
                0x00000000000007b6       0x1f e:/psdk3v2/psdk3v2-master/ps3dev/ppu/bin/../lib/gcc/powerpc64-ps3-elf/4.5.2/../../../../powerpc64-ps3-elf/lib\libc.a(lib_a-flags.o)
 .debug_pubnames
                0x00000000000007d5       0x23 e:/psdk3v2/psdk3v2-master/ps3dev/ppu/bin/../lib/gcc/powerpc64-ps3-elf/4.5.2/../../../../powerpc64-ps3-elf/lib\libc.a(lib_a-fvwrite.o)
 .debug_pubnames
                0x00000000000007f8       0xfa e:/psdk3v2/psdk3v2-master/ps3dev/ppu/bin/../lib/gcc/powerpc64-ps3-elf/4.5.2/../../../../powerpc64-ps3-elf/lib\libc.a(lib_a-locale.o)
 .debug_pubnames
                0x00000000000008f2       0x30 e:/psdk3v2/psdk3v2-master/ps3dev/ppu/bin/../lib/gcc/powerpc64-ps3-elf/4.5.2/../../../../powerpc64-ps3-elf/lib\libc.a(lib_a-lock_internal.o)
 .debug_pubnames
                0x0000000000000922       0x1e e:/psdk3v2/psdk3v2-master/ps3dev/ppu/bin/../lib/gcc/powerpc64-ps3-elf/4.5.2/../../../../powerpc64-ps3-elf/lib\libc.a(lib_a-memmove.o)
 .debug_pubnames
                0x0000000000000940      0x13a e:/psdk3v2/psdk3v2-master/ps3dev/ppu/bin/../lib/gcc/powerpc64-ps3-elf/4.5.2/../../../../powerpc64-ps3-elf/lib\libc.a(lib_a-mprec.o)
 .debug_pubnames
                0x0000000000000a7a       0x27 e:/psdk3v2/psdk3v2-master/ps3dev/ppu/bin/../lib/gcc/powerpc64-ps3-elf/4.5.2/../../../../powerpc64-ps3-elf/lib\libc.a(lib_a-putc.o)
 .debug_pubnames
                0x0000000000000aa1       0x21 e:/psdk3v2/psdk3v2-master/ps3dev/ppu/bin/../lib/gcc/powerpc64-ps3-elf/4.5.2/../../../../powerpc64-ps3-elf/lib\libc.a(lib_a-reallocr.o)
 .debug_pubnames
                0x0000000000000ac2       0x24 e:/psdk3v2/psdk3v2-master/ps3dev/ppu/bin/../lib/gcc/powerpc64-ps3-elf/4.5.2/../../../../powerpc64-ps3-elf/lib\libc.a(lib_a-s_fpclassify.o)
 .debug_pubnames
                0x0000000000000ae6       0x1d e:/psdk3v2/psdk3v2-master/ps3dev/ppu/bin/../lib/gcc/powerpc64-ps3-elf/4.5.2/../../../../powerpc64-ps3-elf/lib\libc.a(lib_a-strcmp.o)
 .debug_pubnames
                0x0000000000000b03       0x34 e:/psdk3v2/psdk3v2-master/ps3dev/ppu/bin/../lib/gcc/powerpc64-ps3-elf/4.5.2/../../../../powerpc64-ps3-elf/lib\libc.a(lib_a-svfiprintf.o)
 .debug_pubnames
                0x0000000000000b37       0x40 e:/psdk3v2/psdk3v2-master/ps3dev/ppu/bin/../lib/gcc/powerpc64-ps3-elf/4.5.2/../../../../powerpc64-ps3-elf/lib\libc.a(lib_a-vfiprintf.o)
 .debug_pubnames
                0x0000000000000b77       0x2c e:/psdk3v2/psdk3v2-master/ps3dev/ppu/bin/../lib/gcc/powerpc64-ps3-elf/4.5.2/../../../../powerpc64-ps3-elf/lib\libc.a(lib_a-wbuf.o)
 .debug_pubnames
                0x0000000000000ba3       0x3c e:/psdk3v2/psdk3v2-master/ps3dev/ppu/bin/../lib/gcc/powerpc64-ps3-elf/4.5.2/../../../../powerpc64-ps3-elf/lib\libc.a(lib_a-__atexit.o)
 .debug_pubnames
                0x0000000000000bdf       0x1c e:/psdk3v2/psdk3v2-master/ps3dev/ppu/bin/../lib/gcc/powerpc64-ps3-elf/4.5.2/../../../../powerpc64-ps3-elf/lib\libc.a(lib_a-abort.o)
 .debug_pubnames
                0x0000000000000bfb       0x20 e:/psdk3v2/psdk3v2-master/ps3dev/ppu/bin/../lib/gcc/powerpc64-ps3-elf/4.5.2/../../../../powerpc64-ps3-elf/lib\libc.a(lib_a-callocr.o)
 .debug_pubnames
                0x0000000000000c1b       0x2b e:/psdk3v2/psdk3v2-master/ps3dev/ppu/bin/../lib/gcc/powerpc64-ps3-elf/4.5.2/../../../../powerpc64-ps3-elf/lib\libc.a(lib_a-fputwc.o)
 .debug_pubnames
                0x0000000000000c46       0x86 e:/psdk3v2/psdk3v2-master/ps3dev/ppu/bin/../lib/gcc/powerpc64-ps3-elf/4.5.2/../../../../powerpc64-ps3-elf/lib\libc.a(lib_a-signal.o)
 .debug_pubnames
                0x0000000000000ccc       0x2d e:/psdk3v2/psdk3v2-master/ps3dev/ppu/bin/../lib/gcc/powerpc64-ps3-elf/4.5.2/../../../../powerpc64-ps3-elf/lib\libc.a(lib_a-wcrtomb.o)
 .debug_pubnames
                0x0000000000000cf9       0x40 e:/psdk3v2/psdk3v2-master/ps3dev/ppu/bin/../lib/gcc/powerpc64-ps3-elf/4.5.2/../../../../powerpc64-ps3-elf/lib\libc.a(lib_a-wctomb_r.o)
 .debug_pubnames
                0x0000000000000d39       0x1f e:/psdk3v2/psdk3v2-master/ps3dev/ppu/bin/../lib/gcc/powerpc64-ps3-elf/4.5.2/../../../../powerpc64-ps3-elf/lib\libsysbase.a(close.o)
 .debug_pubnames
                0x0000000000000d58       0x1e e:/psdk3v2/psdk3v2-master/ps3dev/ppu/bin/../lib/gcc/powerpc64-ps3-elf/4.5.2/../../../../powerpc64-ps3-elf/lib\libsysbase.a(sbrk.o)
 .debug_pubnames
                0x0000000000000d76       0x1c e:/psdk3v2/psdk3v2-master/ps3dev/ppu/bin/../lib/gcc/powerpc64-ps3-elf/4.5.2/../../../../powerpc64-ps3-elf/lib\libsysbase.a(_exit.o)
 .debug_pubnames
                0x0000000000000d92       0x1f e:/psdk3v2/psdk3v2-master/ps3dev/ppu/bin/../lib/gcc/powerpc64-ps3-elf/4.5.2/../../../../powerpc64-ps3-elf/lib\libsysbase.a(fstat.o)
 .debug_pubnames
                0x0000000000000db1       0x20 e:/psdk3v2/psdk3v2-master/ps3dev/ppu/bin/../lib/gcc/powerpc64-ps3-elf/4.5.2/../../../../powerpc64-ps3-elf/lib\libsysbase.a(isatty.o)
 .debug_pubnames
                0x0000000000000dd1       0x1f e:/psdk3v2/psdk3v2-master/ps3dev/ppu/bin/../lib/gcc/powerpc64-ps3-elf/4.5.2/../../../../powerpc64-ps3-elf/lib\libsysbase.a(lseek.o)
 .debug_pubnames
                0x0000000000000df0       0x1e e:/psdk3v2/psdk3v2-master/ps3dev/ppu/bin/../lib/gcc/powerpc64-ps3-elf/4.5.2/../../../../powerpc64-ps3-elf/lib\libsysbase.a(open.o)
 .debug_pubnames
                0x0000000000000e0e       0x1e e:/psdk3v2/psdk3v2-master/ps3dev/ppu/bin/../lib/gcc/powerpc64-ps3-elf/4.5.2/../../../../powerpc64-ps3-elf/lib\libsysbase.a(read.o)
 .debug_pubnames
                0x0000000000000e2c       0x1f e:/psdk3v2/psdk3v2-master/ps3dev/ppu/bin/../lib/gcc/powerpc64-ps3-elf/4.5.2/../../../../powerpc64-ps3-elf/lib\libsysbase.a(write.o)
 .debug_pubnames
                0x0000000000000e4b       0x85 e:/psdk3v2/psdk3v2-master/ps3dev/ppu/bin/../lib/gcc/powerpc64-ps3-elf/4.5.2/../../../../powerpc64-ps3-elf/lib\libsysbase.a(lock.o)
 .debug_pubnames
                0x0000000000000ed0       0x20 e:/psdk3v2/psdk3v2-master/ps3dev/ppu/bin/../lib/gcc/powerpc64-ps3-elf/4.5.2/../../../../powerpc64-ps3-elf/lib\libsysbase.a(getpid.o)
 .debug_pubnames
                0x0000000000000ef0       0x1e e:/psdk3v2/psdk3v2-master/ps3dev/ppu/bin/../lib/gcc/powerpc64-ps3-elf/4.5.2/../../../../powerpc64-ps3-elf/lib\libsysbase.a(kill.o)
 .debug_pubnames
                0x0000000000000f0e       0x26 e:/psdk3v2/psdk3v2-master/ps3dev/ppu/bin/../lib/gcc/powerpc64-ps3-elf/4.5.2/../../../../powerpc64-ps3-elf/lib\libsysbase.a(gettod.o)
 .debug_pubnames
                0x0000000000000f34       0x1e e:/psdk3v2/psdk3v2-master/ps3dev/ppu/bin/../lib/gcc/powerpc64-ps3-elf/4.5.2/../../../../powerpc64-ps3-elf/lib\libc.a(lib_a-errno.o)
 .debug_pubnames
                0x0000000000000f52       0x2b e:/psdk3v2/psdk3v2-master/ps3dev/ppu/bin/../lib/gcc/powerpc64-ps3-elf/4.5.2/../../../../powerpc64-ps3-elf/lib\libc.a(lib_a-sscanf.o)
 .debug_pubnames
                0x0000000000000f7d       0x1e e:/psdk3v2/psdk3v2-master/ps3dev/ppu/bin/../lib/gcc/powerpc64-ps3-elf/4.5.2/../../../../powerpc64-ps3-elf/lib\libc.a(lib_a-strncpy.o)
 .debug_pubnames
                0x0000000000000f9b       0x24 e:/psdk3v2/psdk3v2-master/ps3dev/ppu/bin/../lib/gcc/powerpc64-ps3-elf/4.5.2/../../../../powerpc64-ps3-elf/lib\libc.a(lib_a-svfscanf.o)
 .debug_pubnames
                0x0000000000000fbf       0x30 e:/psdk3v2/psdk3v2-master/ps3dev/ppu/bin/../lib/gcc/powerpc64-ps3-elf/4.5.2/../../../../powerpc64-ps3-elf/lib\libc.a(lib_a-ctype_.o)
 .debug_pubnames
                0x0000000000000fef       0x1f e:/psdk3v2/psdk3v2-master/ps3dev/ppu/bin/../lib/gcc/powerpc64-ps3-elf/4.5.2/../../../../powerpc64-ps3-elf/lib\libc.a(lib_a-iswspace.o)
 .debug_pubnames
                0x000000000000100e       0x2d e:/psdk3v2/psdk3v2-master/ps3dev/ppu/bin/../lib/gcc/powerpc64-ps3-elf/4.5.2/../../../../powerpc64-ps3-elf/lib\libc.a(lib_a-mbrtowc.o)
 .debug_pubnames
                0x000000000000103b       0x40 e:/psdk3v2/psdk3v2-master/ps3dev/ppu/bin/../lib/gcc/powerpc64-ps3-elf/4.5.2/../../../../powerpc64-ps3-elf/lib\libc.a(lib_a-mbtowc_r.o)
 .debug_pubnames
                0x000000000000107b       0x1d e:/psdk3v2/psdk3v2-master/ps3dev/ppu/bin/../lib/gcc/powerpc64-ps3-elf/4.5.2/../../../../powerpc64-ps3-elf/lib\libc.a(lib_a-sccl.o)
 .debug_pubnames
                0x0000000000001098       0x1b e:/psdk3v2/psdk3v2-master/ps3dev/ppu/bin/../lib/gcc/powerpc64-ps3-elf/4.5.2/../../../../powerpc64-ps3-elf/lib\libc.a(lib_a-sf_nan.o)
 .debug_pubnames
                0x00000000000010b3       0x36 e:/psdk3v2/psdk3v2-master/ps3dev/ppu/bin/../lib/gcc/powerpc64-ps3-elf/4.5.2/../../../../powerpc64-ps3-elf/lib\libc.a(lib_a-strtod.o)
 .debug_pubnames
                0x00000000000010e9       0x2b e:/psdk3v2/psdk3v2-master/ps3dev/ppu/bin/../lib/gcc/powerpc64-ps3-elf/4.5.2/../../../../powerpc64-ps3-elf/lib\libc.a(lib_a-strtol.o)
 .debug_pubnames
                0x0000000000001114       0x21 e:/psdk3v2/psdk3v2-master/ps3dev/ppu/bin/../lib/gcc/powerpc64-ps3-elf/4.5.2/../../../../powerpc64-ps3-elf/lib\libc.a(lib_a-strtoll_r.o)
 .debug_pubnames
                0x0000000000001135       0x2d e:/psdk3v2/psdk3v2-master/ps3dev/ppu/bin/../lib/gcc/powerpc64-ps3-elf/4.5.2/../../../../powerpc64-ps3-elf/lib\libc.a(lib_a-strtoul.o)
 .debug_pubnames
                0x0000000000001162       0x22 e:/psdk3v2/psdk3v2-master/ps3dev/ppu/bin/../lib/gcc/powerpc64-ps3-elf/4.5.2/../../../../powerpc64-ps3-elf/lib\libc.a(lib_a-strtoull_r.o)
 .debug_pubnames
                0x0000000000001184       0x53 e:/psdk3v2/psdk3v2-master/ps3dev/ppu/bin/../lib/gcc/powerpc64-ps3-elf/4.5.2/../../../../powerpc64-ps3-elf/lib\libc.a(lib_a-svfiscanf.o)
 .debug_pubnames
                0x00000000000011d7       0x39 e:/psdk3v2/psdk3v2-master/ps3dev/ppu/bin/../lib/gcc/powerpc64-ps3-elf/4.5.2/../../../../powerpc64-ps3-elf/lib\libc.a(lib_a-ungetc.o)
 .debug_pubnames
                0x0000000000001210       0x3e e:/psdk3v2/psdk3v2-master/ps3dev/ppu/bin/../lib/gcc/powerpc64-ps3-elf/4.5.2/../../../../powerpc64-ps3-elf/lib\libc.a(lib_a-gdtoa-gethex.o)
 .debug_pubnames
                0x000000000000124e       0x1f e:/psdk3v2/psdk3v2-master/ps3dev/ppu/bin/../lib/gcc/powerpc64-ps3-elf/4.5.2/../../../../powerpc64-ps3-elf/lib\libc.a(lib_a-gdtoa-hexnan.o)
 .debug_pubnames
                0x000000000000126d       0x1e e:/psdk3v2/psdk3v2-master/ps3dev/ppu/bin/../lib/gcc/powerpc64-ps3-elf/4.5.2/../../../../powerpc64-ps3-elf/lib\libc.a(lib_a-strncmp.o)

.debug_info     0x0000000000000000    0x3d2c4
 *(.debug_info .gnu.linkonce.wi.*)
 .debug_info    0x0000000000000000     0x1535 e:/psdk3v2/psdk3v2-master/ps3dev/ppu/bin/../lib/gcc/powerpc64-ps3-elf/4.5.2/../../../../powerpc64-ps3-elf/lib\libsysbase.a(syscalls.o)
 .debug_info    0x0000000000001535      0xa09 e:/psdk3v2/psdk3v2-master/ps3dev/ppu/bin/../lib/gcc/powerpc64-ps3-elf/4.5.2/../../../../powerpc64-ps3-elf/lib\libc.a(lib_a-exit.o)
 .debug_info    0x0000000000001f3e      0xa49 e:/psdk3v2/psdk3v2-master/ps3dev/ppu/bin/../lib/gcc/powerpc64-ps3-elf/4.5.2/../../../../powerpc64-ps3-elf/lib\libc.a(lib_a-fclose.o)
 .debug_info    0x0000000000002987      0xac1 e:/psdk3v2/psdk3v2-master/ps3dev/ppu/bin/../lib/gcc/powerpc64-ps3-elf/4.5.2/../../../../powerpc64-ps3-elf/lib\libc.a(lib_a-fflush.o)
 .debug_info    0x0000000000003448      0xab5 e:/psdk3v2/psdk3v2-master/ps3dev/ppu/bin/../lib/gcc/powerpc64-ps3-elf/4.5.2/../../../../powerpc64-ps3-elf/lib\libc.a(lib_a-fgets.o)
 .debug_info    0x0000000000003efd      0xde2 e:/psdk3v2/psdk3v2-master/ps3dev/ppu/bin/../lib/gcc/powerpc64-ps3-elf/4.5.2/../../../../powerpc64-ps3-elf/lib\libc.a(lib_a-findfp.o)
 .debug_info    0x0000000000004cdf      0xa95 e:/psdk3v2/psdk3v2-master/ps3dev/ppu/bin/../lib/gcc/powerpc64-ps3-elf/4.5.2/../../../../powerpc64-ps3-elf/lib\libc.a(lib_a-fopen.o)
 .debug_info    0x0000000000005774      0xb2f e:/psdk3v2/psdk3v2-master/ps3dev/ppu/bin/../lib/gcc/powerpc64-ps3-elf/4.5.2/../../../../powerpc64-ps3-elf/lib\libc.a(lib_a-fread.o)
 .debug_info    0x00000000000062a3      0xcdd e:/psdk3v2/psdk3v2-master/ps3dev/ppu/bin/../lib/gcc/powerpc64-ps3-elf/4.5.2/../../../../powerpc64-ps3-elf/lib\libc.a(lib_a-freer.o)
 .debug_info    0x0000000000006f80      0xc9c e:/psdk3v2/psdk3v2-master/ps3dev/ppu/bin/../lib/gcc/powerpc64-ps3-elf/4.5.2/../../../../powerpc64-ps3-elf/lib\libc.a(lib_a-fseek.o)
 .debug_info    0x0000000000007c1c      0xa4b e:/psdk3v2/psdk3v2-master/ps3dev/ppu/bin/../lib/gcc/powerpc64-ps3-elf/4.5.2/../../../../powerpc64-ps3-elf/lib\libc.a(lib_a-ftell.o)
 .debug_info    0x0000000000008667      0xbd9 e:/psdk3v2/psdk3v2-master/ps3dev/ppu/bin/../lib/gcc/powerpc64-ps3-elf/4.5.2/../../../../powerpc64-ps3-elf/lib\libc.a(lib_a-fwalk.o)
 .debug_info    0x0000000000009240      0xb38 e:/psdk3v2/psdk3v2-master/ps3dev/ppu/bin/../lib/gcc/powerpc64-ps3-elf/4.5.2/../../../../powerpc64-ps3-elf/lib\libc.a(lib_a-fwrite.o)
 .debug_info    0x0000000000009d78      0xa2c e:/psdk3v2/psdk3v2-master/ps3dev/ppu/bin/../lib/gcc/powerpc64-ps3-elf/4.5.2/../../../../powerpc64-ps3-elf/lib\libc.a(lib_a-getreent.o)
 .debug_info    0x000000000000a7a4      0x9fb e:/psdk3v2/psdk3v2-master/ps3dev/ppu/bin/../lib/gcc/powerpc64-ps3-elf/4.5.2/../../../../powerpc64-ps3-elf/lib\libc.a(lib_a-impure.o)
 .debug_info    0x000000000000b19f      0x26e e:/psdk3v2/psdk3v2-master/ps3dev/ppu/bin/../lib/gcc/powerpc64-ps3-elf/4.5.2/../../../../powerpc64-ps3-elf/lib\libc.a(lib_a-lock_recursive.o)
 .debug_info    0x000000000000b40d      0xbda e:/psdk3v2/psdk3v2-master/ps3dev/ppu/bin/../lib/gcc/powerpc64-ps3-elf/4.5.2/../../../../powerpc64-ps3-elf/lib\libc.a(lib_a-makebuf.o)
 .debug_info    0x000000000000bfe7       0xee e:/psdk3v2/psdk3v2-master/ps3dev/ppu/bin/../lib/gcc/powerpc64-ps3-elf/4.5.2/../../../../powerpc64-ps3-elf/lib\libc.a(lib_a-malloc.o)
 .debug_info    0x000000000000c0d5      0xe20 e:/psdk3v2/psdk3v2-master/ps3dev/ppu/bin/../lib/gcc/powerpc64-ps3-elf/4.5.2/../../../../powerpc64-ps3-elf/lib\libc.a(lib_a-mallocr.o)
 .debug_info    0x000000000000cef5      0x139 e:/psdk3v2/psdk3v2-master/ps3dev/ppu/bin/../lib/gcc/powerpc64-ps3-elf/4.5.2/../../../../powerpc64-ps3-elf/lib\libc.a(lib_a-memchr.o)
 .debug_info    0x000000000000d02e      0x141 e:/psdk3v2/psdk3v2-master/ps3dev/ppu/bin/../lib/gcc/powerpc64-ps3-elf/4.5.2/../../../../powerpc64-ps3-elf/lib\libc.a(lib_a-memcpy.o)
 .debug_info    0x000000000000d16f      0x129 e:/psdk3v2/psdk3v2-master/ps3dev/ppu/bin/../lib/gcc/powerpc64-ps3-elf/4.5.2/../../../../powerpc64-ps3-elf/lib\libc.a(lib_a-memset.o)
 .debug_info    0x000000000000d298      0xa2c e:/psdk3v2/psdk3v2-master/ps3dev/ppu/bin/../lib/gcc/powerpc64-ps3-elf/4.5.2/../../../../powerpc64-ps3-elf/lib\libc.a(lib_a-mlock.o)
 .debug_info    0x000000000000dcc4      0xa91 e:/psdk3v2/psdk3v2-master/ps3dev/ppu/bin/../lib/gcc/powerpc64-ps3-elf/4.5.2/../../../../powerpc64-ps3-elf/lib\libc.a(lib_a-printf.o)
 .debug_info    0x000000000000e755      0xa29 e:/psdk3v2/psdk3v2-master/ps3dev/ppu/bin/../lib/gcc/powerpc64-ps3-elf/4.5.2/../../../../powerpc64-ps3-elf/lib\libc.a(lib_a-putchar.o)
 .debug_info    0x000000000000f17e      0xada e:/psdk3v2/psdk3v2-master/ps3dev/ppu/bin/../lib/gcc/powerpc64-ps3-elf/4.5.2/../../../../powerpc64-ps3-elf/lib\libc.a(lib_a-puts.o)
 .debug_info    0x000000000000fc58       0xd1 e:/psdk3v2/psdk3v2-master/ps3dev/ppu/bin/../lib/gcc/powerpc64-ps3-elf/4.5.2/../../../../powerpc64-ps3-elf/lib\libc.a(lib_a-rand.o)
 .debug_info    0x000000000000fd29      0xa5f e:/psdk3v2/psdk3v2-master/ps3dev/ppu/bin/../lib/gcc/powerpc64-ps3-elf/4.5.2/../../../../powerpc64-ps3-elf/lib\libc.a(lib_a-refill.o)
 .debug_info    0x0000000000010788      0xad1 e:/psdk3v2/psdk3v2-master/ps3dev/ppu/bin/../lib/gcc/powerpc64-ps3-elf/4.5.2/../../../../powerpc64-ps3-elf/lib\libc.a(lib_a-sprintf.o)
 .debug_info    0x0000000000011259      0xbeb e:/psdk3v2/psdk3v2-master/ps3dev/ppu/bin/../lib/gcc/powerpc64-ps3-elf/4.5.2/../../../../powerpc64-ps3-elf/lib\libc.a(lib_a-stdio.o)
 .debug_info    0x0000000000011e44       0xed e:/psdk3v2/psdk3v2-master/ps3dev/ppu/bin/../lib/gcc/powerpc64-ps3-elf/4.5.2/../../../../powerpc64-ps3-elf/lib\libc.a(lib_a-strlen.o)
 .debug_info    0x0000000000011f31     0x10b9 e:/psdk3v2/psdk3v2-master/ps3dev/ppu/bin/../lib/gcc/powerpc64-ps3-elf/4.5.2/../../../../powerpc64-ps3-elf/lib\libc.a(lib_a-svfprintf.o)
 .debug_info    0x0000000000012fea      0x106 e:/psdk3v2/psdk3v2-master/ps3dev/ppu/bin/../lib/gcc/powerpc64-ps3-elf/4.5.2/../../../../powerpc64-ps3-elf/lib\libc.a(lib_a-time.o)
 .debug_info    0x00000000000130f0     0x11e9 e:/psdk3v2/psdk3v2-master/ps3dev/ppu/bin/../lib/gcc/powerpc64-ps3-elf/4.5.2/../../../../powerpc64-ps3-elf/lib\libc.a(lib_a-vfprintf.o)
 .debug_info    0x00000000000142d9      0xa0b e:/psdk3v2/psdk3v2-master/ps3dev/ppu/bin/../lib/gcc/powerpc64-ps3-elf/4.5.2/../../../../powerpc64-ps3-elf/lib\libc.a(lib_a-wsetup.o)
 .debug_info    0x0000000000014ce4      0xaa9 e:/psdk3v2/psdk3v2-master/ps3dev/ppu/bin/../lib/gcc/powerpc64-ps3-elf/4.5.2/../../../../powerpc64-ps3-elf/lib\libc.a(lib_a-__call_atexit.o)
 .debug_info    0x000000000001578d      0xe8c e:/psdk3v2/psdk3v2-master/ps3dev/ppu/bin/../lib/gcc/powerpc64-ps3-elf/4.5.2/../../../../powerpc64-ps3-elf/lib\libc.a(lib_a-dtoa.o)
 .debug_info    0x0000000000016619      0xa34 e:/psdk3v2/psdk3v2-master/ps3dev/ppu/bin/../lib/gcc/powerpc64-ps3-elf/4.5.2/../../../../powerpc64-ps3-elf/lib\libc.a(lib_a-flags.o)
 .debug_info    0x000000000001704d      0xb4c e:/psdk3v2/psdk3v2-master/ps3dev/ppu/bin/../lib/gcc/powerpc64-ps3-elf/4.5.2/../../../../powerpc64-ps3-elf/lib\libc.a(lib_a-fvwrite.o)
 .debug_info    0x0000000000017b99      0xd65 e:/psdk3v2/psdk3v2-master/ps3dev/ppu/bin/../lib/gcc/powerpc64-ps3-elf/4.5.2/../../../../powerpc64-ps3-elf/lib\libc.a(lib_a-locale.o)
 .debug_info    0x00000000000188fe      0x1c7 e:/psdk3v2/psdk3v2-master/ps3dev/ppu/bin/../lib/gcc/powerpc64-ps3-elf/4.5.2/../../../../powerpc64-ps3-elf/lib\libc.a(lib_a-lock_internal.o)
 .debug_info    0x0000000000018ac5      0x141 e:/psdk3v2/psdk3v2-master/ps3dev/ppu/bin/../lib/gcc/powerpc64-ps3-elf/4.5.2/../../../../powerpc64-ps3-elf/lib\libc.a(lib_a-memmove.o)
 .debug_info    0x0000000000018c06     0x161d e:/psdk3v2/psdk3v2-master/ps3dev/ppu/bin/../lib/gcc/powerpc64-ps3-elf/4.5.2/../../../../powerpc64-ps3-elf/lib\libc.a(lib_a-mprec.o)
 .debug_info    0x000000000001a223      0xa74 e:/psdk3v2/psdk3v2-master/ps3dev/ppu/bin/../lib/gcc/powerpc64-ps3-elf/4.5.2/../../../../powerpc64-ps3-elf/lib\libc.a(lib_a-putc.o)
 .debug_info    0x000000000001ac97      0xcb5 e:/psdk3v2/psdk3v2-master/ps3dev/ppu/bin/../lib/gcc/powerpc64-ps3-elf/4.5.2/../../../../powerpc64-ps3-elf/lib\libc.a(lib_a-reallocr.o)
 .debug_info    0x000000000001b94c      0x150 e:/psdk3v2/psdk3v2-master/ps3dev/ppu/bin/../lib/gcc/powerpc64-ps3-elf/4.5.2/../../../../powerpc64-ps3-elf/lib\libc.a(lib_a-s_fpclassify.o)
 .debug_info    0x000000000001ba9c       0xed e:/psdk3v2/psdk3v2-master/ps3dev/ppu/bin/../lib/gcc/powerpc64-ps3-elf/4.5.2/../../../../powerpc64-ps3-elf/lib\libc.a(lib_a-strcmp.o)
 .debug_info    0x000000000001bb89      0xe4a e:/psdk3v2/psdk3v2-master/ps3dev/ppu/bin/../lib/gcc/powerpc64-ps3-elf/4.5.2/../../../../powerpc64-ps3-elf/lib\libc.a(lib_a-svfiprintf.o)
 .debug_info    0x000000000001c9d3      0xf78 e:/psdk3v2/psdk3v2-master/ps3dev/ppu/bin/../lib/gcc/powerpc64-ps3-elf/4.5.2/../../../../powerpc64-ps3-elf/lib\libc.a(lib_a-vfiprintf.o)
 .debug_info    0x000000000001d94b      0xa63 e:/psdk3v2/psdk3v2-master/ps3dev/ppu/bin/../lib/gcc/powerpc64-ps3-elf/4.5.2/../../../../powerpc64-ps3-elf/lib\libc.a(lib_a-wbuf.o)
 .debug_info    0x000000000001e3ae      0xa9b e:/psdk3v2/psdk3v2-master/ps3dev/ppu/bin/../lib/gcc/powerpc64-ps3-elf/4.5.2/../../../../powerpc64-ps3-elf/lib\libc.a(lib_a-__atexit.o)
 .debug_info    0x000000000001ee49       0x9c e:/psdk3v2/psdk3v2-master/ps3dev/ppu/bin/../lib/gcc/powerpc64-ps3-elf/4.5.2/../../../../powerpc64-ps3-elf/lib\libc.a(lib_a-abort.o)
 .debug_info    0x000000000001eee5      0xaeb e:/psdk3v2/psdk3v2-master/ps3dev/ppu/bin/../lib/gcc/powerpc64-ps3-elf/4.5.2/../../../../powerpc64-ps3-elf/lib\libc.a(lib_a-callocr.o)
 .debug_info    0x000000000001f9d0      0xb28 e:/psdk3v2/psdk3v2-master/ps3dev/ppu/bin/../lib/gcc/powerpc64-ps3-elf/4.5.2/../../../../powerpc64-ps3-elf/lib\libc.a(lib_a-fputwc.o)
 .debug_info    0x00000000000204f8      0xbd3 e:/psdk3v2/psdk3v2-master/ps3dev/ppu/bin/../lib/gcc/powerpc64-ps3-elf/4.5.2/../../../../powerpc64-ps3-elf/lib\libc.a(lib_a-signal.o)
 .debug_info    0x00000000000210cb      0xb1a e:/psdk3v2/psdk3v2-master/ps3dev/ppu/bin/../lib/gcc/powerpc64-ps3-elf/4.5.2/../../../../powerpc64-ps3-elf/lib\libc.a(lib_a-wcrtomb.o)
 .debug_info    0x0000000000021be5      0xafd e:/psdk3v2/psdk3v2-master/ps3dev/ppu/bin/../lib/gcc/powerpc64-ps3-elf/4.5.2/../../../../powerpc64-ps3-elf/lib\libc.a(lib_a-wctomb_r.o)
 .debug_info    0x00000000000226e2     0x1580 e:/psdk3v2/psdk3v2-master/ps3dev/ppu/bin/../lib/gcc/powerpc64-ps3-elf/4.5.2/../../../../powerpc64-ps3-elf/lib\libsysbase.a(close.o)
 .debug_info    0x0000000000023c62     0x1581 e:/psdk3v2/psdk3v2-master/ps3dev/ppu/bin/../lib/gcc/powerpc64-ps3-elf/4.5.2/../../../../powerpc64-ps3-elf/lib\libsysbase.a(sbrk.o)
 .debug_info    0x00000000000251e3     0x156d e:/psdk3v2/psdk3v2-master/ps3dev/ppu/bin/../lib/gcc/powerpc64-ps3-elf/4.5.2/../../../../powerpc64-ps3-elf/lib\libsysbase.a(_exit.o)
 .debug_info    0x0000000000026750     0x158c e:/psdk3v2/psdk3v2-master/ps3dev/ppu/bin/../lib/gcc/powerpc64-ps3-elf/4.5.2/../../../../powerpc64-ps3-elf/lib\libsysbase.a(fstat.o)
 .debug_info    0x0000000000027cdc     0x1580 e:/psdk3v2/psdk3v2-master/ps3dev/ppu/bin/../lib/gcc/powerpc64-ps3-elf/4.5.2/../../../../powerpc64-ps3-elf/lib\libsysbase.a(isatty.o)
 .debug_info    0x000000000002925c     0x159c e:/psdk3v2/psdk3v2-master/ps3dev/ppu/bin/../lib/gcc/powerpc64-ps3-elf/4.5.2/../../../../powerpc64-ps3-elf/lib\libsysbase.a(lseek.o)
 .debug_info    0x000000000002a7f8     0x159d e:/psdk3v2/psdk3v2-master/ps3dev/ppu/bin/../lib/gcc/powerpc64-ps3-elf/4.5.2/../../../../powerpc64-ps3-elf/lib\libsysbase.a(open.o)
 .debug_info    0x000000000002bd95     0x159c e:/psdk3v2/psdk3v2-master/ps3dev/ppu/bin/../lib/gcc/powerpc64-ps3-elf/4.5.2/../../../../powerpc64-ps3-elf/lib\libsysbase.a(read.o)
 .debug_info    0x000000000002d331     0x159c e:/psdk3v2/psdk3v2-master/ps3dev/ppu/bin/../lib/gcc/powerpc64-ps3-elf/4.5.2/../../../../powerpc64-ps3-elf/lib\libsysbase.a(write.o)
 .debug_info    0x000000000002e8cd     0x16a5 e:/psdk3v2/psdk3v2-master/ps3dev/ppu/bin/../lib/gcc/powerpc64-ps3-elf/4.5.2/../../../../powerpc64-ps3-elf/lib\libsysbase.a(lock.o)
 .debug_info    0x000000000002ff72     0x1572 e:/psdk3v2/psdk3v2-master/ps3dev/ppu/bin/../lib/gcc/powerpc64-ps3-elf/4.5.2/../../../../powerpc64-ps3-elf/lib\libsysbase.a(getpid.o)
 .debug_info    0x00000000000314e4      0x9ff e:/psdk3v2/psdk3v2-master/ps3dev/ppu/bin/../lib/gcc/powerpc64-ps3-elf/4.5.2/../../../../powerpc64-ps3-elf/lib\libsysbase.a(kill.o)
 .debug_info    0x0000000000031ee3     0x158e e:/psdk3v2/psdk3v2-master/ps3dev/ppu/bin/../lib/gcc/powerpc64-ps3-elf/4.5.2/../../../../powerpc64-ps3-elf/lib\libsysbase.a(gettod.o)
 .debug_info    0x0000000000033471       0xa6 e:/psdk3v2/psdk3v2-master/ps3dev/ppu/bin/../lib/gcc/powerpc64-ps3-elf/4.5.2/../../../../powerpc64-ps3-elf/lib\libc.a(lib_a-errno.o)
 .debug_info    0x0000000000033517      0xad1 e:/psdk3v2/psdk3v2-master/ps3dev/ppu/bin/../lib/gcc/powerpc64-ps3-elf/4.5.2/../../../../powerpc64-ps3-elf/lib\libc.a(lib_a-sscanf.o)
 .debug_info    0x0000000000033fe8      0x138 e:/psdk3v2/psdk3v2-master/ps3dev/ppu/bin/../lib/gcc/powerpc64-ps3-elf/4.5.2/../../../../powerpc64-ps3-elf/lib\libc.a(lib_a-strncpy.o)
 .debug_info    0x0000000000034120      0xed2 e:/psdk3v2/psdk3v2-master/ps3dev/ppu/bin/../lib/gcc/powerpc64-ps3-elf/4.5.2/../../../../powerpc64-ps3-elf/lib\libc.a(lib_a-svfscanf.o)
 .debug_info    0x0000000000034ff2       0x9b e:/psdk3v2/psdk3v2-master/ps3dev/ppu/bin/../lib/gcc/powerpc64-ps3-elf/4.5.2/../../../../powerpc64-ps3-elf/lib\libc.a(lib_a-ctype_.o)
 .debug_info    0x000000000003508d       0xe2 e:/psdk3v2/psdk3v2-master/ps3dev/ppu/bin/../lib/gcc/powerpc64-ps3-elf/4.5.2/../../../../powerpc64-ps3-elf/lib\libc.a(lib_a-iswspace.o)
 .debug_info    0x000000000003516f      0xb15 e:/psdk3v2/psdk3v2-master/ps3dev/ppu/bin/../lib/gcc/powerpc64-ps3-elf/4.5.2/../../../../powerpc64-ps3-elf/lib\libc.a(lib_a-mbrtowc.o)
 .debug_info    0x0000000000035c84      0xb2c e:/psdk3v2/psdk3v2-master/ps3dev/ppu/bin/../lib/gcc/powerpc64-ps3-elf/4.5.2/../../../../powerpc64-ps3-elf/lib\libc.a(lib_a-mbtowc_r.o)
 .debug_info    0x00000000000367b0      0x10f e:/psdk3v2/psdk3v2-master/ps3dev/ppu/bin/../lib/gcc/powerpc64-ps3-elf/4.5.2/../../../../powerpc64-ps3-elf/lib\libc.a(lib_a-sccl.o)
 .debug_info    0x00000000000368bf       0xdc e:/psdk3v2/psdk3v2-master/ps3dev/ppu/bin/../lib/gcc/powerpc64-ps3-elf/4.5.2/../../../../powerpc64-ps3-elf/lib\libc.a(lib_a-sf_nan.o)
 .debug_info    0x000000000003699b     0x107f e:/psdk3v2/psdk3v2-master/ps3dev/ppu/bin/../lib/gcc/powerpc64-ps3-elf/4.5.2/../../../../powerpc64-ps3-elf/lib\libc.a(lib_a-strtod.o)
 .debug_info    0x0000000000037a1a      0xaf7 e:/psdk3v2/psdk3v2-master/ps3dev/ppu/bin/../lib/gcc/powerpc64-ps3-elf/4.5.2/../../../../powerpc64-ps3-elf/lib\libc.a(lib_a-strtol.o)
 .debug_info    0x0000000000038511      0xaa6 e:/psdk3v2/psdk3v2-master/ps3dev/ppu/bin/../lib/gcc/powerpc64-ps3-elf/4.5.2/../../../../powerpc64-ps3-elf/lib\libc.a(lib_a-strtoll_r.o)
 .debug_info    0x0000000000038fb7      0xaf7 e:/psdk3v2/psdk3v2-master/ps3dev/ppu/bin/../lib/gcc/powerpc64-ps3-elf/4.5.2/../../../../powerpc64-ps3-elf/lib\libc.a(lib_a-strtoul.o)
 .debug_info    0x0000000000039aae      0xaa6 e:/psdk3v2/psdk3v2-master/ps3dev/ppu/bin/../lib/gcc/powerpc64-ps3-elf/4.5.2/../../../../powerpc64-ps3-elf/lib\libc.a(lib_a-strtoull_r.o)
 .debug_info    0x000000000003a554      0xf0f e:/psdk3v2/psdk3v2-master/ps3dev/ppu/bin/../lib/gcc/powerpc64-ps3-elf/4.5.2/../../../../powerpc64-ps3-elf/lib\libc.a(lib_a-svfiscanf.o)
 .debug_info    0x000000000003b463      0xabe e:/psdk3v2/psdk3v2-master/ps3dev/ppu/bin/../lib/gcc/powerpc64-ps3-elf/4.5.2/../../../../powerpc64-ps3-elf/lib\libc.a(lib_a-ungetc.o)
 .debug_info    0x000000000003bf21      0xf56 e:/psdk3v2/psdk3v2-master/ps3dev/ppu/bin/../lib/gcc/powerpc64-ps3-elf/4.5.2/../../../../powerpc64-ps3-elf/lib\libc.a(lib_a-gdtoa-gethex.o)
 .debug_info    0x000000000003ce77      0x348 e:/psdk3v2/psdk3v2-master/ps3dev/ppu/bin/../lib/gcc/powerpc64-ps3-elf/4.5.2/../../../../powerpc64-ps3-elf/lib\libc.a(lib_a-gdtoa-hexnan.o)
 .debug_info    0x000000000003d1bf      0x105 e:/psdk3v2/psdk3v2-master/ps3dev/ppu/bin/../lib/gcc/powerpc64-ps3-elf/4.5.2/../../../../powerpc64-ps3-elf/lib\libc.a(lib_a-strncmp.o)

.debug_abbrev   0x0000000000000000     0x91f5
 *(.debug_abbrev)
 .debug_abbrev  0x0000000000000000      0x1a0 e:/psdk3v2/psdk3v2-master/ps3dev/ppu/bin/../lib/gcc/powerpc64-ps3-elf/4.5.2/../../../../powerpc64-ps3-elf/lib\libsysbase.a(syscalls.o)
 .debug_abbrev  0x00000000000001a0      0x18c e:/psdk3v2/psdk3v2-master/ps3dev/ppu/bin/../lib/gcc/powerpc64-ps3-elf/4.5.2/../../../../powerpc64-ps3-elf/lib\libc.a(lib_a-exit.o)
 .debug_abbrev  0x000000000000032c      0x1b2 e:/psdk3v2/psdk3v2-master/ps3dev/ppu/bin/../lib/gcc/powerpc64-ps3-elf/4.5.2/../../../../powerpc64-ps3-elf/lib\libc.a(lib_a-fclose.o)
 .debug_abbrev  0x00000000000004de      0x1cc e:/psdk3v2/psdk3v2-master/ps3dev/ppu/bin/../lib/gcc/powerpc64-ps3-elf/4.5.2/../../../../powerpc64-ps3-elf/lib\libc.a(lib_a-fflush.o)
 .debug_abbrev  0x00000000000006aa      0x1a3 e:/psdk3v2/psdk3v2-master/ps3dev/ppu/bin/../lib/gcc/powerpc64-ps3-elf/4.5.2/../../../../powerpc64-ps3-elf/lib\libc.a(lib_a-fgets.o)
 .debug_abbrev  0x000000000000084d      0x2b9 e:/psdk3v2/psdk3v2-master/ps3dev/ppu/bin/../lib/gcc/powerpc64-ps3-elf/4.5.2/../../../../powerpc64-ps3-elf/lib\libc.a(lib_a-findfp.o)
 .debug_abbrev  0x0000000000000b06      0x1c1 e:/psdk3v2/psdk3v2-master/ps3dev/ppu/bin/../lib/gcc/powerpc64-ps3-elf/4.5.2/../../../../powerpc64-ps3-elf/lib\libc.a(lib_a-fopen.o)
 .debug_abbrev  0x0000000000000cc7      0x1f3 e:/psdk3v2/psdk3v2-master/ps3dev/ppu/bin/../lib/gcc/powerpc64-ps3-elf/4.5.2/../../../../powerpc64-ps3-elf/lib\libc.a(lib_a-fread.o)
 .debug_abbrev  0x0000000000000eba      0x1f9 e:/psdk3v2/psdk3v2-master/ps3dev/ppu/bin/../lib/gcc/powerpc64-ps3-elf/4.5.2/../../../../powerpc64-ps3-elf/lib\libc.a(lib_a-freer.o)
 .debug_abbrev  0x00000000000010b3      0x213 e:/psdk3v2/psdk3v2-master/ps3dev/ppu/bin/../lib/gcc/powerpc64-ps3-elf/4.5.2/../../../../powerpc64-ps3-elf/lib\libc.a(lib_a-fseek.o)
 .debug_abbrev  0x00000000000012c6      0x1a3 e:/psdk3v2/psdk3v2-master/ps3dev/ppu/bin/../lib/gcc/powerpc64-ps3-elf/4.5.2/../../../../powerpc64-ps3-elf/lib\libc.a(lib_a-ftell.o)
 .debug_abbrev  0x0000000000001469      0x214 e:/psdk3v2/psdk3v2-master/ps3dev/ppu/bin/../lib/gcc/powerpc64-ps3-elf/4.5.2/../../../../powerpc64-ps3-elf/lib\libc.a(lib_a-fwalk.o)
 .debug_abbrev  0x000000000000167d      0x1c6 e:/psdk3v2/psdk3v2-master/ps3dev/ppu/bin/../lib/gcc/powerpc64-ps3-elf/4.5.2/../../../../powerpc64-ps3-elf/lib\libc.a(lib_a-fwrite.o)
 .debug_abbrev  0x0000000000001843      0x1a9 e:/psdk3v2/psdk3v2-master/ps3dev/ppu/bin/../lib/gcc/powerpc64-ps3-elf/4.5.2/../../../../powerpc64-ps3-elf/lib\libc.a(lib_a-getreent.o)
 .debug_abbrev  0x00000000000019ec      0x173 e:/psdk3v2/psdk3v2-master/ps3dev/ppu/bin/../lib/gcc/powerpc64-ps3-elf/4.5.2/../../../../powerpc64-ps3-elf/lib\libc.a(lib_a-impure.o)
 .debug_abbrev  0x0000000000001b5f       0xb0 e:/psdk3v2/psdk3v2-master/ps3dev/ppu/bin/../lib/gcc/powerpc64-ps3-elf/4.5.2/../../../../powerpc64-ps3-elf/lib\libc.a(lib_a-lock_recursive.o)
 .debug_abbrev  0x0000000000001c0f      0x1a8 e:/psdk3v2/psdk3v2-master/ps3dev/ppu/bin/../lib/gcc/powerpc64-ps3-elf/4.5.2/../../../../powerpc64-ps3-elf/lib\libc.a(lib_a-makebuf.o)
 .debug_abbrev  0x0000000000001db7       0x7d e:/psdk3v2/psdk3v2-master/ps3dev/ppu/bin/../lib/gcc/powerpc64-ps3-elf/4.5.2/../../../../powerpc64-ps3-elf/lib\libc.a(lib_a-malloc.o)
 .debug_abbrev  0x0000000000001e34      0x242 e:/psdk3v2/psdk3v2-master/ps3dev/ppu/bin/../lib/gcc/powerpc64-ps3-elf/4.5.2/../../../../powerpc64-ps3-elf/lib\libc.a(lib_a-mallocr.o)
 .debug_abbrev  0x0000000000002076       0xb9 e:/psdk3v2/psdk3v2-master/ps3dev/ppu/bin/../lib/gcc/powerpc64-ps3-elf/4.5.2/../../../../powerpc64-ps3-elf/lib\libc.a(lib_a-memchr.o)
 .debug_abbrev  0x000000000000212f       0xaa e:/psdk3v2/psdk3v2-master/ps3dev/ppu/bin/../lib/gcc/powerpc64-ps3-elf/4.5.2/../../../../powerpc64-ps3-elf/lib\libc.a(lib_a-memcpy.o)
 .debug_abbrev  0x00000000000021d9       0x8f e:/psdk3v2/psdk3v2-master/ps3dev/ppu/bin/../lib/gcc/powerpc64-ps3-elf/4.5.2/../../../../powerpc64-ps3-elf/lib\libc.a(lib_a-memset.o)
 .debug_abbrev  0x0000000000002268      0x188 e:/psdk3v2/psdk3v2-master/ps3dev/ppu/bin/../lib/gcc/powerpc64-ps3-elf/4.5.2/../../../../powerpc64-ps3-elf/lib\libc.a(lib_a-mlock.o)
 .debug_abbrev  0x00000000000023f0      0x1cf e:/psdk3v2/psdk3v2-master/ps3dev/ppu/bin/../lib/gcc/powerpc64-ps3-elf/4.5.2/../../../../powerpc64-ps3-elf/lib\libc.a(lib_a-printf.o)
 .debug_abbrev  0x00000000000025bf      0x194 e:/psdk3v2/psdk3v2-master/ps3dev/ppu/bin/../lib/gcc/powerpc64-ps3-elf/4.5.2/../../../../powerpc64-ps3-elf/lib\libc.a(lib_a-putchar.o)
 .debug_abbrev  0x0000000000002753      0x1b7 e:/psdk3v2/psdk3v2-master/ps3dev/ppu/bin/../lib/gcc/powerpc64-ps3-elf/4.5.2/../../../../powerpc64-ps3-elf/lib\libc.a(lib_a-puts.o)
 .debug_abbrev  0x000000000000290a       0x69 e:/psdk3v2/psdk3v2-master/ps3dev/ppu/bin/../lib/gcc/powerpc64-ps3-elf/4.5.2/../../../../powerpc64-ps3-elf/lib\libc.a(lib_a-rand.o)
 .debug_abbrev  0x0000000000002973      0x1a5 e:/psdk3v2/psdk3v2-master/ps3dev/ppu/bin/../lib/gcc/powerpc64-ps3-elf/4.5.2/../../../../powerpc64-ps3-elf/lib\libc.a(lib_a-refill.o)
 .debug_abbrev  0x0000000000002b18      0x1c0 e:/psdk3v2/psdk3v2-master/ps3dev/ppu/bin/../lib/gcc/powerpc64-ps3-elf/4.5.2/../../../../powerpc64-ps3-elf/lib\libc.a(lib_a-sprintf.o)
 .debug_abbrev  0x0000000000002cd8      0x205 e:/psdk3v2/psdk3v2-master/ps3dev/ppu/bin/../lib/gcc/powerpc64-ps3-elf/4.5.2/../../../../powerpc64-ps3-elf/lib\libc.a(lib_a-stdio.o)
 .debug_abbrev  0x0000000000002edd       0x80 e:/psdk3v2/psdk3v2-master/ps3dev/ppu/bin/../lib/gcc/powerpc64-ps3-elf/4.5.2/../../../../powerpc64-ps3-elf/lib\libc.a(lib_a-strlen.o)
 .debug_abbrev  0x0000000000002f5d      0x304 e:/psdk3v2/psdk3v2-master/ps3dev/ppu/bin/../lib/gcc/powerpc64-ps3-elf/4.5.2/../../../../powerpc64-ps3-elf/lib\libc.a(lib_a-svfprintf.o)
 .debug_abbrev  0x0000000000003261       0xa4 e:/psdk3v2/psdk3v2-master/ps3dev/ppu/bin/../lib/gcc/powerpc64-ps3-elf/4.5.2/../../../../powerpc64-ps3-elf/lib\libc.a(lib_a-time.o)
 .debug_abbrev  0x0000000000003305      0x324 e:/psdk3v2/psdk3v2-master/ps3dev/ppu/bin/../lib/gcc/powerpc64-ps3-elf/4.5.2/../../../../powerpc64-ps3-elf/lib\libc.a(lib_a-vfprintf.o)
 .debug_abbrev  0x0000000000003629      0x17d e:/psdk3v2/psdk3v2-master/ps3dev/ppu/bin/../lib/gcc/powerpc64-ps3-elf/4.5.2/../../../../powerpc64-ps3-elf/lib\libc.a(lib_a-wsetup.o)
 .debug_abbrev  0x00000000000037a6      0x1eb e:/psdk3v2/psdk3v2-master/ps3dev/ppu/bin/../lib/gcc/powerpc64-ps3-elf/4.5.2/../../../../powerpc64-ps3-elf/lib\libc.a(lib_a-__call_atexit.o)
 .debug_abbrev  0x0000000000003991      0x21a e:/psdk3v2/psdk3v2-master/ps3dev/ppu/bin/../lib/gcc/powerpc64-ps3-elf/4.5.2/../../../../powerpc64-ps3-elf/lib\libc.a(lib_a-dtoa.o)
 .debug_abbrev  0x0000000000003bab      0x19b e:/psdk3v2/psdk3v2-master/ps3dev/ppu/bin/../lib/gcc/powerpc64-ps3-elf/4.5.2/../../../../powerpc64-ps3-elf/lib\libc.a(lib_a-flags.o)
 .debug_abbrev  0x0000000000003d46      0x1b4 e:/psdk3v2/psdk3v2-master/ps3dev/ppu/bin/../lib/gcc/powerpc64-ps3-elf/4.5.2/../../../../powerpc64-ps3-elf/lib\libc.a(lib_a-fvwrite.o)
 .debug_abbrev  0x0000000000003efa      0x25a e:/psdk3v2/psdk3v2-master/ps3dev/ppu/bin/../lib/gcc/powerpc64-ps3-elf/4.5.2/../../../../powerpc64-ps3-elf/lib\libc.a(lib_a-locale.o)
 .debug_abbrev  0x0000000000004154       0xc1 e:/psdk3v2/psdk3v2-master/ps3dev/ppu/bin/../lib/gcc/powerpc64-ps3-elf/4.5.2/../../../../powerpc64-ps3-elf/lib\libc.a(lib_a-lock_internal.o)
 .debug_abbrev  0x0000000000004215       0xaa e:/psdk3v2/psdk3v2-master/ps3dev/ppu/bin/../lib/gcc/powerpc64-ps3-elf/4.5.2/../../../../powerpc64-ps3-elf/lib\libc.a(lib_a-memmove.o)
 .debug_abbrev  0x00000000000042bf      0x315 e:/psdk3v2/psdk3v2-master/ps3dev/ppu/bin/../lib/gcc/powerpc64-ps3-elf/4.5.2/../../../../powerpc64-ps3-elf/lib\libc.a(lib_a-mprec.o)
 .debug_abbrev  0x00000000000045d4      0x1a3 e:/psdk3v2/psdk3v2-master/ps3dev/ppu/bin/../lib/gcc/powerpc64-ps3-elf/4.5.2/../../../../powerpc64-ps3-elf/lib\libc.a(lib_a-putc.o)
 .debug_abbrev  0x0000000000004777      0x1ea e:/psdk3v2/psdk3v2-master/ps3dev/ppu/bin/../lib/gcc/powerpc64-ps3-elf/4.5.2/../../../../powerpc64-ps3-elf/lib\libc.a(lib_a-reallocr.o)
 .debug_abbrev  0x0000000000004961       0xc7 e:/psdk3v2/psdk3v2-master/ps3dev/ppu/bin/../lib/gcc/powerpc64-ps3-elf/4.5.2/../../../../powerpc64-ps3-elf/lib\libc.a(lib_a-s_fpclassify.o)
 .debug_abbrev  0x0000000000004a28       0x73 e:/psdk3v2/psdk3v2-master/ps3dev/ppu/bin/../lib/gcc/powerpc64-ps3-elf/4.5.2/../../../../powerpc64-ps3-elf/lib\libc.a(lib_a-strcmp.o)
 .debug_abbrev  0x0000000000004a9b      0x26f e:/psdk3v2/psdk3v2-master/ps3dev/ppu/bin/../lib/gcc/powerpc64-ps3-elf/4.5.2/../../../../powerpc64-ps3-elf/lib\libc.a(lib_a-svfiprintf.o)
 .debug_abbrev  0x0000000000004d0a      0x2c3 e:/psdk3v2/psdk3v2-master/ps3dev/ppu/bin/../lib/gcc/powerpc64-ps3-elf/4.5.2/../../../../powerpc64-ps3-elf/lib\libc.a(lib_a-vfiprintf.o)
 .debug_abbrev  0x0000000000004fcd      0x1a3 e:/psdk3v2/psdk3v2-master/ps3dev/ppu/bin/../lib/gcc/powerpc64-ps3-elf/4.5.2/../../../../powerpc64-ps3-elf/lib\libc.a(lib_a-wbuf.o)
 .debug_abbrev  0x0000000000005170      0x1f5 e:/psdk3v2/psdk3v2-master/ps3dev/ppu/bin/../lib/gcc/powerpc64-ps3-elf/4.5.2/../../../../powerpc64-ps3-elf/lib\libc.a(lib_a-__atexit.o)
 .debug_abbrev  0x0000000000005365       0x41 e:/psdk3v2/psdk3v2-master/ps3dev/ppu/bin/../lib/gcc/powerpc64-ps3-elf/4.5.2/../../../../powerpc64-ps3-elf/lib\libc.a(lib_a-abort.o)
 .debug_abbrev  0x00000000000053a6      0x1c9 e:/psdk3v2/psdk3v2-master/ps3dev/ppu/bin/../lib/gcc/powerpc64-ps3-elf/4.5.2/../../../../powerpc64-ps3-elf/lib\libc.a(lib_a-callocr.o)
 .debug_abbrev  0x000000000000556f      0x201 e:/psdk3v2/psdk3v2-master/ps3dev/ppu/bin/../lib/gcc/powerpc64-ps3-elf/4.5.2/../../../../powerpc64-ps3-elf/lib\libc.a(lib_a-fputwc.o)
 .debug_abbrev  0x0000000000005770      0x1d6 e:/psdk3v2/psdk3v2-master/ps3dev/ppu/bin/../lib/gcc/powerpc64-ps3-elf/4.5.2/../../../../powerpc64-ps3-elf/lib\libc.a(lib_a-signal.o)
 .debug_abbrev  0x0000000000005946      0x1ac e:/psdk3v2/psdk3v2-master/ps3dev/ppu/bin/../lib/gcc/powerpc64-ps3-elf/4.5.2/../../../../powerpc64-ps3-elf/lib\libc.a(lib_a-wcrtomb.o)
 .debug_abbrev  0x0000000000005af2      0x1f4 e:/psdk3v2/psdk3v2-master/ps3dev/ppu/bin/../lib/gcc/powerpc64-ps3-elf/4.5.2/../../../../powerpc64-ps3-elf/lib\libc.a(lib_a-wctomb_r.o)
 .debug_abbrev  0x0000000000005ce6      0x1ca e:/psdk3v2/psdk3v2-master/ps3dev/ppu/bin/../lib/gcc/powerpc64-ps3-elf/4.5.2/../../../../powerpc64-ps3-elf/lib\libsysbase.a(close.o)
 .debug_abbrev  0x0000000000005eb0      0x1d9 e:/psdk3v2/psdk3v2-master/ps3dev/ppu/bin/../lib/gcc/powerpc64-ps3-elf/4.5.2/../../../../powerpc64-ps3-elf/lib\libsysbase.a(sbrk.o)
 .debug_abbrev  0x0000000000006089      0x1c8 e:/psdk3v2/psdk3v2-master/ps3dev/ppu/bin/../lib/gcc/powerpc64-ps3-elf/4.5.2/../../../../powerpc64-ps3-elf/lib\libsysbase.a(_exit.o)
 .debug_abbrev  0x0000000000006251      0x1ca e:/psdk3v2/psdk3v2-master/ps3dev/ppu/bin/../lib/gcc/powerpc64-ps3-elf/4.5.2/../../../../powerpc64-ps3-elf/lib\libsysbase.a(fstat.o)
 .debug_abbrev  0x000000000000641b      0x1ca e:/psdk3v2/psdk3v2-master/ps3dev/ppu/bin/../lib/gcc/powerpc64-ps3-elf/4.5.2/../../../../powerpc64-ps3-elf/lib\libsysbase.a(isatty.o)
 .debug_abbrev  0x00000000000065e5      0x1ca e:/psdk3v2/psdk3v2-master/ps3dev/ppu/bin/../lib/gcc/powerpc64-ps3-elf/4.5.2/../../../../powerpc64-ps3-elf/lib\libsysbase.a(lseek.o)
 .debug_abbrev  0x00000000000067af      0x1d9 e:/psdk3v2/psdk3v2-master/ps3dev/ppu/bin/../lib/gcc/powerpc64-ps3-elf/4.5.2/../../../../powerpc64-ps3-elf/lib\libsysbase.a(open.o)
 .debug_abbrev  0x0000000000006988      0x1ca e:/psdk3v2/psdk3v2-master/ps3dev/ppu/bin/../lib/gcc/powerpc64-ps3-elf/4.5.2/../../../../powerpc64-ps3-elf/lib\libsysbase.a(read.o)
 .debug_abbrev  0x0000000000006b52      0x1ca e:/psdk3v2/psdk3v2-master/ps3dev/ppu/bin/../lib/gcc/powerpc64-ps3-elf/4.5.2/../../../../powerpc64-ps3-elf/lib\libsysbase.a(write.o)
 .debug_abbrev  0x0000000000006d1c      0x1d9 e:/psdk3v2/psdk3v2-master/ps3dev/ppu/bin/../lib/gcc/powerpc64-ps3-elf/4.5.2/../../../../powerpc64-ps3-elf/lib\libsysbase.a(lock.o)
 .debug_abbrev  0x0000000000006ef5      0x1ca e:/psdk3v2/psdk3v2-master/ps3dev/ppu/bin/../lib/gcc/powerpc64-ps3-elf/4.5.2/../../../../powerpc64-ps3-elf/lib\libsysbase.a(getpid.o)
 .debug_abbrev  0x00000000000070bf      0x18a e:/psdk3v2/psdk3v2-master/ps3dev/ppu/bin/../lib/gcc/powerpc64-ps3-elf/4.5.2/../../../../powerpc64-ps3-elf/lib\libsysbase.a(kill.o)
 .debug_abbrev  0x0000000000007249      0x1d9 e:/psdk3v2/psdk3v2-master/ps3dev/ppu/bin/../lib/gcc/powerpc64-ps3-elf/4.5.2/../../../../powerpc64-ps3-elf/lib\libsysbase.a(gettod.o)
 .debug_abbrev  0x0000000000007422       0x4c e:/psdk3v2/psdk3v2-master/ps3dev/ppu/bin/../lib/gcc/powerpc64-ps3-elf/4.5.2/../../../../powerpc64-ps3-elf/lib\libc.a(lib_a-errno.o)
 .debug_abbrev  0x000000000000746e      0x1c0 e:/psdk3v2/psdk3v2-master/ps3dev/ppu/bin/../lib/gcc/powerpc64-ps3-elf/4.5.2/../../../../powerpc64-ps3-elf/lib\libc.a(lib_a-sscanf.o)
 .debug_abbrev  0x000000000000762e       0x9e e:/psdk3v2/psdk3v2-master/ps3dev/ppu/bin/../lib/gcc/powerpc64-ps3-elf/4.5.2/../../../../powerpc64-ps3-elf/lib\libc.a(lib_a-strncpy.o)
 .debug_abbrev  0x00000000000076cc      0x254 e:/psdk3v2/psdk3v2-master/ps3dev/ppu/bin/../lib/gcc/powerpc64-ps3-elf/4.5.2/../../../../powerpc64-ps3-elf/lib\libc.a(lib_a-svfscanf.o)
 .debug_abbrev  0x0000000000007920       0x63 e:/psdk3v2/psdk3v2-master/ps3dev/ppu/bin/../lib/gcc/powerpc64-ps3-elf/4.5.2/../../../../powerpc64-ps3-elf/lib\libc.a(lib_a-ctype_.o)
 .debug_abbrev  0x0000000000007983       0x82 e:/psdk3v2/psdk3v2-master/ps3dev/ppu/bin/../lib/gcc/powerpc64-ps3-elf/4.5.2/../../../../powerpc64-ps3-elf/lib\libc.a(lib_a-iswspace.o)
 .debug_abbrev  0x0000000000007a05      0x19d e:/psdk3v2/psdk3v2-master/ps3dev/ppu/bin/../lib/gcc/powerpc64-ps3-elf/4.5.2/../../../../powerpc64-ps3-elf/lib\libc.a(lib_a-mbrtowc.o)
 .debug_abbrev  0x0000000000007ba2      0x203 e:/psdk3v2/psdk3v2-master/ps3dev/ppu/bin/../lib/gcc/powerpc64-ps3-elf/4.5.2/../../../../powerpc64-ps3-elf/lib\libc.a(lib_a-mbtowc_r.o)
 .debug_abbrev  0x0000000000007da5       0x86 e:/psdk3v2/psdk3v2-master/ps3dev/ppu/bin/../lib/gcc/powerpc64-ps3-elf/4.5.2/../../../../powerpc64-ps3-elf/lib\libc.a(lib_a-sccl.o)
 .debug_abbrev  0x0000000000007e2b       0x71 e:/psdk3v2/psdk3v2-master/ps3dev/ppu/bin/../lib/gcc/powerpc64-ps3-elf/4.5.2/../../../../powerpc64-ps3-elf/lib\libc.a(lib_a-sf_nan.o)
 .debug_abbrev  0x0000000000007e9c      0x2fe e:/psdk3v2/psdk3v2-master/ps3dev/ppu/bin/../lib/gcc/powerpc64-ps3-elf/4.5.2/../../../../powerpc64-ps3-elf/lib\libc.a(lib_a-strtod.o)
 .debug_abbrev  0x000000000000819a      0x1e3 e:/psdk3v2/psdk3v2-master/ps3dev/ppu/bin/../lib/gcc/powerpc64-ps3-elf/4.5.2/../../../../powerpc64-ps3-elf/lib\libc.a(lib_a-strtol.o)
 .debug_abbrev  0x000000000000837d      0x1bb e:/psdk3v2/psdk3v2-master/ps3dev/ppu/bin/../lib/gcc/powerpc64-ps3-elf/4.5.2/../../../../powerpc64-ps3-elf/lib\libc.a(lib_a-strtoll_r.o)
 .debug_abbrev  0x0000000000008538      0x1e3 e:/psdk3v2/psdk3v2-master/ps3dev/ppu/bin/../lib/gcc/powerpc64-ps3-elf/4.5.2/../../../../powerpc64-ps3-elf/lib\libc.a(lib_a-strtoul.o)
 .debug_abbrev  0x000000000000871b      0x1bb e:/psdk3v2/psdk3v2-master/ps3dev/ppu/bin/../lib/gcc/powerpc64-ps3-elf/4.5.2/../../../../powerpc64-ps3-elf/lib\libc.a(lib_a-strtoull_r.o)
 .debug_abbrev  0x00000000000088d6      0x24b e:/psdk3v2/psdk3v2-master/ps3dev/ppu/bin/../lib/gcc/powerpc64-ps3-elf/4.5.2/../../../../powerpc64-ps3-elf/lib\libc.a(lib_a-svfiscanf.o)
 .debug_abbrev  0x0000000000008b21      0x1cb e:/psdk3v2/psdk3v2-master/ps3dev/ppu/bin/../lib/gcc/powerpc64-ps3-elf/4.5.2/../../../../powerpc64-ps3-elf/lib\libc.a(lib_a-ungetc.o)
 .debug_abbrev  0x0000000000008cec      0x32b e:/psdk3v2/psdk3v2-master/ps3dev/ppu/bin/../lib/gcc/powerpc64-ps3-elf/4.5.2/../../../../powerpc64-ps3-elf/lib\libc.a(lib_a-gdtoa-gethex.o)
 .debug_abbrev  0x0000000000009017      0x15e e:/psdk3v2/psdk3v2-master/ps3dev/ppu/bin/../lib/gcc/powerpc64-ps3-elf/4.5.2/../../../../powerpc64-ps3-elf/lib\libc.a(lib_a-gdtoa-hexnan.o)
 .debug_abbrev  0x0000000000009175       0x80 e:/psdk3v2/psdk3v2-master/ps3dev/ppu/bin/../lib/gcc/powerpc64-ps3-elf/4.5.2/../../../../powerpc64-ps3-elf/lib\libc.a(lib_a-strncmp.o)

.debug_line     0x0000000000000000    0x13782
 *(.debug_line)
 .debug_line    0x0000000000000000      0x2e0 e:/psdk3v2/psdk3v2-master/ps3dev/ppu/bin/../lib/gcc/powerpc64-ps3-elf/4.5.2/../../../../powerpc64-ps3-elf/lib\libsysbase.a(syscalls.o)
 .debug_line    0x00000000000002e0      0x2d4 e:/psdk3v2/psdk3v2-master/ps3dev/ppu/bin/../lib/gcc/powerpc64-ps3-elf/4.5.2/../../../../powerpc64-ps3-elf/lib\libc.a(lib_a-exit.o)
 .debug_line    0x00000000000005b4      0x33c e:/psdk3v2/psdk3v2-master/ps3dev/ppu/bin/../lib/gcc/powerpc64-ps3-elf/4.5.2/../../../../powerpc64-ps3-elf/lib\libc.a(lib_a-fclose.o)
 .debug_line    0x00000000000008f0      0x3fd e:/psdk3v2/psdk3v2-master/ps3dev/ppu/bin/../lib/gcc/powerpc64-ps3-elf/4.5.2/../../../../powerpc64-ps3-elf/lib\libc.a(lib_a-fflush.o)
 .debug_line    0x0000000000000ced      0x364 e:/psdk3v2/psdk3v2-master/ps3dev/ppu/bin/../lib/gcc/powerpc64-ps3-elf/4.5.2/../../../../powerpc64-ps3-elf/lib\libc.a(lib_a-fgets.o)
 .debug_line    0x0000000000001051      0x4e1 e:/psdk3v2/psdk3v2-master/ps3dev/ppu/bin/../lib/gcc/powerpc64-ps3-elf/4.5.2/../../../../powerpc64-ps3-elf/lib\libc.a(lib_a-findfp.o)
 .debug_line    0x0000000000001532      0x329 e:/psdk3v2/psdk3v2-master/ps3dev/ppu/bin/../lib/gcc/powerpc64-ps3-elf/4.5.2/../../../../powerpc64-ps3-elf/lib\libc.a(lib_a-fopen.o)
 .debug_line    0x000000000000185b      0x3f0 e:/psdk3v2/psdk3v2-master/ps3dev/ppu/bin/../lib/gcc/powerpc64-ps3-elf/4.5.2/../../../../powerpc64-ps3-elf/lib\libc.a(lib_a-fread.o)
 .debug_line    0x0000000000001c4b      0x3c1 e:/psdk3v2/psdk3v2-master/ps3dev/ppu/bin/../lib/gcc/powerpc64-ps3-elf/4.5.2/../../../../powerpc64-ps3-elf/lib\libc.a(lib_a-freer.o)
 .debug_line    0x000000000000200c      0x459 e:/psdk3v2/psdk3v2-master/ps3dev/ppu/bin/../lib/gcc/powerpc64-ps3-elf/4.5.2/../../../../powerpc64-ps3-elf/lib\libc.a(lib_a-fseek.o)
 .debug_line    0x0000000000002465      0x346 e:/psdk3v2/psdk3v2-master/ps3dev/ppu/bin/../lib/gcc/powerpc64-ps3-elf/4.5.2/../../../../powerpc64-ps3-elf/lib\libc.a(lib_a-ftell.o)
 .debug_line    0x00000000000027ab      0x30e e:/psdk3v2/psdk3v2-master/ps3dev/ppu/bin/../lib/gcc/powerpc64-ps3-elf/4.5.2/../../../../powerpc64-ps3-elf/lib\libc.a(lib_a-fwalk.o)
 .debug_line    0x0000000000002ab9      0x345 e:/psdk3v2/psdk3v2-master/ps3dev/ppu/bin/../lib/gcc/powerpc64-ps3-elf/4.5.2/../../../../powerpc64-ps3-elf/lib\libc.a(lib_a-fwrite.o)
 .debug_line    0x0000000000002dfe      0x22e e:/psdk3v2/psdk3v2-master/ps3dev/ppu/bin/../lib/gcc/powerpc64-ps3-elf/4.5.2/../../../../powerpc64-ps3-elf/lib\libc.a(lib_a-getreent.o)
 .debug_line    0x000000000000302c      0x2b0 e:/psdk3v2/psdk3v2-master/ps3dev/ppu/bin/../lib/gcc/powerpc64-ps3-elf/4.5.2/../../../../powerpc64-ps3-elf/lib\libc.a(lib_a-impure.o)
 .debug_line    0x00000000000032dc      0x17f e:/psdk3v2/psdk3v2-master/ps3dev/ppu/bin/../lib/gcc/powerpc64-ps3-elf/4.5.2/../../../../powerpc64-ps3-elf/lib\libc.a(lib_a-lock_recursive.o)
 .debug_line    0x000000000000345b      0x36d e:/psdk3v2/psdk3v2-master/ps3dev/ppu/bin/../lib/gcc/powerpc64-ps3-elf/4.5.2/../../../../powerpc64-ps3-elf/lib\libc.a(lib_a-makebuf.o)
 .debug_line    0x00000000000037c8      0x148 e:/psdk3v2/psdk3v2-master/ps3dev/ppu/bin/../lib/gcc/powerpc64-ps3-elf/4.5.2/../../../../powerpc64-ps3-elf/lib\libc.a(lib_a-malloc.o)
 .debug_line    0x0000000000003910      0x51a e:/psdk3v2/psdk3v2-master/ps3dev/ppu/bin/../lib/gcc/powerpc64-ps3-elf/4.5.2/../../../../powerpc64-ps3-elf/lib\libc.a(lib_a-mallocr.o)
 .debug_line    0x0000000000003e2a      0x17a e:/psdk3v2/psdk3v2-master/ps3dev/ppu/bin/../lib/gcc/powerpc64-ps3-elf/4.5.2/../../../../powerpc64-ps3-elf/lib\libc.a(lib_a-memchr.o)
 .debug_line    0x0000000000003fa4      0x194 e:/psdk3v2/psdk3v2-master/ps3dev/ppu/bin/../lib/gcc/powerpc64-ps3-elf/4.5.2/../../../../powerpc64-ps3-elf/lib\libc.a(lib_a-memcpy.o)
 .debug_line    0x0000000000004138      0x197 e:/psdk3v2/psdk3v2-master/ps3dev/ppu/bin/../lib/gcc/powerpc64-ps3-elf/4.5.2/../../../../powerpc64-ps3-elf/lib\libc.a(lib_a-memset.o)
 .debug_line    0x00000000000042cf      0x2de e:/psdk3v2/psdk3v2-master/ps3dev/ppu/bin/../lib/gcc/powerpc64-ps3-elf/4.5.2/../../../../powerpc64-ps3-elf/lib\libc.a(lib_a-mlock.o)
 .debug_line    0x00000000000045ad      0x2fc e:/psdk3v2/psdk3v2-master/ps3dev/ppu/bin/../lib/gcc/powerpc64-ps3-elf/4.5.2/../../../../powerpc64-ps3-elf/lib\libc.a(lib_a-printf.o)
 .debug_line    0x00000000000048a9      0x2ea e:/psdk3v2/psdk3v2-master/ps3dev/ppu/bin/../lib/gcc/powerpc64-ps3-elf/4.5.2/../../../../powerpc64-ps3-elf/lib\libc.a(lib_a-putchar.o)
 .debug_line    0x0000000000004b93      0x314 e:/psdk3v2/psdk3v2-master/ps3dev/ppu/bin/../lib/gcc/powerpc64-ps3-elf/4.5.2/../../../../powerpc64-ps3-elf/lib\libc.a(lib_a-puts.o)
 .debug_line    0x0000000000004ea7       0xe8 e:/psdk3v2/psdk3v2-master/ps3dev/ppu/bin/../lib/gcc/powerpc64-ps3-elf/4.5.2/../../../../powerpc64-ps3-elf/lib\libc.a(lib_a-rand.o)
 .debug_line    0x0000000000004f8f      0x36d e:/psdk3v2/psdk3v2-master/ps3dev/ppu/bin/../lib/gcc/powerpc64-ps3-elf/4.5.2/../../../../powerpc64-ps3-elf/lib\libc.a(lib_a-refill.o)
 .debug_line    0x00000000000052fc      0x321 e:/psdk3v2/psdk3v2-master/ps3dev/ppu/bin/../lib/gcc/powerpc64-ps3-elf/4.5.2/../../../../powerpc64-ps3-elf/lib\libc.a(lib_a-sprintf.o)
 .debug_line    0x000000000000561d      0x362 e:/psdk3v2/psdk3v2-master/ps3dev/ppu/bin/../lib/gcc/powerpc64-ps3-elf/4.5.2/../../../../powerpc64-ps3-elf/lib\libc.a(lib_a-stdio.o)
 .debug_line    0x000000000000597f      0x144 e:/psdk3v2/psdk3v2-master/ps3dev/ppu/bin/../lib/gcc/powerpc64-ps3-elf/4.5.2/../../../../powerpc64-ps3-elf/lib\libc.a(lib_a-strlen.o)
 .debug_line    0x0000000000005ac3      0xb94 e:/psdk3v2/psdk3v2-master/ps3dev/ppu/bin/../lib/gcc/powerpc64-ps3-elf/4.5.2/../../../../powerpc64-ps3-elf/lib\libc.a(lib_a-svfprintf.o)
 .debug_line    0x0000000000006657       0xdd e:/psdk3v2/psdk3v2-master/ps3dev/ppu/bin/../lib/gcc/powerpc64-ps3-elf/4.5.2/../../../../powerpc64-ps3-elf/lib\libc.a(lib_a-time.o)
 .debug_line    0x0000000000006734      0xc2b e:/psdk3v2/psdk3v2-master/ps3dev/ppu/bin/../lib/gcc/powerpc64-ps3-elf/4.5.2/../../../../powerpc64-ps3-elf/lib\libc.a(lib_a-vfprintf.o)
 .debug_line    0x000000000000735f      0x32e e:/psdk3v2/psdk3v2-master/ps3dev/ppu/bin/../lib/gcc/powerpc64-ps3-elf/4.5.2/../../../../powerpc64-ps3-elf/lib\libc.a(lib_a-wsetup.o)
 .debug_line    0x000000000000768d      0x33b e:/psdk3v2/psdk3v2-master/ps3dev/ppu/bin/../lib/gcc/powerpc64-ps3-elf/4.5.2/../../../../powerpc64-ps3-elf/lib\libc.a(lib_a-__call_atexit.o)
 .debug_line    0x00000000000079c8      0x8df e:/psdk3v2/psdk3v2-master/ps3dev/ppu/bin/../lib/gcc/powerpc64-ps3-elf/4.5.2/../../../../powerpc64-ps3-elf/lib\libc.a(lib_a-dtoa.o)
 .debug_line    0x00000000000082a7      0x2f6 e:/psdk3v2/psdk3v2-master/ps3dev/ppu/bin/../lib/gcc/powerpc64-ps3-elf/4.5.2/../../../../powerpc64-ps3-elf/lib\libc.a(lib_a-flags.o)
 .debug_line    0x000000000000859d      0x44a e:/psdk3v2/psdk3v2-master/ps3dev/ppu/bin/../lib/gcc/powerpc64-ps3-elf/4.5.2/../../../../powerpc64-ps3-elf/lib\libc.a(lib_a-fvwrite.o)
 .debug_line    0x00000000000089e7      0x399 e:/psdk3v2/psdk3v2-master/ps3dev/ppu/bin/../lib/gcc/powerpc64-ps3-elf/4.5.2/../../../../powerpc64-ps3-elf/lib\libc.a(lib_a-locale.o)
 .debug_line    0x0000000000008d80      0x144 e:/psdk3v2/psdk3v2-master/ps3dev/ppu/bin/../lib/gcc/powerpc64-ps3-elf/4.5.2/../../../../powerpc64-ps3-elf/lib\libc.a(lib_a-lock_internal.o)
 .debug_line    0x0000000000008ec4      0x1a4 e:/psdk3v2/psdk3v2-master/ps3dev/ppu/bin/../lib/gcc/powerpc64-ps3-elf/4.5.2/../../../../powerpc64-ps3-elf/lib\libc.a(lib_a-memmove.o)
 .debug_line    0x0000000000009068      0xa68 e:/psdk3v2/psdk3v2-master/ps3dev/ppu/bin/../lib/gcc/powerpc64-ps3-elf/4.5.2/../../../../powerpc64-ps3-elf/lib\libc.a(lib_a-mprec.o)
 .debug_line    0x0000000000009ad0      0x37e e:/psdk3v2/psdk3v2-master/ps3dev/ppu/bin/../lib/gcc/powerpc64-ps3-elf/4.5.2/../../../../powerpc64-ps3-elf/lib\libc.a(lib_a-putc.o)
 .debug_line    0x0000000000009e4e      0x487 e:/psdk3v2/psdk3v2-master/ps3dev/ppu/bin/../lib/gcc/powerpc64-ps3-elf/4.5.2/../../../../powerpc64-ps3-elf/lib\libc.a(lib_a-reallocr.o)
 .debug_line    0x000000000000a2d5      0x1a1 e:/psdk3v2/psdk3v2-master/ps3dev/ppu/bin/../lib/gcc/powerpc64-ps3-elf/4.5.2/../../../../powerpc64-ps3-elf/lib\libc.a(lib_a-s_fpclassify.o)
 .debug_line    0x000000000000a476       0xf6 e:/psdk3v2/psdk3v2-master/ps3dev/ppu/bin/../lib/gcc/powerpc64-ps3-elf/4.5.2/../../../../powerpc64-ps3-elf/lib\libc.a(lib_a-strcmp.o)
 .debug_line    0x000000000000a56c      0x806 e:/psdk3v2/psdk3v2-master/ps3dev/ppu/bin/../lib/gcc/powerpc64-ps3-elf/4.5.2/../../../../powerpc64-ps3-elf/lib\libc.a(lib_a-svfiprintf.o)
 .debug_line    0x000000000000ad72      0x857 e:/psdk3v2/psdk3v2-master/ps3dev/ppu/bin/../lib/gcc/powerpc64-ps3-elf/4.5.2/../../../../powerpc64-ps3-elf/lib\libc.a(lib_a-vfiprintf.o)
 .debug_line    0x000000000000b5c9      0x348 e:/psdk3v2/psdk3v2-master/ps3dev/ppu/bin/../lib/gcc/powerpc64-ps3-elf/4.5.2/../../../../powerpc64-ps3-elf/lib\libc.a(lib_a-wbuf.o)
 .debug_line    0x000000000000b911      0x308 e:/psdk3v2/psdk3v2-master/ps3dev/ppu/bin/../lib/gcc/powerpc64-ps3-elf/4.5.2/../../../../powerpc64-ps3-elf/lib\libc.a(lib_a-__atexit.o)
 .debug_line    0x000000000000bc19       0xcf e:/psdk3v2/psdk3v2-master/ps3dev/ppu/bin/../lib/gcc/powerpc64-ps3-elf/4.5.2/../../../../powerpc64-ps3-elf/lib\libc.a(lib_a-abort.o)
 .debug_line    0x000000000000bce8      0x2fc e:/psdk3v2/psdk3v2-master/ps3dev/ppu/bin/../lib/gcc/powerpc64-ps3-elf/4.5.2/../../../../powerpc64-ps3-elf/lib\libc.a(lib_a-callocr.o)
 .debug_line    0x000000000000bfe4      0x362 e:/psdk3v2/psdk3v2-master/ps3dev/ppu/bin/../lib/gcc/powerpc64-ps3-elf/4.5.2/../../../../powerpc64-ps3-elf/lib\libc.a(lib_a-fputwc.o)
 .debug_line    0x000000000000c346      0x401 e:/psdk3v2/psdk3v2-master/ps3dev/ppu/bin/../lib/gcc/powerpc64-ps3-elf/4.5.2/../../../../powerpc64-ps3-elf/lib\libc.a(lib_a-signal.o)
 .debug_line    0x000000000000c747      0x32c e:/psdk3v2/psdk3v2-master/ps3dev/ppu/bin/../lib/gcc/powerpc64-ps3-elf/4.5.2/../../../../powerpc64-ps3-elf/lib\libc.a(lib_a-wcrtomb.o)
 .debug_line    0x000000000000ca73      0x312 e:/psdk3v2/psdk3v2-master/ps3dev/ppu/bin/../lib/gcc/powerpc64-ps3-elf/4.5.2/../../../../powerpc64-ps3-elf/lib\libc.a(lib_a-wctomb_r.o)
 .debug_line    0x000000000000cd85      0x329 e:/psdk3v2/psdk3v2-master/ps3dev/ppu/bin/../lib/gcc/powerpc64-ps3-elf/4.5.2/../../../../powerpc64-ps3-elf/lib\libsysbase.a(close.o)
 .debug_line    0x000000000000d0ae      0x328 e:/psdk3v2/psdk3v2-master/ps3dev/ppu/bin/../lib/gcc/powerpc64-ps3-elf/4.5.2/../../../../powerpc64-ps3-elf/lib\libsysbase.a(sbrk.o)
 .debug_line    0x000000000000d3d6      0x32e e:/psdk3v2/psdk3v2-master/ps3dev/ppu/bin/../lib/gcc/powerpc64-ps3-elf/4.5.2/../../../../powerpc64-ps3-elf/lib\libsysbase.a(_exit.o)
 .debug_line    0x000000000000d704      0x329 e:/psdk3v2/psdk3v2-master/ps3dev/ppu/bin/../lib/gcc/powerpc64-ps3-elf/4.5.2/../../../../powerpc64-ps3-elf/lib\libsysbase.a(fstat.o)
 .debug_line    0x000000000000da2d      0x32a e:/psdk3v2/psdk3v2-master/ps3dev/ppu/bin/../lib/gcc/powerpc64-ps3-elf/4.5.2/../../../../powerpc64-ps3-elf/lib\libsysbase.a(isatty.o)
 .debug_line    0x000000000000dd57      0x32d e:/psdk3v2/psdk3v2-master/ps3dev/ppu/bin/../lib/gcc/powerpc64-ps3-elf/4.5.2/../../../../powerpc64-ps3-elf/lib\libsysbase.a(lseek.o)
 .debug_line    0x000000000000e084      0x32c e:/psdk3v2/psdk3v2-master/ps3dev/ppu/bin/../lib/gcc/powerpc64-ps3-elf/4.5.2/../../../../powerpc64-ps3-elf/lib\libsysbase.a(open.o)
 .debug_line    0x000000000000e3b0      0x32c e:/psdk3v2/psdk3v2-master/ps3dev/ppu/bin/../lib/gcc/powerpc64-ps3-elf/4.5.2/../../../../powerpc64-ps3-elf/lib\libsysbase.a(read.o)
 .debug_line    0x000000000000e6dc      0x32d e:/psdk3v2/psdk3v2-master/ps3dev/ppu/bin/../lib/gcc/powerpc64-ps3-elf/4.5.2/../../../../powerpc64-ps3-elf/lib\libsysbase.a(write.o)
 .debug_line    0x000000000000ea09      0x39b e:/psdk3v2/psdk3v2-master/ps3dev/ppu/bin/../lib/gcc/powerpc64-ps3-elf/4.5.2/../../../../powerpc64-ps3-elf/lib\libsysbase.a(lock.o)
 .debug_line    0x000000000000eda4      0x32a e:/psdk3v2/psdk3v2-master/ps3dev/ppu/bin/../lib/gcc/powerpc64-ps3-elf/4.5.2/../../../../powerpc64-ps3-elf/lib\libsysbase.a(getpid.o)
 .debug_line    0x000000000000f0ce      0x2c2 e:/psdk3v2/psdk3v2-master/ps3dev/ppu/bin/../lib/gcc/powerpc64-ps3-elf/4.5.2/../../../../powerpc64-ps3-elf/lib\libsysbase.a(kill.o)
 .debug_line    0x000000000000f390      0x32a e:/psdk3v2/psdk3v2-master/ps3dev/ppu/bin/../lib/gcc/powerpc64-ps3-elf/4.5.2/../../../../powerpc64-ps3-elf/lib\libsysbase.a(gettod.o)
 .debug_line    0x000000000000f6ba       0xcd e:/psdk3v2/psdk3v2-master/ps3dev/ppu/bin/../lib/gcc/powerpc64-ps3-elf/4.5.2/../../../../powerpc64-ps3-elf/lib\libc.a(lib_a-errno.o)
 .debug_line    0x000000000000f787      0x323 e:/psdk3v2/psdk3v2-master/ps3dev/ppu/bin/../lib/gcc/powerpc64-ps3-elf/4.5.2/../../../../powerpc64-ps3-elf/lib\libc.a(lib_a-sscanf.o)
 .debug_line    0x000000000000faaa      0x180 e:/psdk3v2/psdk3v2-master/ps3dev/ppu/bin/../lib/gcc/powerpc64-ps3-elf/4.5.2/../../../../powerpc64-ps3-elf/lib\libc.a(lib_a-strncpy.o)
 .debug_line    0x000000000000fc2a      0x739 e:/psdk3v2/psdk3v2-master/ps3dev/ppu/bin/../lib/gcc/powerpc64-ps3-elf/4.5.2/../../../../powerpc64-ps3-elf/lib\libc.a(lib_a-svfscanf.o)
 .debug_line    0x0000000000010363       0x88 e:/psdk3v2/psdk3v2-master/ps3dev/ppu/bin/../lib/gcc/powerpc64-ps3-elf/4.5.2/../../../../powerpc64-ps3-elf/lib\libc.a(lib_a-ctype_.o)
 .debug_line    0x00000000000103eb      0x14b e:/psdk3v2/psdk3v2-master/ps3dev/ppu/bin/../lib/gcc/powerpc64-ps3-elf/4.5.2/../../../../powerpc64-ps3-elf/lib\libc.a(lib_a-iswspace.o)
 .debug_line    0x0000000000010536      0x32c e:/psdk3v2/psdk3v2-master/ps3dev/ppu/bin/../lib/gcc/powerpc64-ps3-elf/4.5.2/../../../../powerpc64-ps3-elf/lib\libc.a(lib_a-mbrtowc.o)
 .debug_line    0x0000000000010862      0x318 e:/psdk3v2/psdk3v2-master/ps3dev/ppu/bin/../lib/gcc/powerpc64-ps3-elf/4.5.2/../../../../powerpc64-ps3-elf/lib\libc.a(lib_a-mbtowc_r.o)
 .debug_line    0x0000000000010b7a      0x12a e:/psdk3v2/psdk3v2-master/ps3dev/ppu/bin/../lib/gcc/powerpc64-ps3-elf/4.5.2/../../../../powerpc64-ps3-elf/lib\libc.a(lib_a-sccl.o)
 .debug_line    0x0000000000010ca4       0xc8 e:/psdk3v2/psdk3v2-master/ps3dev/ppu/bin/../lib/gcc/powerpc64-ps3-elf/4.5.2/../../../../powerpc64-ps3-elf/lib\libc.a(lib_a-sf_nan.o)
 .debug_line    0x0000000000010d6c      0x838 e:/psdk3v2/psdk3v2-master/ps3dev/ppu/bin/../lib/gcc/powerpc64-ps3-elf/4.5.2/../../../../powerpc64-ps3-elf/lib\libc.a(lib_a-strtod.o)
 .debug_line    0x00000000000115a4      0x3bc e:/psdk3v2/psdk3v2-master/ps3dev/ppu/bin/../lib/gcc/powerpc64-ps3-elf/4.5.2/../../../../powerpc64-ps3-elf/lib\libc.a(lib_a-strtol.o)
 .debug_line    0x0000000000011960      0x3a5 e:/psdk3v2/psdk3v2-master/ps3dev/ppu/bin/../lib/gcc/powerpc64-ps3-elf/4.5.2/../../../../powerpc64-ps3-elf/lib\libc.a(lib_a-strtoll_r.o)
 .debug_line    0x0000000000011d05      0x389 e:/psdk3v2/psdk3v2-master/ps3dev/ppu/bin/../lib/gcc/powerpc64-ps3-elf/4.5.2/../../../../powerpc64-ps3-elf/lib\libc.a(lib_a-strtoul.o)
 .debug_line    0x000000000001208e      0x373 e:/psdk3v2/psdk3v2-master/ps3dev/ppu/bin/../lib/gcc/powerpc64-ps3-elf/4.5.2/../../../../powerpc64-ps3-elf/lib\libc.a(lib_a-strtoull_r.o)
 .debug_line    0x0000000000012401      0x6ef e:/psdk3v2/psdk3v2-master/ps3dev/ppu/bin/../lib/gcc/powerpc64-ps3-elf/4.5.2/../../../../powerpc64-ps3-elf/lib\libc.a(lib_a-svfiscanf.o)
 .debug_line    0x0000000000012af0      0x3b3 e:/psdk3v2/psdk3v2-master/ps3dev/ppu/bin/../lib/gcc/powerpc64-ps3-elf/4.5.2/../../../../powerpc64-ps3-elf/lib\libc.a(lib_a-ungetc.o)
 .debug_line    0x0000000000012ea3      0x586 e:/psdk3v2/psdk3v2-master/ps3dev/ppu/bin/../lib/gcc/powerpc64-ps3-elf/4.5.2/../../../../powerpc64-ps3-elf/lib\libc.a(lib_a-gdtoa-gethex.o)
 .debug_line    0x0000000000013429      0x1af e:/psdk3v2/psdk3v2-master/ps3dev/ppu/bin/../lib/gcc/powerpc64-ps3-elf/4.5.2/../../../../powerpc64-ps3-elf/lib\libc.a(lib_a-gdtoa-hexnan.o)
 .debug_line    0x00000000000135d8      0x1aa e:/psdk3v2/psdk3v2-master/ps3dev/ppu/bin/../lib/gcc/powerpc64-ps3-elf/4.5.2/../../../../powerpc64-ps3-elf/lib\libc.a(lib_a-strncmp.o)

.debug_frame    0x0000000000000000     0x2738
 *(.debug_frame)
 .debug_frame   0x0000000000000000       0x38 e:/psdk3v2/psdk3v2-master/ps3dev/ppu/bin/../lib/gcc/powerpc64-ps3-elf/4.5.2/../../../../powerpc64-ps3-elf/lib\libc.a(lib_a-exit.o)
 .debug_frame   0x0000000000000038       0x78 e:/psdk3v2/psdk3v2-master/ps3dev/ppu/bin/../lib/gcc/powerpc64-ps3-elf/4.5.2/../../../../powerpc64-ps3-elf/lib\libc.a(lib_a-fclose.o)
 .debug_frame   0x00000000000000b0       0x80 e:/psdk3v2/psdk3v2-master/ps3dev/ppu/bin/../lib/gcc/powerpc64-ps3-elf/4.5.2/../../../../powerpc64-ps3-elf/lib\libc.a(lib_a-fflush.o)
 .debug_frame   0x0000000000000130       0x88 e:/psdk3v2/psdk3v2-master/ps3dev/ppu/bin/../lib/gcc/powerpc64-ps3-elf/4.5.2/../../../../powerpc64-ps3-elf/lib\libc.a(lib_a-fgets.o)
 .debug_frame   0x00000000000001b8      0x228 e:/psdk3v2/psdk3v2-master/ps3dev/ppu/bin/../lib/gcc/powerpc64-ps3-elf/4.5.2/../../../../powerpc64-ps3-elf/lib\libc.a(lib_a-findfp.o)
 .debug_frame   0x00000000000003e0       0x70 e:/psdk3v2/psdk3v2-master/ps3dev/ppu/bin/../lib/gcc/powerpc64-ps3-elf/4.5.2/../../../../powerpc64-ps3-elf/lib\libc.a(lib_a-fopen.o)
 .debug_frame   0x0000000000000450       0x98 e:/psdk3v2/psdk3v2-master/ps3dev/ppu/bin/../lib/gcc/powerpc64-ps3-elf/4.5.2/../../../../powerpc64-ps3-elf/lib\libc.a(lib_a-fread.o)
 .debug_frame   0x00000000000004e8       0x78 e:/psdk3v2/psdk3v2-master/ps3dev/ppu/bin/../lib/gcc/powerpc64-ps3-elf/4.5.2/../../../../powerpc64-ps3-elf/lib\libc.a(lib_a-freer.o)
 .debug_frame   0x0000000000000560       0x88 e:/psdk3v2/psdk3v2-master/ps3dev/ppu/bin/../lib/gcc/powerpc64-ps3-elf/4.5.2/../../../../powerpc64-ps3-elf/lib\libc.a(lib_a-fseek.o)
 .debug_frame   0x00000000000005e8       0x70 e:/psdk3v2/psdk3v2-master/ps3dev/ppu/bin/../lib/gcc/powerpc64-ps3-elf/4.5.2/../../../../powerpc64-ps3-elf/lib\libc.a(lib_a-ftell.o)
 .debug_frame   0x0000000000000658       0x80 e:/psdk3v2/psdk3v2-master/ps3dev/ppu/bin/../lib/gcc/powerpc64-ps3-elf/4.5.2/../../../../powerpc64-ps3-elf/lib\libc.a(lib_a-fwalk.o)
 .debug_frame   0x00000000000006d8       0x80 e:/psdk3v2/psdk3v2-master/ps3dev/ppu/bin/../lib/gcc/powerpc64-ps3-elf/4.5.2/../../../../powerpc64-ps3-elf/lib\libc.a(lib_a-fwrite.o)
 .debug_frame   0x0000000000000758       0x40 e:/psdk3v2/psdk3v2-master/ps3dev/ppu/bin/../lib/gcc/powerpc64-ps3-elf/4.5.2/../../../../powerpc64-ps3-elf/lib\libc.a(lib_a-getreent.o)
 .debug_frame   0x0000000000000798       0xd8 e:/psdk3v2/psdk3v2-master/ps3dev/ppu/bin/../lib/gcc/powerpc64-ps3-elf/4.5.2/../../../../powerpc64-ps3-elf/lib\libc.a(lib_a-lock_recursive.o)
 .debug_frame   0x0000000000000870       0x50 e:/psdk3v2/psdk3v2-master/ps3dev/ppu/bin/../lib/gcc/powerpc64-ps3-elf/4.5.2/../../../../powerpc64-ps3-elf/lib\libc.a(lib_a-makebuf.o)
 .debug_frame   0x00000000000008c0       0x60 e:/psdk3v2/psdk3v2-master/ps3dev/ppu/bin/../lib/gcc/powerpc64-ps3-elf/4.5.2/../../../../powerpc64-ps3-elf/lib\libc.a(lib_a-malloc.o)
 .debug_frame   0x0000000000000920       0x58 e:/psdk3v2/psdk3v2-master/ps3dev/ppu/bin/../lib/gcc/powerpc64-ps3-elf/4.5.2/../../../../powerpc64-ps3-elf/lib\libc.a(lib_a-mallocr.o)
 .debug_frame   0x0000000000000978       0x28 e:/psdk3v2/psdk3v2-master/ps3dev/ppu/bin/../lib/gcc/powerpc64-ps3-elf/4.5.2/../../../../powerpc64-ps3-elf/lib\libc.a(lib_a-memchr.o)
 .debug_frame   0x00000000000009a0       0x28 e:/psdk3v2/psdk3v2-master/ps3dev/ppu/bin/../lib/gcc/powerpc64-ps3-elf/4.5.2/../../../../powerpc64-ps3-elf/lib\libc.a(lib_a-memcpy.o)
 .debug_frame   0x00000000000009c8       0x28 e:/psdk3v2/psdk3v2-master/ps3dev/ppu/bin/../lib/gcc/powerpc64-ps3-elf/4.5.2/../../../../powerpc64-ps3-elf/lib\libc.a(lib_a-memset.o)
 .debug_frame   0x00000000000009f0       0x60 e:/psdk3v2/psdk3v2-master/ps3dev/ppu/bin/../lib/gcc/powerpc64-ps3-elf/4.5.2/../../../../powerpc64-ps3-elf/lib\libc.a(lib_a-mlock.o)
 .debug_frame   0x0000000000000a50       0x60 e:/psdk3v2/psdk3v2-master/ps3dev/ppu/bin/../lib/gcc/powerpc64-ps3-elf/4.5.2/../../../../powerpc64-ps3-elf/lib\libc.a(lib_a-printf.o)
 .debug_frame   0x0000000000000ab0       0x60 e:/psdk3v2/psdk3v2-master/ps3dev/ppu/bin/../lib/gcc/powerpc64-ps3-elf/4.5.2/../../../../powerpc64-ps3-elf/lib\libc.a(lib_a-putchar.o)
 .debug_frame   0x0000000000000b10       0x70 e:/psdk3v2/psdk3v2-master/ps3dev/ppu/bin/../lib/gcc/powerpc64-ps3-elf/4.5.2/../../../../powerpc64-ps3-elf/lib\libc.a(lib_a-puts.o)
 .debug_frame   0x0000000000000b80       0x60 e:/psdk3v2/psdk3v2-master/ps3dev/ppu/bin/../lib/gcc/powerpc64-ps3-elf/4.5.2/../../../../powerpc64-ps3-elf/lib\libc.a(lib_a-rand.o)
 .debug_frame   0x0000000000000be0       0x70 e:/psdk3v2/psdk3v2-master/ps3dev/ppu/bin/../lib/gcc/powerpc64-ps3-elf/4.5.2/../../../../powerpc64-ps3-elf/lib\libc.a(lib_a-refill.o)
 .debug_frame   0x0000000000000c50       0x60 e:/psdk3v2/psdk3v2-master/ps3dev/ppu/bin/../lib/gcc/powerpc64-ps3-elf/4.5.2/../../../../powerpc64-ps3-elf/lib\libc.a(lib_a-sprintf.o)
 .debug_frame   0x0000000000000cb0       0xe0 e:/psdk3v2/psdk3v2-master/ps3dev/ppu/bin/../lib/gcc/powerpc64-ps3-elf/4.5.2/../../../../powerpc64-ps3-elf/lib\libc.a(lib_a-stdio.o)
 .debug_frame   0x0000000000000d90       0x28 e:/psdk3v2/psdk3v2-master/ps3dev/ppu/bin/../lib/gcc/powerpc64-ps3-elf/4.5.2/../../../../powerpc64-ps3-elf/lib\libc.a(lib_a-strlen.o)
 .debug_frame   0x0000000000000db8       0x70 e:/psdk3v2/psdk3v2-master/ps3dev/ppu/bin/../lib/gcc/powerpc64-ps3-elf/4.5.2/../../../../powerpc64-ps3-elf/lib\libc.a(lib_a-svfprintf.o)
 .debug_frame   0x0000000000000e28       0x40 e:/psdk3v2/psdk3v2-master/ps3dev/ppu/bin/../lib/gcc/powerpc64-ps3-elf/4.5.2/../../../../powerpc64-ps3-elf/lib\libc.a(lib_a-time.o)
 .debug_frame   0x0000000000000e68       0xa0 e:/psdk3v2/psdk3v2-master/ps3dev/ppu/bin/../lib/gcc/powerpc64-ps3-elf/4.5.2/../../../../powerpc64-ps3-elf/lib\libc.a(lib_a-vfprintf.o)
 .debug_frame   0x0000000000000f08       0x40 e:/psdk3v2/psdk3v2-master/ps3dev/ppu/bin/../lib/gcc/powerpc64-ps3-elf/4.5.2/../../../../powerpc64-ps3-elf/lib\libc.a(lib_a-wsetup.o)
 .debug_frame   0x0000000000000f48       0x58 e:/psdk3v2/psdk3v2-master/ps3dev/ppu/bin/../lib/gcc/powerpc64-ps3-elf/4.5.2/../../../../powerpc64-ps3-elf/lib\libc.a(lib_a-__call_atexit.o)
 .debug_frame   0x0000000000000fa0       0xa0 e:/psdk3v2/psdk3v2-master/ps3dev/ppu/bin/../lib/gcc/powerpc64-ps3-elf/4.5.2/../../../../powerpc64-ps3-elf/lib\libc.a(lib_a-dtoa.o)
 .debug_frame   0x0000000000001040       0x28 e:/psdk3v2/psdk3v2-master/ps3dev/ppu/bin/../lib/gcc/powerpc64-ps3-elf/4.5.2/../../../../powerpc64-ps3-elf/lib\libc.a(lib_a-flags.o)
 .debug_frame   0x0000000000001068       0x60 e:/psdk3v2/psdk3v2-master/ps3dev/ppu/bin/../lib/gcc/powerpc64-ps3-elf/4.5.2/../../../../powerpc64-ps3-elf/lib\libc.a(lib_a-fvwrite.o)
 .debug_frame   0x00000000000010c8      0x108 e:/psdk3v2/psdk3v2-master/ps3dev/ppu/bin/../lib/gcc/powerpc64-ps3-elf/4.5.2/../../../../powerpc64-ps3-elf/lib\libc.a(lib_a-locale.o)
 .debug_frame   0x00000000000011d0       0x68 e:/psdk3v2/psdk3v2-master/ps3dev/ppu/bin/../lib/gcc/powerpc64-ps3-elf/4.5.2/../../../../powerpc64-ps3-elf/lib\libc.a(lib_a-lock_internal.o)
 .debug_frame   0x0000000000001238       0x28 e:/psdk3v2/psdk3v2-master/ps3dev/ppu/bin/../lib/gcc/powerpc64-ps3-elf/4.5.2/../../../../powerpc64-ps3-elf/lib\libc.a(lib_a-memmove.o)
 .debug_frame   0x0000000000001260      0x330 e:/psdk3v2/psdk3v2-master/ps3dev/ppu/bin/../lib/gcc/powerpc64-ps3-elf/4.5.2/../../../../powerpc64-ps3-elf/lib\libc.a(lib_a-mprec.o)
 .debug_frame   0x0000000000001590       0x70 e:/psdk3v2/psdk3v2-master/ps3dev/ppu/bin/../lib/gcc/powerpc64-ps3-elf/4.5.2/../../../../powerpc64-ps3-elf/lib\libc.a(lib_a-putc.o)
 .debug_frame   0x0000000000001600       0x68 e:/psdk3v2/psdk3v2-master/ps3dev/ppu/bin/../lib/gcc/powerpc64-ps3-elf/4.5.2/../../../../powerpc64-ps3-elf/lib\libc.a(lib_a-reallocr.o)
 .debug_frame   0x0000000000001668       0x28 e:/psdk3v2/psdk3v2-master/ps3dev/ppu/bin/../lib/gcc/powerpc64-ps3-elf/4.5.2/../../../../powerpc64-ps3-elf/lib\libc.a(lib_a-s_fpclassify.o)
 .debug_frame   0x0000000000001690       0x28 e:/psdk3v2/psdk3v2-master/ps3dev/ppu/bin/../lib/gcc/powerpc64-ps3-elf/4.5.2/../../../../powerpc64-ps3-elf/lib\libc.a(lib_a-strcmp.o)
 .debug_frame   0x00000000000016b8       0xb8 e:/psdk3v2/psdk3v2-master/ps3dev/ppu/bin/../lib/gcc/powerpc64-ps3-elf/4.5.2/../../../../powerpc64-ps3-elf/lib\libc.a(lib_a-svfiprintf.o)
 .debug_frame   0x0000000000001770       0xe0 e:/psdk3v2/psdk3v2-master/ps3dev/ppu/bin/../lib/gcc/powerpc64-ps3-elf/4.5.2/../../../../powerpc64-ps3-elf/lib\libc.a(lib_a-vfiprintf.o)
 .debug_frame   0x0000000000001850       0x70 e:/psdk3v2/psdk3v2-master/ps3dev/ppu/bin/../lib/gcc/powerpc64-ps3-elf/4.5.2/../../../../powerpc64-ps3-elf/lib\libc.a(lib_a-wbuf.o)
 .debug_frame   0x00000000000018c0       0x50 e:/psdk3v2/psdk3v2-master/ps3dev/ppu/bin/../lib/gcc/powerpc64-ps3-elf/4.5.2/../../../../powerpc64-ps3-elf/lib\libc.a(lib_a-__atexit.o)
 .debug_frame   0x0000000000001910       0x30 e:/psdk3v2/psdk3v2-master/ps3dev/ppu/bin/../lib/gcc/powerpc64-ps3-elf/4.5.2/../../../../powerpc64-ps3-elf/lib\libc.a(lib_a-abort.o)
 .debug_frame   0x0000000000001940       0x40 e:/psdk3v2/psdk3v2-master/ps3dev/ppu/bin/../lib/gcc/powerpc64-ps3-elf/4.5.2/../../../../powerpc64-ps3-elf/lib\libc.a(lib_a-callocr.o)
 .debug_frame   0x0000000000001980       0x78 e:/psdk3v2/psdk3v2-master/ps3dev/ppu/bin/../lib/gcc/powerpc64-ps3-elf/4.5.2/../../../../powerpc64-ps3-elf/lib\libc.a(lib_a-fputwc.o)
 .debug_frame   0x00000000000019f8      0x178 e:/psdk3v2/psdk3v2-master/ps3dev/ppu/bin/../lib/gcc/powerpc64-ps3-elf/4.5.2/../../../../powerpc64-ps3-elf/lib\libc.a(lib_a-signal.o)
 .debug_frame   0x0000000000001b70       0x88 e:/psdk3v2/psdk3v2-master/ps3dev/ppu/bin/../lib/gcc/powerpc64-ps3-elf/4.5.2/../../../../powerpc64-ps3-elf/lib\libc.a(lib_a-wcrtomb.o)
 .debug_frame   0x0000000000001bf8       0x58 e:/psdk3v2/psdk3v2-master/ps3dev/ppu/bin/../lib/gcc/powerpc64-ps3-elf/4.5.2/../../../../powerpc64-ps3-elf/lib\libc.a(lib_a-wctomb_r.o)
 .debug_frame   0x0000000000001c50       0x38 e:/psdk3v2/psdk3v2-master/ps3dev/ppu/bin/../lib/gcc/powerpc64-ps3-elf/4.5.2/../../../../powerpc64-ps3-elf/lib\libsysbase.a(close.o)
 .debug_frame   0x0000000000001c88       0x38 e:/psdk3v2/psdk3v2-master/ps3dev/ppu/bin/../lib/gcc/powerpc64-ps3-elf/4.5.2/../../../../powerpc64-ps3-elf/lib\libsysbase.a(sbrk.o)
 .debug_frame   0x0000000000001cc0       0x30 e:/psdk3v2/psdk3v2-master/ps3dev/ppu/bin/../lib/gcc/powerpc64-ps3-elf/4.5.2/../../../../powerpc64-ps3-elf/lib\libsysbase.a(_exit.o)
 .debug_frame   0x0000000000001cf0       0x38 e:/psdk3v2/psdk3v2-master/ps3dev/ppu/bin/../lib/gcc/powerpc64-ps3-elf/4.5.2/../../../../powerpc64-ps3-elf/lib\libsysbase.a(fstat.o)
 .debug_frame   0x0000000000001d28       0x38 e:/psdk3v2/psdk3v2-master/ps3dev/ppu/bin/../lib/gcc/powerpc64-ps3-elf/4.5.2/../../../../powerpc64-ps3-elf/lib\libsysbase.a(isatty.o)
 .debug_frame   0x0000000000001d60       0x38 e:/psdk3v2/psdk3v2-master/ps3dev/ppu/bin/../lib/gcc/powerpc64-ps3-elf/4.5.2/../../../../powerpc64-ps3-elf/lib\libsysbase.a(lseek.o)
 .debug_frame   0x0000000000001d98       0x38 e:/psdk3v2/psdk3v2-master/ps3dev/ppu/bin/../lib/gcc/powerpc64-ps3-elf/4.5.2/../../../../powerpc64-ps3-elf/lib\libsysbase.a(open.o)
 .debug_frame   0x0000000000001dd0       0x38 e:/psdk3v2/psdk3v2-master/ps3dev/ppu/bin/../lib/gcc/powerpc64-ps3-elf/4.5.2/../../../../powerpc64-ps3-elf/lib\libsysbase.a(read.o)
 .debug_frame   0x0000000000001e08       0x38 e:/psdk3v2/psdk3v2-master/ps3dev/ppu/bin/../lib/gcc/powerpc64-ps3-elf/4.5.2/../../../../powerpc64-ps3-elf/lib\libsysbase.a(write.o)
 .debug_frame   0x0000000000001e40       0xe8 e:/psdk3v2/psdk3v2-master/ps3dev/ppu/bin/../lib/gcc/powerpc64-ps3-elf/4.5.2/../../../../powerpc64-ps3-elf/lib\libsysbase.a(lock.o)
 .debug_frame   0x0000000000001f28       0x38 e:/psdk3v2/psdk3v2-master/ps3dev/ppu/bin/../lib/gcc/powerpc64-ps3-elf/4.5.2/../../../../powerpc64-ps3-elf/lib\libsysbase.a(getpid.o)
 .debug_frame   0x0000000000001f60       0x28 e:/psdk3v2/psdk3v2-master/ps3dev/ppu/bin/../lib/gcc/powerpc64-ps3-elf/4.5.2/../../../../powerpc64-ps3-elf/lib\libsysbase.a(kill.o)
 .debug_frame   0x0000000000001f88       0x38 e:/psdk3v2/psdk3v2-master/ps3dev/ppu/bin/../lib/gcc/powerpc64-ps3-elf/4.5.2/../../../../powerpc64-ps3-elf/lib\libsysbase.a(gettod.o)
 .debug_frame   0x0000000000001fc0       0x38 e:/psdk3v2/psdk3v2-master/ps3dev/ppu/bin/../lib/gcc/powerpc64-ps3-elf/4.5.2/../../../../powerpc64-ps3-elf/lib\libc.a(lib_a-errno.o)
 .debug_frame   0x0000000000001ff8       0x60 e:/psdk3v2/psdk3v2-master/ps3dev/ppu/bin/../lib/gcc/powerpc64-ps3-elf/4.5.2/../../../../powerpc64-ps3-elf/lib\libc.a(lib_a-sscanf.o)
 .debug_frame   0x0000000000002058       0x28 e:/psdk3v2/psdk3v2-master/ps3dev/ppu/bin/../lib/gcc/powerpc64-ps3-elf/4.5.2/../../../../powerpc64-ps3-elf/lib\libc.a(lib_a-strncpy.o)
 .debug_frame   0x0000000000002080       0x70 e:/psdk3v2/psdk3v2-master/ps3dev/ppu/bin/../lib/gcc/powerpc64-ps3-elf/4.5.2/../../../../powerpc64-ps3-elf/lib\libc.a(lib_a-svfscanf.o)
 .debug_frame   0x00000000000020f0       0x28 e:/psdk3v2/psdk3v2-master/ps3dev/ppu/bin/../lib/gcc/powerpc64-ps3-elf/4.5.2/../../../../powerpc64-ps3-elf/lib\libc.a(lib_a-iswspace.o)
 .debug_frame   0x0000000000002118       0x88 e:/psdk3v2/psdk3v2-master/ps3dev/ppu/bin/../lib/gcc/powerpc64-ps3-elf/4.5.2/../../../../powerpc64-ps3-elf/lib\libc.a(lib_a-mbrtowc.o)
 .debug_frame   0x00000000000021a0       0x58 e:/psdk3v2/psdk3v2-master/ps3dev/ppu/bin/../lib/gcc/powerpc64-ps3-elf/4.5.2/../../../../powerpc64-ps3-elf/lib\libc.a(lib_a-mbtowc_r.o)
 .debug_frame   0x00000000000021f8       0x28 e:/psdk3v2/psdk3v2-master/ps3dev/ppu/bin/../lib/gcc/powerpc64-ps3-elf/4.5.2/../../../../powerpc64-ps3-elf/lib\libc.a(lib_a-sccl.o)
 .debug_frame   0x0000000000002220       0x28 e:/psdk3v2/psdk3v2-master/ps3dev/ppu/bin/../lib/gcc/powerpc64-ps3-elf/4.5.2/../../../../powerpc64-ps3-elf/lib\libc.a(lib_a-sf_nan.o)
 .debug_frame   0x0000000000002248       0xe8 e:/psdk3v2/psdk3v2-master/ps3dev/ppu/bin/../lib/gcc/powerpc64-ps3-elf/4.5.2/../../../../powerpc64-ps3-elf/lib\libc.a(lib_a-strtod.o)
 .debug_frame   0x0000000000002330       0x68 e:/psdk3v2/psdk3v2-master/ps3dev/ppu/bin/../lib/gcc/powerpc64-ps3-elf/4.5.2/../../../../powerpc64-ps3-elf/lib\libc.a(lib_a-strtol.o)
 .debug_frame   0x0000000000002398       0x38 e:/psdk3v2/psdk3v2-master/ps3dev/ppu/bin/../lib/gcc/powerpc64-ps3-elf/4.5.2/../../../../powerpc64-ps3-elf/lib\libc.a(lib_a-strtoll_r.o)
 .debug_frame   0x00000000000023d0       0x68 e:/psdk3v2/psdk3v2-master/ps3dev/ppu/bin/../lib/gcc/powerpc64-ps3-elf/4.5.2/../../../../powerpc64-ps3-elf/lib\libc.a(lib_a-strtoul.o)
 .debug_frame   0x0000000000002438       0x38 e:/psdk3v2/psdk3v2-master/ps3dev/ppu/bin/../lib/gcc/powerpc64-ps3-elf/4.5.2/../../../../powerpc64-ps3-elf/lib\libc.a(lib_a-strtoull_r.o)
 .debug_frame   0x0000000000002470      0x110 e:/psdk3v2/psdk3v2-master/ps3dev/ppu/bin/../lib/gcc/powerpc64-ps3-elf/4.5.2/../../../../powerpc64-ps3-elf/lib\libc.a(lib_a-svfiscanf.o)
 .debug_frame   0x0000000000002580       0xb0 e:/psdk3v2/psdk3v2-master/ps3dev/ppu/bin/../lib/gcc/powerpc64-ps3-elf/4.5.2/../../../../powerpc64-ps3-elf/lib\libc.a(lib_a-ungetc.o)
 .debug_frame   0x0000000000002630       0x90 e:/psdk3v2/psdk3v2-master/ps3dev/ppu/bin/../lib/gcc/powerpc64-ps3-elf/4.5.2/../../../../powerpc64-ps3-elf/lib\libc.a(lib_a-gdtoa-gethex.o)
 .debug_frame   0x00000000000026c0       0x50 e:/psdk3v2/psdk3v2-master/ps3dev/ppu/bin/../lib/gcc/powerpc64-ps3-elf/4.5.2/../../../../powerpc64-ps3-elf/lib\libc.a(lib_a-gdtoa-hexnan.o)
 .debug_frame   0x0000000000002710       0x28 e:/psdk3v2/psdk3v2-master/ps3dev/ppu/bin/../lib/gcc/powerpc64-ps3-elf/4.5.2/../../../../powerpc64-ps3-elf/lib\libc.a(lib_a-strncmp.o)

.debug_str      0x0000000000000000     0x2f43
 *(.debug_str)
 .debug_str     0x0000000000000000      0x891 e:/psdk3v2/psdk3v2-master/ps3dev/ppu/bin/../lib/gcc/powerpc64-ps3-elf/4.5.2/../../../../powerpc64-ps3-elf/lib\libsysbase.a(syscalls.o)
                                        0x9e1 (size before relaxing)
 .debug_str     0x0000000000000891       0xbc e:/psdk3v2/psdk3v2-master/ps3dev/ppu/bin/../lib/gcc/powerpc64-ps3-elf/4.5.2/../../../../powerpc64-ps3-elf/lib\libc.a(lib_a-exit.o)
                                        0x570 (size before relaxing)
 .debug_str     0x000000000000094d       0xba e:/psdk3v2/psdk3v2-master/ps3dev/ppu/bin/../lib/gcc/powerpc64-ps3-elf/4.5.2/../../../../powerpc64-ps3-elf/lib\libc.a(lib_a-fclose.o)
                                        0x56e (size before relaxing)
 .debug_str     0x0000000000000a07       0x4c e:/psdk3v2/psdk3v2-master/ps3dev/ppu/bin/../lib/gcc/powerpc64-ps3-elf/4.5.2/../../../../powerpc64-ps3-elf/lib\libc.a(lib_a-fflush.o)
                                        0x594 (size before relaxing)
 .debug_str     0x0000000000000a53       0x38 e:/psdk3v2/psdk3v2-master/ps3dev/ppu/bin/../lib/gcc/powerpc64-ps3-elf/4.5.2/../../../../powerpc64-ps3-elf/lib\libc.a(lib_a-fgets.o)
                                        0x56d (size before relaxing)
 .debug_str     0x0000000000000a8b      0x16d e:/psdk3v2/psdk3v2-master/ps3dev/ppu/bin/../lib/gcc/powerpc64-ps3-elf/4.5.2/../../../../powerpc64-ps3-elf/lib\libc.a(lib_a-findfp.o)
                                        0x6d1 (size before relaxing)
 .debug_str     0x0000000000000bf8       0x3f e:/psdk3v2/psdk3v2-master/ps3dev/ppu/bin/../lib/gcc/powerpc64-ps3-elf/4.5.2/../../../../powerpc64-ps3-elf/lib\libc.a(lib_a-fopen.o)
                                        0x57d (size before relaxing)
 .debug_str     0x0000000000000c37       0x5a e:/psdk3v2/psdk3v2-master/ps3dev/ppu/bin/../lib/gcc/powerpc64-ps3-elf/4.5.2/../../../../powerpc64-ps3-elf/lib\libc.a(lib_a-fread.o)
                                        0x5a6 (size before relaxing)
 .debug_str     0x0000000000000c91      0x14b e:/psdk3v2/psdk3v2-master/ps3dev/ppu/bin/../lib/gcc/powerpc64-ps3-elf/4.5.2/../../../../powerpc64-ps3-elf/lib\libc.a(lib_a-freer.o)
                                        0x6a7 (size before relaxing)
 .debug_str     0x0000000000000ddc       0x5a e:/psdk3v2/psdk3v2-master/ps3dev/ppu/bin/../lib/gcc/powerpc64-ps3-elf/4.5.2/../../../../powerpc64-ps3-elf/lib\libc.a(lib_a-fseek.o)
                                        0x68a (size before relaxing)
 .debug_str     0x0000000000000e36       0x38 e:/psdk3v2/psdk3v2-master/ps3dev/ppu/bin/../lib/gcc/powerpc64-ps3-elf/4.5.2/../../../../powerpc64-ps3-elf/lib\libc.a(lib_a-ftell.o)
                                        0x566 (size before relaxing)
 .debug_str     0x0000000000000e6e       0x4e e:/psdk3v2/psdk3v2-master/ps3dev/ppu/bin/../lib/gcc/powerpc64-ps3-elf/4.5.2/../../../../powerpc64-ps3-elf/lib\libc.a(lib_a-fwalk.o)
                                        0x599 (size before relaxing)
 .debug_str     0x0000000000000ebc       0x77 e:/psdk3v2/psdk3v2-master/ps3dev/ppu/bin/../lib/gcc/powerpc64-ps3-elf/4.5.2/../../../../powerpc64-ps3-elf/lib\libc.a(lib_a-fwrite.o)
                                        0x5b7 (size before relaxing)
 .debug_str     0x0000000000000f33       0xd0 e:/psdk3v2/psdk3v2-master/ps3dev/ppu/bin/../lib/gcc/powerpc64-ps3-elf/4.5.2/../../../../powerpc64-ps3-elf/lib\libc.a(lib_a-getreent.o)
                                        0x57f (size before relaxing)
 .debug_str     0x0000000000001003       0xb0 e:/psdk3v2/psdk3v2-master/ps3dev/ppu/bin/../lib/gcc/powerpc64-ps3-elf/4.5.2/../../../../powerpc64-ps3-elf/lib\libc.a(lib_a-impure.o)
                                        0x57e (size before relaxing)
 .debug_str     0x00000000000010b3      0x10e e:/psdk3v2/psdk3v2-master/ps3dev/ppu/bin/../lib/gcc/powerpc64-ps3-elf/4.5.2/../../../../powerpc64-ps3-elf/lib\libc.a(lib_a-lock_recursive.o)
                                        0x2a1 (size before relaxing)
 .debug_str     0x00000000000011c1       0x43 e:/psdk3v2/psdk3v2-master/ps3dev/ppu/bin/../lib/gcc/powerpc64-ps3-elf/4.5.2/../../../../powerpc64-ps3-elf/lib\libc.a(lib_a-makebuf.o)
                                        0x66a (size before relaxing)
 .debug_str     0x0000000000001204       0x37 e:/psdk3v2/psdk3v2-master/ps3dev/ppu/bin/../lib/gcc/powerpc64-ps3-elf/4.5.2/../../../../powerpc64-ps3-elf/lib\libc.a(lib_a-malloc.o)
                                        0x15a (size before relaxing)
 .debug_str     0x000000000000123b       0xe9 e:/psdk3v2/psdk3v2-master/ps3dev/ppu/bin/../lib/gcc/powerpc64-ps3-elf/4.5.2/../../../../powerpc64-ps3-elf/lib\libc.a(lib_a-mallocr.o)
                                        0x755 (size before relaxing)
 .debug_str     0x0000000000001324       0xc2 e:/psdk3v2/psdk3v2-master/ps3dev/ppu/bin/../lib/gcc/powerpc64-ps3-elf/4.5.2/../../../../powerpc64-ps3-elf/lib\libc.a(lib_a-memchr.o)
                                        0x163 (size before relaxing)
 .debug_str     0x00000000000013e6       0x59 e:/psdk3v2/psdk3v2-master/ps3dev/ppu/bin/../lib/gcc/powerpc64-ps3-elf/4.5.2/../../../../powerpc64-ps3-elf/lib\libc.a(lib_a-memcpy.o)
                                        0x170 (size before relaxing)
 .debug_str     0x000000000000143f       0x3f e:/psdk3v2/psdk3v2-master/ps3dev/ppu/bin/../lib/gcc/powerpc64-ps3-elf/4.5.2/../../../../powerpc64-ps3-elf/lib\libc.a(lib_a-memset.o)
                                        0x15d (size before relaxing)
 .debug_str     0x000000000000147e       0x5d e:/psdk3v2/psdk3v2-master/ps3dev/ppu/bin/../lib/gcc/powerpc64-ps3-elf/4.5.2/../../../../powerpc64-ps3-elf/lib\libc.a(lib_a-mlock.o)
                                        0x587 (size before relaxing)
 .debug_str     0x00000000000014db       0x55 e:/psdk3v2/psdk3v2-master/ps3dev/ppu/bin/../lib/gcc/powerpc64-ps3-elf/4.5.2/../../../../powerpc64-ps3-elf/lib\libc.a(lib_a-printf.o)
                                        0x58d (size before relaxing)
 .debug_str     0x0000000000001530       0x3e e:/psdk3v2/psdk3v2-master/ps3dev/ppu/bin/../lib/gcc/powerpc64-ps3-elf/4.5.2/../../../../powerpc64-ps3-elf/lib\libc.a(lib_a-putchar.o)
                                        0x567 (size before relaxing)
 .debug_str     0x000000000000156e       0x35 e:/psdk3v2/psdk3v2-master/ps3dev/ppu/bin/../lib/gcc/powerpc64-ps3-elf/4.5.2/../../../../powerpc64-ps3-elf/lib\libc.a(lib_a-puts.o)
                                        0x5a1 (size before relaxing)
 .debug_str     0x00000000000015a3       0x2f e:/psdk3v2/psdk3v2-master/ps3dev/ppu/bin/../lib/gcc/powerpc64-ps3-elf/4.5.2/../../../../powerpc64-ps3-elf/lib\libc.a(lib_a-rand.o)
                                        0x149 (size before relaxing)
 .debug_str     0x00000000000015d2       0x3d e:/psdk3v2/psdk3v2-master/ps3dev/ppu/bin/../lib/gcc/powerpc64-ps3-elf/4.5.2/../../../../powerpc64-ps3-elf/lib\libc.a(lib_a-refill.o)
                                        0x57e (size before relaxing)
 .debug_str     0x000000000000160f       0x3e e:/psdk3v2/psdk3v2-master/ps3dev/ppu/bin/../lib/gcc/powerpc64-ps3-elf/4.5.2/../../../../powerpc64-ps3-elf/lib\libc.a(lib_a-sprintf.o)
                                        0x595 (size before relaxing)
 .debug_str     0x000000000000164d       0x56 e:/psdk3v2/psdk3v2-master/ps3dev/ppu/bin/../lib/gcc/powerpc64-ps3-elf/4.5.2/../../../../powerpc64-ps3-elf/lib\libc.a(lib_a-stdio.o)
                                        0x5a5 (size before relaxing)
 .debug_str     0x00000000000016a3       0x32 e:/psdk3v2/psdk3v2-master/ps3dev/ppu/bin/../lib/gcc/powerpc64-ps3-elf/4.5.2/../../../../powerpc64-ps3-elf/lib\libc.a(lib_a-strlen.o)
                                        0x15c (size before relaxing)
 .debug_str     0x00000000000016d5      0x159 e:/psdk3v2/psdk3v2-master/ps3dev/ppu/bin/../lib/gcc/powerpc64-ps3-elf/4.5.2/../../../../powerpc64-ps3-elf/lib\libc.a(lib_a-svfprintf.o)
                                        0x74c (size before relaxing)
 .debug_str     0x000000000000182e       0xa0 e:/psdk3v2/psdk3v2-master/ps3dev/ppu/bin/../lib/gcc/powerpc64-ps3-elf/4.5.2/../../../../powerpc64-ps3-elf/lib\libc.a(lib_a-time.o)
                                        0x164 (size before relaxing)
 .debug_str     0x00000000000018ce       0x25 e:/psdk3v2/psdk3v2-master/ps3dev/ppu/bin/../lib/gcc/powerpc64-ps3-elf/4.5.2/../../../../powerpc64-ps3-elf/lib\libc.a(lib_a-vfprintf.o)
                                        0x770 (size before relaxing)
 .debug_str     0x00000000000018f3       0x36 e:/psdk3v2/psdk3v2-master/ps3dev/ppu/bin/../lib/gcc/powerpc64-ps3-elf/4.5.2/../../../../powerpc64-ps3-elf/lib\libc.a(lib_a-wsetup.o)
                                        0x564 (size before relaxing)
 .debug_str     0x0000000000001929       0x5f e:/psdk3v2/psdk3v2-master/ps3dev/ppu/bin/../lib/gcc/powerpc64-ps3-elf/4.5.2/../../../../powerpc64-ps3-elf/lib\libc.a(lib_a-__call_atexit.o)
                                        0x5a6 (size before relaxing)
 .debug_str     0x0000000000001988       0xec e:/psdk3v2/psdk3v2-master/ps3dev/ppu/bin/../lib/gcc/powerpc64-ps3-elf/4.5.2/../../../../powerpc64-ps3-elf/lib\libc.a(lib_a-dtoa.o)
                                        0x665 (size before relaxing)
 .debug_str     0x0000000000001a74       0x37 e:/psdk3v2/psdk3v2-master/ps3dev/ppu/bin/../lib/gcc/powerpc64-ps3-elf/4.5.2/../../../../powerpc64-ps3-elf/lib\libc.a(lib_a-flags.o)
                                        0x565 (size before relaxing)
 .debug_str     0x0000000000001aab       0x56 e:/psdk3v2/psdk3v2-master/ps3dev/ppu/bin/../lib/gcc/powerpc64-ps3-elf/4.5.2/../../../../powerpc64-ps3-elf/lib\libc.a(lib_a-fvwrite.o)
                                        0x5c7 (size before relaxing)
 .debug_str     0x0000000000001b01      0x281 e:/psdk3v2/psdk3v2-master/ps3dev/ppu/bin/../lib/gcc/powerpc64-ps3-elf/4.5.2/../../../../powerpc64-ps3-elf/lib\libc.a(lib_a-locale.o)
                                        0x7c8 (size before relaxing)
 .debug_str     0x0000000000001d82       0x67 e:/psdk3v2/psdk3v2-master/ps3dev/ppu/bin/../lib/gcc/powerpc64-ps3-elf/4.5.2/../../../../powerpc64-ps3-elf/lib\libc.a(lib_a-lock_internal.o)
                                        0x23f (size before relaxing)
 .debug_str     0x0000000000001de9       0x3d e:/psdk3v2/psdk3v2-master/ps3dev/ppu/bin/../lib/gcc/powerpc64-ps3-elf/4.5.2/../../../../powerpc64-ps3-elf/lib\libc.a(lib_a-memmove.o)
                                        0x17c (size before relaxing)
 .debug_str     0x0000000000001e26       0xe8 e:/psdk3v2/psdk3v2-master/ps3dev/ppu/bin/../lib/gcc/powerpc64-ps3-elf/4.5.2/../../../../powerpc64-ps3-elf/lib\libc.a(lib_a-mprec.o)
                                        0x672 (size before relaxing)
 .debug_str     0x0000000000001f0e       0x35 e:/psdk3v2/psdk3v2-master/ps3dev/ppu/bin/../lib/gcc/powerpc64-ps3-elf/4.5.2/../../../../powerpc64-ps3-elf/lib\libc.a(lib_a-putc.o)
                                        0x56a (size before relaxing)
 .debug_str     0x0000000000001f43       0x59 e:/psdk3v2/psdk3v2-master/ps3dev/ppu/bin/../lib/gcc/powerpc64-ps3-elf/4.5.2/../../../../powerpc64-ps3-elf/lib\libc.a(lib_a-reallocr.o)
                                        0x627 (size before relaxing)
 .debug_str     0x0000000000001f9c       0xdc e:/psdk3v2/psdk3v2-master/ps3dev/ppu/bin/../lib/gcc/powerpc64-ps3-elf/4.5.2/../../../../powerpc64-ps3-elf/lib\libc.a(lib_a-s_fpclassify.o)
                                        0x19b (size before relaxing)
 .debug_str     0x0000000000002078       0x32 e:/psdk3v2/psdk3v2-master/ps3dev/ppu/bin/../lib/gcc/powerpc64-ps3-elf/4.5.2/../../../../powerpc64-ps3-elf/lib\libc.a(lib_a-strcmp.o)
                                        0x142 (size before relaxing)
 .debug_str     0x00000000000020aa       0x1a e:/psdk3v2/psdk3v2-master/ps3dev/ppu/bin/../lib/gcc/powerpc64-ps3-elf/4.5.2/../../../../powerpc64-ps3-elf/lib\libc.a(lib_a-svfiprintf.o)
                                        0x6bf (size before relaxing)
 .debug_str     0x00000000000020c4       0x2a e:/psdk3v2/psdk3v2-master/ps3dev/ppu/bin/../lib/gcc/powerpc64-ps3-elf/4.5.2/../../../../powerpc64-ps3-elf/lib\libc.a(lib_a-vfiprintf.o)
                                        0x6dc (size before relaxing)
 .debug_str     0x00000000000020ee       0x3a e:/psdk3v2/psdk3v2-master/ps3dev/ppu/bin/../lib/gcc/powerpc64-ps3-elf/4.5.2/../../../../powerpc64-ps3-elf/lib\libc.a(lib_a-wbuf.o)
                                        0x568 (size before relaxing)
 .debug_str     0x0000000000002128       0x71 e:/psdk3v2/psdk3v2-master/ps3dev/ppu/bin/../lib/gcc/powerpc64-ps3-elf/4.5.2/../../../../powerpc64-ps3-elf/lib\libc.a(lib_a-__atexit.o)
                                        0x5c6 (size before relaxing)
 .debug_str     0x0000000000002199       0x30 e:/psdk3v2/psdk3v2-master/ps3dev/ppu/bin/../lib/gcc/powerpc64-ps3-elf/4.5.2/../../../../powerpc64-ps3-elf/lib\libc.a(lib_a-abort.o)
                                        0x140 (size before relaxing)
 .debug_str     0x00000000000021c9       0x19 e:/psdk3v2/psdk3v2-master/ps3dev/ppu/bin/../lib/gcc/powerpc64-ps3-elf/4.5.2/../../../../powerpc64-ps3-elf/lib\libc.a(lib_a-callocr.o)
                                        0x5a6 (size before relaxing)
 .debug_str     0x00000000000021e2       0x3d e:/psdk3v2/psdk3v2-master/ps3dev/ppu/bin/../lib/gcc/powerpc64-ps3-elf/4.5.2/../../../../powerpc64-ps3-elf/lib\libc.a(lib_a-fputwc.o)
                                        0x581 (size before relaxing)
 .debug_str     0x000000000000221f      0x100 e:/psdk3v2/psdk3v2-master/ps3dev/ppu/bin/../lib/gcc/powerpc64-ps3-elf/4.5.2/../../../../powerpc64-ps3-elf/lib\libc.a(lib_a-signal.o)
                                        0x5c5 (size before relaxing)
 .debug_str     0x000000000000231f       0x4f e:/psdk3v2/psdk3v2-master/ps3dev/ppu/bin/../lib/gcc/powerpc64-ps3-elf/4.5.2/../../../../powerpc64-ps3-elf/lib\libc.a(lib_a-wcrtomb.o)
                                        0x592 (size before relaxing)
 .debug_str     0x000000000000236e       0x4d e:/psdk3v2/psdk3v2-master/ps3dev/ppu/bin/../lib/gcc/powerpc64-ps3-elf/4.5.2/../../../../powerpc64-ps3-elf/lib\libc.a(lib_a-wctomb_r.o)
                                        0x5ad (size before relaxing)
 .debug_str     0x00000000000023bb       0x31 e:/psdk3v2/psdk3v2-master/ps3dev/ppu/bin/../lib/gcc/powerpc64-ps3-elf/4.5.2/../../../../powerpc64-ps3-elf/lib\libsysbase.a(close.o)
                                        0x9e7 (size before relaxing)
 .debug_str     0x00000000000023ec       0x34 e:/psdk3v2/psdk3v2-master/ps3dev/ppu/bin/../lib/gcc/powerpc64-ps3-elf/4.5.2/../../../../powerpc64-ps3-elf/lib\libsysbase.a(sbrk.o)
                                        0x9ea (size before relaxing)
 .debug_str     0x0000000000002420       0x2e e:/psdk3v2/psdk3v2-master/ps3dev/ppu/bin/../lib/gcc/powerpc64-ps3-elf/4.5.2/../../../../powerpc64-ps3-elf/lib\libsysbase.a(_exit.o)
                                        0x9e4 (size before relaxing)
 .debug_str     0x000000000000244e       0x31 e:/psdk3v2/psdk3v2-master/ps3dev/ppu/bin/../lib/gcc/powerpc64-ps3-elf/4.5.2/../../../../powerpc64-ps3-elf/lib\libsysbase.a(fstat.o)
                                        0x9e7 (size before relaxing)
 .debug_str     0x000000000000247f       0x33 e:/psdk3v2/psdk3v2-master/ps3dev/ppu/bin/../lib/gcc/powerpc64-ps3-elf/4.5.2/../../../../powerpc64-ps3-elf/lib\libsysbase.a(isatty.o)
                                        0x9e9 (size before relaxing)
 .debug_str     0x00000000000024b2       0x31 e:/psdk3v2/psdk3v2-master/ps3dev/ppu/bin/../lib/gcc/powerpc64-ps3-elf/4.5.2/../../../../powerpc64-ps3-elf/lib\libsysbase.a(lseek.o)
                                        0x9e7 (size before relaxing)
 .debug_str     0x00000000000024e3       0x2f e:/psdk3v2/psdk3v2-master/ps3dev/ppu/bin/../lib/gcc/powerpc64-ps3-elf/4.5.2/../../../../powerpc64-ps3-elf/lib\libsysbase.a(open.o)
                                        0x9f5 (size before relaxing)
 .debug_str     0x0000000000002512       0x2f e:/psdk3v2/psdk3v2-master/ps3dev/ppu/bin/../lib/gcc/powerpc64-ps3-elf/4.5.2/../../../../powerpc64-ps3-elf/lib\libsysbase.a(read.o)
                                        0x9e5 (size before relaxing)
 .debug_str     0x0000000000002541       0x31 e:/psdk3v2/psdk3v2-master/ps3dev/ppu/bin/../lib/gcc/powerpc64-ps3-elf/4.5.2/../../../../powerpc64-ps3-elf/lib\libsysbase.a(write.o)
                                        0x9e7 (size before relaxing)
 .debug_str     0x0000000000002572       0x8e e:/psdk3v2/psdk3v2-master/ps3dev/ppu/bin/../lib/gcc/powerpc64-ps3-elf/4.5.2/../../../../powerpc64-ps3-elf/lib\libsysbase.a(lock.o)
                                        0xa51 (size before relaxing)
 .debug_str     0x0000000000002600       0x33 e:/psdk3v2/psdk3v2-master/ps3dev/ppu/bin/../lib/gcc/powerpc64-ps3-elf/4.5.2/../../../../powerpc64-ps3-elf/lib\libsysbase.a(getpid.o)
                                        0x9e9 (size before relaxing)
 .debug_str     0x0000000000002633       0x2f e:/psdk3v2/psdk3v2-master/ps3dev/ppu/bin/../lib/gcc/powerpc64-ps3-elf/4.5.2/../../../../powerpc64-ps3-elf/lib\libsysbase.a(kill.o)
                                        0x55a (size before relaxing)
 .debug_str     0x0000000000002662       0x4c e:/psdk3v2/psdk3v2-master/ps3dev/ppu/bin/../lib/gcc/powerpc64-ps3-elf/4.5.2/../../../../powerpc64-ps3-elf/lib\libsysbase.a(gettod.o)
                                        0xa02 (size before relaxing)
 .debug_str     0x00000000000026ae       0xab e:/psdk3v2/psdk3v2-master/ps3dev/ppu/bin/../lib/gcc/powerpc64-ps3-elf/4.5.2/../../../../powerpc64-ps3-elf/lib\libc.a(lib_a-errno.o)
                                        0x140 (size before relaxing)
 .debug_str     0x0000000000002759       0x3b e:/psdk3v2/psdk3v2-master/ps3dev/ppu/bin/../lib/gcc/powerpc64-ps3-elf/4.5.2/../../../../powerpc64-ps3-elf/lib\libc.a(lib_a-sscanf.o)
                                        0x592 (size before relaxing)
 .debug_str     0x0000000000002794       0x34 e:/psdk3v2/psdk3v2-master/ps3dev/ppu/bin/../lib/gcc/powerpc64-ps3-elf/4.5.2/../../../../powerpc64-ps3-elf/lib\libc.a(lib_a-strncpy.o)
                                        0x173 (size before relaxing)
 .debug_str     0x00000000000027c8      0x111 e:/psdk3v2/psdk3v2-master/ps3dev/ppu/bin/../lib/gcc/powerpc64-ps3-elf/4.5.2/../../../../powerpc64-ps3-elf/lib\libc.a(lib_a-svfscanf.o)
                                        0x6d8 (size before relaxing)
 .debug_str     0x00000000000028d9       0xac e:/psdk3v2/psdk3v2-master/ps3dev/ppu/bin/../lib/gcc/powerpc64-ps3-elf/4.5.2/../../../../powerpc64-ps3-elf/lib\libc.a(lib_a-ctype_.o)
                                         0xdd (size before relaxing)
 .debug_str     0x0000000000002985       0x35 e:/psdk3v2/psdk3v2-master/ps3dev/ppu/bin/../lib/gcc/powerpc64-ps3-elf/4.5.2/../../../../powerpc64-ps3-elf/lib\libc.a(lib_a-iswspace.o)
                                        0x159 (size before relaxing)
 .debug_str     0x00000000000029ba       0x48 e:/psdk3v2/psdk3v2-master/ps3dev/ppu/bin/../lib/gcc/powerpc64-ps3-elf/4.5.2/../../../../powerpc64-ps3-elf/lib\libc.a(lib_a-mbrtowc.o)
                                        0x592 (size before relaxing)
 .debug_str     0x0000000000002a02       0x4c e:/psdk3v2/psdk3v2-master/ps3dev/ppu/bin/../lib/gcc/powerpc64-ps3-elf/4.5.2/../../../../powerpc64-ps3-elf/lib\libc.a(lib_a-mbtowc_r.o)
                                        0x5a6 (size before relaxing)
 .debug_str     0x0000000000002a4e       0x3f e:/psdk3v2/psdk3v2-master/ps3dev/ppu/bin/../lib/gcc/powerpc64-ps3-elf/4.5.2/../../../../powerpc64-ps3-elf/lib\libc.a(lib_a-sccl.o)
                                        0x14e (size before relaxing)
 .debug_str     0x0000000000002a8d       0x30 e:/psdk3v2/psdk3v2-master/ps3dev/ppu/bin/../lib/gcc/powerpc64-ps3-elf/4.5.2/../../../../powerpc64-ps3-elf/lib\libc.a(lib_a-sf_nan.o)
                                        0x160 (size before relaxing)
 .debug_str     0x0000000000002abd      0x1b8 e:/psdk3v2/psdk3v2-master/ps3dev/ppu/bin/../lib/gcc/powerpc64-ps3-elf/4.5.2/../../../../powerpc64-ps3-elf/lib\libc.a(lib_a-strtod.o)
                                        0x74e (size before relaxing)
 .debug_str     0x0000000000002c75       0x51 e:/psdk3v2/psdk3v2-master/ps3dev/ppu/bin/../lib/gcc/powerpc64-ps3-elf/4.5.2/../../../../powerpc64-ps3-elf/lib\libc.a(lib_a-strtol.o)
                                        0x598 (size before relaxing)
 .debug_str     0x0000000000002cc6       0x39 e:/psdk3v2/psdk3v2-master/ps3dev/ppu/bin/../lib/gcc/powerpc64-ps3-elf/4.5.2/../../../../powerpc64-ps3-elf/lib\libc.a(lib_a-strtoll_r.o)
                                        0x595 (size before relaxing)
 .debug_str     0x0000000000002cff       0x3f e:/psdk3v2/psdk3v2-master/ps3dev/ppu/bin/../lib/gcc/powerpc64-ps3-elf/4.5.2/../../../../powerpc64-ps3-elf/lib\libc.a(lib_a-strtoul.o)
                                        0x59b (size before relaxing)
 .debug_str     0x0000000000002d3e       0x3b e:/psdk3v2/psdk3v2-master/ps3dev/ppu/bin/../lib/gcc/powerpc64-ps3-elf/4.5.2/../../../../powerpc64-ps3-elf/lib\libc.a(lib_a-strtoull_r.o)
                                        0x597 (size before relaxing)
 .debug_str     0x0000000000002d79       0x31 e:/psdk3v2/psdk3v2-master/ps3dev/ppu/bin/../lib/gcc/powerpc64-ps3-elf/4.5.2/../../../../powerpc64-ps3-elf/lib\libc.a(lib_a-svfiscanf.o)
                                        0x6b3 (size before relaxing)
 .debug_str     0x0000000000002daa       0x45 e:/psdk3v2/psdk3v2-master/ps3dev/ppu/bin/../lib/gcc/powerpc64-ps3-elf/4.5.2/../../../../powerpc64-ps3-elf/lib\libc.a(lib_a-ungetc.o)
                                        0x57f (size before relaxing)
 .debug_str     0x0000000000002def       0xde e:/psdk3v2/psdk3v2-master/ps3dev/ppu/bin/../lib/gcc/powerpc64-ps3-elf/4.5.2/../../../../powerpc64-ps3-elf/lib\libc.a(lib_a-gdtoa-gethex.o)
                                        0x74a (size before relaxing)
 .debug_str     0x0000000000002ecd       0x42 e:/psdk3v2/psdk3v2-master/ps3dev/ppu/bin/../lib/gcc/powerpc64-ps3-elf/4.5.2/../../../../powerpc64-ps3-elf/lib\libc.a(lib_a-gdtoa-hexnan.o)
                                        0x278 (size before relaxing)
 .debug_str     0x0000000000002f0f       0x34 e:/psdk3v2/psdk3v2-master/ps3dev/ppu/bin/../lib/gcc/powerpc64-ps3-elf/4.5.2/../../../../powerpc64-ps3-elf/lib\libc.a(lib_a-strncmp.o)
                                        0x14b (size before relaxing)

.debug_loc      0x0000000000000000    0x297ed
 *(.debug_loc)
 .debug_loc     0x0000000000000000       0x5c e:/psdk3v2/psdk3v2-master/ps3dev/ppu/bin/../lib/gcc/powerpc64-ps3-elf/4.5.2/../../../../powerpc64-ps3-elf/lib\libc.a(lib_a-exit.o)
 .debug_loc     0x000000000000005c      0x235 e:/psdk3v2/psdk3v2-master/ps3dev/ppu/bin/../lib/gcc/powerpc64-ps3-elf/4.5.2/../../../../powerpc64-ps3-elf/lib\libc.a(lib_a-fclose.o)
 .debug_loc     0x0000000000000291      0x490 e:/psdk3v2/psdk3v2-master/ps3dev/ppu/bin/../lib/gcc/powerpc64-ps3-elf/4.5.2/../../../../powerpc64-ps3-elf/lib\libc.a(lib_a-fflush.o)
 .debug_loc     0x0000000000000721      0x58b e:/psdk3v2/psdk3v2-master/ps3dev/ppu/bin/../lib/gcc/powerpc64-ps3-elf/4.5.2/../../../../powerpc64-ps3-elf/lib\libc.a(lib_a-fgets.o)
 .debug_loc     0x0000000000000cac      0x7e6 e:/psdk3v2/psdk3v2-master/ps3dev/ppu/bin/../lib/gcc/powerpc64-ps3-elf/4.5.2/../../../../powerpc64-ps3-elf/lib\libc.a(lib_a-findfp.o)
 .debug_loc     0x0000000000001492      0x2f9 e:/psdk3v2/psdk3v2-master/ps3dev/ppu/bin/../lib/gcc/powerpc64-ps3-elf/4.5.2/../../../../powerpc64-ps3-elf/lib\libc.a(lib_a-fopen.o)
 .debug_loc     0x000000000000178b      0x8ba e:/psdk3v2/psdk3v2-master/ps3dev/ppu/bin/../lib/gcc/powerpc64-ps3-elf/4.5.2/../../../../powerpc64-ps3-elf/lib\libc.a(lib_a-fread.o)
 .debug_loc     0x0000000000002045      0x79a e:/psdk3v2/psdk3v2-master/ps3dev/ppu/bin/../lib/gcc/powerpc64-ps3-elf/4.5.2/../../../../powerpc64-ps3-elf/lib\libc.a(lib_a-freer.o)
 .debug_loc     0x00000000000027df      0x786 e:/psdk3v2/psdk3v2-master/ps3dev/ppu/bin/../lib/gcc/powerpc64-ps3-elf/4.5.2/../../../../powerpc64-ps3-elf/lib\libc.a(lib_a-fseek.o)
 .debug_loc     0x0000000000002f65      0x26e e:/psdk3v2/psdk3v2-master/ps3dev/ppu/bin/../lib/gcc/powerpc64-ps3-elf/4.5.2/../../../../powerpc64-ps3-elf/lib\libc.a(lib_a-ftell.o)
 .debug_loc     0x00000000000031d3      0x566 e:/psdk3v2/psdk3v2-master/ps3dev/ppu/bin/../lib/gcc/powerpc64-ps3-elf/4.5.2/../../../../powerpc64-ps3-elf/lib\libc.a(lib_a-fwalk.o)
 .debug_loc     0x0000000000003739      0x438 e:/psdk3v2/psdk3v2-master/ps3dev/ppu/bin/../lib/gcc/powerpc64-ps3-elf/4.5.2/../../../../powerpc64-ps3-elf/lib\libc.a(lib_a-fwrite.o)
 .debug_loc     0x0000000000003b71       0xc8 e:/psdk3v2/psdk3v2-master/ps3dev/ppu/bin/../lib/gcc/powerpc64-ps3-elf/4.5.2/../../../../powerpc64-ps3-elf/lib\libc.a(lib_a-getreent.o)
 .debug_loc     0x0000000000003c39      0x269 e:/psdk3v2/psdk3v2-master/ps3dev/ppu/bin/../lib/gcc/powerpc64-ps3-elf/4.5.2/../../../../powerpc64-ps3-elf/lib\libc.a(lib_a-lock_recursive.o)
 .debug_loc     0x0000000000003ea2      0x2fb e:/psdk3v2/psdk3v2-master/ps3dev/ppu/bin/../lib/gcc/powerpc64-ps3-elf/4.5.2/../../../../powerpc64-ps3-elf/lib\libc.a(lib_a-makebuf.o)
 .debug_loc     0x000000000000419d      0x106 e:/psdk3v2/psdk3v2-master/ps3dev/ppu/bin/../lib/gcc/powerpc64-ps3-elf/4.5.2/../../../../powerpc64-ps3-elf/lib\libc.a(lib_a-malloc.o)
 .debug_loc     0x00000000000042a3     0x11b0 e:/psdk3v2/psdk3v2-master/ps3dev/ppu/bin/../lib/gcc/powerpc64-ps3-elf/4.5.2/../../../../powerpc64-ps3-elf/lib\libc.a(lib_a-mallocr.o)
 .debug_loc     0x0000000000005453      0x26a e:/psdk3v2/psdk3v2-master/ps3dev/ppu/bin/../lib/gcc/powerpc64-ps3-elf/4.5.2/../../../../powerpc64-ps3-elf/lib\libc.a(lib_a-memchr.o)
 .debug_loc     0x00000000000056bd      0x24d e:/psdk3v2/psdk3v2-master/ps3dev/ppu/bin/../lib/gcc/powerpc64-ps3-elf/4.5.2/../../../../powerpc64-ps3-elf/lib\libc.a(lib_a-memcpy.o)
 .debug_loc     0x000000000000590a      0x2a9 e:/psdk3v2/psdk3v2-master/ps3dev/ppu/bin/../lib/gcc/powerpc64-ps3-elf/4.5.2/../../../../powerpc64-ps3-elf/lib\libc.a(lib_a-memset.o)
 .debug_loc     0x0000000000005bb3       0xe0 e:/psdk3v2/psdk3v2-master/ps3dev/ppu/bin/../lib/gcc/powerpc64-ps3-elf/4.5.2/../../../../powerpc64-ps3-elf/lib\libc.a(lib_a-mlock.o)
 .debug_loc     0x0000000000005c93      0x14c e:/psdk3v2/psdk3v2-master/ps3dev/ppu/bin/../lib/gcc/powerpc64-ps3-elf/4.5.2/../../../../powerpc64-ps3-elf/lib\libc.a(lib_a-printf.o)
 .debug_loc     0x0000000000005ddf      0x103 e:/psdk3v2/psdk3v2-master/ps3dev/ppu/bin/../lib/gcc/powerpc64-ps3-elf/4.5.2/../../../../powerpc64-ps3-elf/lib\libc.a(lib_a-putchar.o)
 .debug_loc     0x0000000000005ee2      0x1fc e:/psdk3v2/psdk3v2-master/ps3dev/ppu/bin/../lib/gcc/powerpc64-ps3-elf/4.5.2/../../../../powerpc64-ps3-elf/lib\libc.a(lib_a-puts.o)
 .debug_loc     0x00000000000060de       0xbd e:/psdk3v2/psdk3v2-master/ps3dev/ppu/bin/../lib/gcc/powerpc64-ps3-elf/4.5.2/../../../../powerpc64-ps3-elf/lib\libc.a(lib_a-rand.o)
 .debug_loc     0x000000000000619b      0x215 e:/psdk3v2/psdk3v2-master/ps3dev/ppu/bin/../lib/gcc/powerpc64-ps3-elf/4.5.2/../../../../powerpc64-ps3-elf/lib\libc.a(lib_a-refill.o)
 .debug_loc     0x00000000000063b0      0x16f e:/psdk3v2/psdk3v2-master/ps3dev/ppu/bin/../lib/gcc/powerpc64-ps3-elf/4.5.2/../../../../powerpc64-ps3-elf/lib\libc.a(lib_a-sprintf.o)
 .debug_loc     0x000000000000651f      0x4dd e:/psdk3v2/psdk3v2-master/ps3dev/ppu/bin/../lib/gcc/powerpc64-ps3-elf/4.5.2/../../../../powerpc64-ps3-elf/lib\libc.a(lib_a-stdio.o)
 .debug_loc     0x00000000000069fc      0x13e e:/psdk3v2/psdk3v2-master/ps3dev/ppu/bin/../lib/gcc/powerpc64-ps3-elf/4.5.2/../../../../powerpc64-ps3-elf/lib\libc.a(lib_a-strlen.o)
 .debug_loc     0x0000000000006b3a     0x3930 e:/psdk3v2/psdk3v2-master/ps3dev/ppu/bin/../lib/gcc/powerpc64-ps3-elf/4.5.2/../../../../powerpc64-ps3-elf/lib\libc.a(lib_a-svfprintf.o)
 .debug_loc     0x000000000000a46a       0xbf e:/psdk3v2/psdk3v2-master/ps3dev/ppu/bin/../lib/gcc/powerpc64-ps3-elf/4.5.2/../../../../powerpc64-ps3-elf/lib\libc.a(lib_a-time.o)
 .debug_loc     0x000000000000a529     0x3f11 e:/psdk3v2/psdk3v2-master/ps3dev/ppu/bin/../lib/gcc/powerpc64-ps3-elf/4.5.2/../../../../powerpc64-ps3-elf/lib\libc.a(lib_a-vfprintf.o)
 .debug_loc     0x000000000000e43a       0xf4 e:/psdk3v2/psdk3v2-master/ps3dev/ppu/bin/../lib/gcc/powerpc64-ps3-elf/4.5.2/../../../../powerpc64-ps3-elf/lib\libc.a(lib_a-wsetup.o)
 .debug_loc     0x000000000000e52e      0x287 e:/psdk3v2/psdk3v2-master/ps3dev/ppu/bin/../lib/gcc/powerpc64-ps3-elf/4.5.2/../../../../powerpc64-ps3-elf/lib\libc.a(lib_a-__call_atexit.o)
 .debug_loc     0x000000000000e7b5     0x35a1 e:/psdk3v2/psdk3v2-master/ps3dev/ppu/bin/../lib/gcc/powerpc64-ps3-elf/4.5.2/../../../../powerpc64-ps3-elf/lib\libc.a(lib_a-dtoa.o)
 .debug_loc     0x0000000000011d56      0x164 e:/psdk3v2/psdk3v2-master/ps3dev/ppu/bin/../lib/gcc/powerpc64-ps3-elf/4.5.2/../../../../powerpc64-ps3-elf/lib\libc.a(lib_a-flags.o)
 .debug_loc     0x0000000000011eba      0x982 e:/psdk3v2/psdk3v2-master/ps3dev/ppu/bin/../lib/gcc/powerpc64-ps3-elf/4.5.2/../../../../powerpc64-ps3-elf/lib\libc.a(lib_a-fvwrite.o)
 .debug_loc     0x000000000001283c      0x21a e:/psdk3v2/psdk3v2-master/ps3dev/ppu/bin/../lib/gcc/powerpc64-ps3-elf/4.5.2/../../../../powerpc64-ps3-elf/lib\libc.a(lib_a-locale.o)
 .debug_loc     0x0000000000012a56      0x10d e:/psdk3v2/psdk3v2-master/ps3dev/ppu/bin/../lib/gcc/powerpc64-ps3-elf/4.5.2/../../../../powerpc64-ps3-elf/lib\libc.a(lib_a-lock_internal.o)
 .debug_loc     0x0000000000012b63      0x2c4 e:/psdk3v2/psdk3v2-master/ps3dev/ppu/bin/../lib/gcc/powerpc64-ps3-elf/4.5.2/../../../../powerpc64-ps3-elf/lib\libc.a(lib_a-memmove.o)
 .debug_loc     0x0000000000012e27     0x2b85 e:/psdk3v2/psdk3v2-master/ps3dev/ppu/bin/../lib/gcc/powerpc64-ps3-elf/4.5.2/../../../../powerpc64-ps3-elf/lib\libc.a(lib_a-mprec.o)
 .debug_loc     0x00000000000159ac      0x29d e:/psdk3v2/psdk3v2-master/ps3dev/ppu/bin/../lib/gcc/powerpc64-ps3-elf/4.5.2/../../../../powerpc64-ps3-elf/lib\libc.a(lib_a-putc.o)
 .debug_loc     0x0000000000015c49     0x12d3 e:/psdk3v2/psdk3v2-master/ps3dev/ppu/bin/../lib/gcc/powerpc64-ps3-elf/4.5.2/../../../../powerpc64-ps3-elf/lib\libc.a(lib_a-reallocr.o)
 .debug_loc     0x0000000000016f1c       0x23 e:/psdk3v2/psdk3v2-master/ps3dev/ppu/bin/../lib/gcc/powerpc64-ps3-elf/4.5.2/../../../../powerpc64-ps3-elf/lib\libc.a(lib_a-s_fpclassify.o)
 .debug_loc     0x0000000000016f3f      0x18f e:/psdk3v2/psdk3v2-master/ps3dev/ppu/bin/../lib/gcc/powerpc64-ps3-elf/4.5.2/../../../../powerpc64-ps3-elf/lib\libc.a(lib_a-strcmp.o)
 .debug_loc     0x00000000000170ce     0x1f86 e:/psdk3v2/psdk3v2-master/ps3dev/ppu/bin/../lib/gcc/powerpc64-ps3-elf/4.5.2/../../../../powerpc64-ps3-elf/lib\libc.a(lib_a-svfiprintf.o)
 .debug_loc     0x0000000000019054     0x22f9 e:/psdk3v2/psdk3v2-master/ps3dev/ppu/bin/../lib/gcc/powerpc64-ps3-elf/4.5.2/../../../../powerpc64-ps3-elf/lib\libc.a(lib_a-vfiprintf.o)
 .debug_loc     0x000000000001b34d      0x28d e:/psdk3v2/psdk3v2-master/ps3dev/ppu/bin/../lib/gcc/powerpc64-ps3-elf/4.5.2/../../../../powerpc64-ps3-elf/lib\libc.a(lib_a-wbuf.o)
 .debug_loc     0x000000000001b5da      0x1f5 e:/psdk3v2/psdk3v2-master/ps3dev/ppu/bin/../lib/gcc/powerpc64-ps3-elf/4.5.2/../../../../powerpc64-ps3-elf/lib\libc.a(lib_a-__atexit.o)
 .debug_loc     0x000000000001b7cf       0x39 e:/psdk3v2/psdk3v2-master/ps3dev/ppu/bin/../lib/gcc/powerpc64-ps3-elf/4.5.2/../../../../powerpc64-ps3-elf/lib\libc.a(lib_a-abort.o)
 .debug_loc     0x000000000001b808      0x320 e:/psdk3v2/psdk3v2-master/ps3dev/ppu/bin/../lib/gcc/powerpc64-ps3-elf/4.5.2/../../../../powerpc64-ps3-elf/lib\libc.a(lib_a-callocr.o)
 .debug_loc     0x000000000001bb28      0x3c8 e:/psdk3v2/psdk3v2-master/ps3dev/ppu/bin/../lib/gcc/powerpc64-ps3-elf/4.5.2/../../../../powerpc64-ps3-elf/lib\libc.a(lib_a-fputwc.o)
 .debug_loc     0x000000000001bef0      0x72d e:/psdk3v2/psdk3v2-master/ps3dev/ppu/bin/../lib/gcc/powerpc64-ps3-elf/4.5.2/../../../../powerpc64-ps3-elf/lib\libc.a(lib_a-signal.o)
 .debug_loc     0x000000000001c61d      0x42d e:/psdk3v2/psdk3v2-master/ps3dev/ppu/bin/../lib/gcc/powerpc64-ps3-elf/4.5.2/../../../../powerpc64-ps3-elf/lib\libc.a(lib_a-wcrtomb.o)
 .debug_loc     0x000000000001ca4a      0x158 e:/psdk3v2/psdk3v2-master/ps3dev/ppu/bin/../lib/gcc/powerpc64-ps3-elf/4.5.2/../../../../powerpc64-ps3-elf/lib\libc.a(lib_a-wctomb_r.o)
 .debug_loc     0x000000000001cba2       0xe1 e:/psdk3v2/psdk3v2-master/ps3dev/ppu/bin/../lib/gcc/powerpc64-ps3-elf/4.5.2/../../../../powerpc64-ps3-elf/lib\libsysbase.a(close.o)
 .debug_loc     0x000000000001cc83       0xf5 e:/psdk3v2/psdk3v2-master/ps3dev/ppu/bin/../lib/gcc/powerpc64-ps3-elf/4.5.2/../../../../powerpc64-ps3-elf/lib\libsysbase.a(sbrk.o)
 .debug_loc     0x000000000001cd78       0x5c e:/psdk3v2/psdk3v2-master/ps3dev/ppu/bin/../lib/gcc/powerpc64-ps3-elf/4.5.2/../../../../powerpc64-ps3-elf/lib\libsysbase.a(_exit.o)
 .debug_loc     0x000000000001cdd4      0x117 e:/psdk3v2/psdk3v2-master/ps3dev/ppu/bin/../lib/gcc/powerpc64-ps3-elf/4.5.2/../../../../powerpc64-ps3-elf/lib\libsysbase.a(fstat.o)
 .debug_loc     0x000000000001ceeb       0xf5 e:/psdk3v2/psdk3v2-master/ps3dev/ppu/bin/../lib/gcc/powerpc64-ps3-elf/4.5.2/../../../../powerpc64-ps3-elf/lib\libsysbase.a(isatty.o)
 .debug_loc     0x000000000001cfe0      0x14d e:/psdk3v2/psdk3v2-master/ps3dev/ppu/bin/../lib/gcc/powerpc64-ps3-elf/4.5.2/../../../../powerpc64-ps3-elf/lib\libsysbase.a(lseek.o)
 .debug_loc     0x000000000001d12d      0x14d e:/psdk3v2/psdk3v2-master/ps3dev/ppu/bin/../lib/gcc/powerpc64-ps3-elf/4.5.2/../../../../powerpc64-ps3-elf/lib\libsysbase.a(open.o)
 .debug_loc     0x000000000001d27a      0x14d e:/psdk3v2/psdk3v2-master/ps3dev/ppu/bin/../lib/gcc/powerpc64-ps3-elf/4.5.2/../../../../powerpc64-ps3-elf/lib\libsysbase.a(read.o)
 .debug_loc     0x000000000001d3c7      0x14d e:/psdk3v2/psdk3v2-master/ps3dev/ppu/bin/../lib/gcc/powerpc64-ps3-elf/4.5.2/../../../../powerpc64-ps3-elf/lib\libsysbase.a(write.o)
 .debug_loc     0x000000000001d514      0x556 e:/psdk3v2/psdk3v2-master/ps3dev/ppu/bin/../lib/gcc/powerpc64-ps3-elf/4.5.2/../../../../powerpc64-ps3-elf/lib\libsysbase.a(lock.o)
 .debug_loc     0x000000000001da6a       0xab e:/psdk3v2/psdk3v2-master/ps3dev/ppu/bin/../lib/gcc/powerpc64-ps3-elf/4.5.2/../../../../powerpc64-ps3-elf/lib\libsysbase.a(getpid.o)
 .debug_loc     0x000000000001db15       0x23 e:/psdk3v2/psdk3v2-master/ps3dev/ppu/bin/../lib/gcc/powerpc64-ps3-elf/4.5.2/../../../../powerpc64-ps3-elf/lib\libsysbase.a(kill.o)
 .debug_loc     0x000000000001db38      0x117 e:/psdk3v2/psdk3v2-master/ps3dev/ppu/bin/../lib/gcc/powerpc64-ps3-elf/4.5.2/../../../../powerpc64-ps3-elf/lib\libsysbase.a(gettod.o)
 .debug_loc     0x000000000001dc4f       0x4d e:/psdk3v2/psdk3v2-master/ps3dev/ppu/bin/../lib/gcc/powerpc64-ps3-elf/4.5.2/../../../../powerpc64-ps3-elf/lib\libc.a(lib_a-errno.o)
 .debug_loc     0x000000000001dc9c      0x16f e:/psdk3v2/psdk3v2-master/ps3dev/ppu/bin/../lib/gcc/powerpc64-ps3-elf/4.5.2/../../../../powerpc64-ps3-elf/lib\libc.a(lib_a-sscanf.o)
 .debug_loc     0x000000000001de0b      0x1f5 e:/psdk3v2/psdk3v2-master/ps3dev/ppu/bin/../lib/gcc/powerpc64-ps3-elf/4.5.2/../../../../powerpc64-ps3-elf/lib\libc.a(lib_a-strncpy.o)
 .debug_loc     0x000000000001e000     0x2535 e:/psdk3v2/psdk3v2-master/ps3dev/ppu/bin/../lib/gcc/powerpc64-ps3-elf/4.5.2/../../../../powerpc64-ps3-elf/lib\libc.a(lib_a-svfscanf.o)
 .debug_loc     0x0000000000020535       0x23 e:/psdk3v2/psdk3v2-master/ps3dev/ppu/bin/../lib/gcc/powerpc64-ps3-elf/4.5.2/../../../../powerpc64-ps3-elf/lib\libc.a(lib_a-iswspace.o)
 .debug_loc     0x0000000000020558      0x4f8 e:/psdk3v2/psdk3v2-master/ps3dev/ppu/bin/../lib/gcc/powerpc64-ps3-elf/4.5.2/../../../../powerpc64-ps3-elf/lib\libc.a(lib_a-mbrtowc.o)
 .debug_loc     0x0000000000020a50      0x18e e:/psdk3v2/psdk3v2-master/ps3dev/ppu/bin/../lib/gcc/powerpc64-ps3-elf/4.5.2/../../../../powerpc64-ps3-elf/lib\libc.a(lib_a-mbtowc_r.o)
 .debug_loc     0x0000000000020bde      0x242 e:/psdk3v2/psdk3v2-master/ps3dev/ppu/bin/../lib/gcc/powerpc64-ps3-elf/4.5.2/../../../../powerpc64-ps3-elf/lib\libc.a(lib_a-sccl.o)
 .debug_loc     0x0000000000020e20     0x2e39 e:/psdk3v2/psdk3v2-master/ps3dev/ppu/bin/../lib/gcc/powerpc64-ps3-elf/4.5.2/../../../../powerpc64-ps3-elf/lib\libc.a(lib_a-strtod.o)
 .debug_loc     0x0000000000023c59      0x60d e:/psdk3v2/psdk3v2-master/ps3dev/ppu/bin/../lib/gcc/powerpc64-ps3-elf/4.5.2/../../../../powerpc64-ps3-elf/lib\libc.a(lib_a-strtol.o)
 .debug_loc     0x0000000000024266      0x50b e:/psdk3v2/psdk3v2-master/ps3dev/ppu/bin/../lib/gcc/powerpc64-ps3-elf/4.5.2/../../../../powerpc64-ps3-elf/lib\libc.a(lib_a-strtoll_r.o)
 .debug_loc     0x0000000000024771      0x4ef e:/psdk3v2/psdk3v2-master/ps3dev/ppu/bin/../lib/gcc/powerpc64-ps3-elf/4.5.2/../../../../powerpc64-ps3-elf/lib\libc.a(lib_a-strtoul.o)
 .debug_loc     0x0000000000024c60      0x3ed e:/psdk3v2/psdk3v2-master/ps3dev/ppu/bin/../lib/gcc/powerpc64-ps3-elf/4.5.2/../../../../powerpc64-ps3-elf/lib\libc.a(lib_a-strtoull_r.o)
 .debug_loc     0x000000000002504d     0x2233 e:/psdk3v2/psdk3v2-master/ps3dev/ppu/bin/../lib/gcc/powerpc64-ps3-elf/4.5.2/../../../../powerpc64-ps3-elf/lib\libc.a(lib_a-svfiscanf.o)
 .debug_loc     0x0000000000027280      0x443 e:/psdk3v2/psdk3v2-master/ps3dev/ppu/bin/../lib/gcc/powerpc64-ps3-elf/4.5.2/../../../../powerpc64-ps3-elf/lib\libc.a(lib_a-ungetc.o)
 .debug_loc     0x00000000000276c3     0x175d e:/psdk3v2/psdk3v2-master/ps3dev/ppu/bin/../lib/gcc/powerpc64-ps3-elf/4.5.2/../../../../powerpc64-ps3-elf/lib\libc.a(lib_a-gdtoa-gethex.o)
 .debug_loc     0x0000000000028e20      0x73b e:/psdk3v2/psdk3v2-master/ps3dev/ppu/bin/../lib/gcc/powerpc64-ps3-elf/4.5.2/../../../../powerpc64-ps3-elf/lib\libc.a(lib_a-gdtoa-hexnan.o)
 .debug_loc     0x000000000002955b      0x292 e:/psdk3v2/psdk3v2-master/ps3dev/ppu/bin/../lib/gcc/powerpc64-ps3-elf/4.5.2/../../../../powerpc64-ps3-elf/lib\libc.a(lib_a-strncmp.o)

.debug_macinfo
 *(.debug_macinfo)

.debug_weaknames
 *(.debug_weaknames)

.debug_funcnames
 *(.debug_funcnames)

.debug_typenames
 *(.debug_typenames)

.debug_varnames
 *(.debug_varnames)

.debug_pubtypes
                0x0000000000000000     0x6fe3
 *(.debug_pubtypes)
 .debug_pubtypes
                0x0000000000000000      0x2d1 e:/psdk3v2/psdk3v2-master/ps3dev/ppu/bin/../lib/gcc/powerpc64-ps3-elf/4.5.2/../../../../powerpc64-ps3-elf/lib\libsysbase.a(syscalls.o)
 .debug_pubtypes
                0x00000000000002d1      0x124 e:/psdk3v2/psdk3v2-master/ps3dev/ppu/bin/../lib/gcc/powerpc64-ps3-elf/4.5.2/../../../../powerpc64-ps3-elf/lib\libc.a(lib_a-exit.o)
 .debug_pubtypes
                0x00000000000003f5      0x12d e:/psdk3v2/psdk3v2-master/ps3dev/ppu/bin/../lib/gcc/powerpc64-ps3-elf/4.5.2/../../../../powerpc64-ps3-elf/lib\libc.a(lib_a-fclose.o)
 .debug_pubtypes
                0x0000000000000522      0x12d e:/psdk3v2/psdk3v2-master/ps3dev/ppu/bin/../lib/gcc/powerpc64-ps3-elf/4.5.2/../../../../powerpc64-ps3-elf/lib\libc.a(lib_a-fflush.o)
 .debug_pubtypes
                0x000000000000064f      0x138 e:/psdk3v2/psdk3v2-master/ps3dev/ppu/bin/../lib/gcc/powerpc64-ps3-elf/4.5.2/../../../../powerpc64-ps3-elf/lib\libc.a(lib_a-fgets.o)
 .debug_pubtypes
                0x0000000000000787      0x12d e:/psdk3v2/psdk3v2-master/ps3dev/ppu/bin/../lib/gcc/powerpc64-ps3-elf/4.5.2/../../../../powerpc64-ps3-elf/lib\libc.a(lib_a-findfp.o)
 .debug_pubtypes
                0x00000000000008b4      0x12d e:/psdk3v2/psdk3v2-master/ps3dev/ppu/bin/../lib/gcc/powerpc64-ps3-elf/4.5.2/../../../../powerpc64-ps3-elf/lib\libc.a(lib_a-fopen.o)
 .debug_pubtypes
                0x00000000000009e1      0x138 e:/psdk3v2/psdk3v2-master/ps3dev/ppu/bin/../lib/gcc/powerpc64-ps3-elf/4.5.2/../../../../powerpc64-ps3-elf/lib\libc.a(lib_a-fread.o)
 .debug_pubtypes
                0x0000000000000b19      0x167 e:/psdk3v2/psdk3v2-master/ps3dev/ppu/bin/../lib/gcc/powerpc64-ps3-elf/4.5.2/../../../../powerpc64-ps3-elf/lib\libc.a(lib_a-freer.o)
 .debug_pubtypes
                0x0000000000000c80      0x1c4 e:/psdk3v2/psdk3v2-master/ps3dev/ppu/bin/../lib/gcc/powerpc64-ps3-elf/4.5.2/../../../../powerpc64-ps3-elf/lib\libc.a(lib_a-fseek.o)
 .debug_pubtypes
                0x0000000000000e44      0x12d e:/psdk3v2/psdk3v2-master/ps3dev/ppu/bin/../lib/gcc/powerpc64-ps3-elf/4.5.2/../../../../powerpc64-ps3-elf/lib\libc.a(lib_a-ftell.o)
 .debug_pubtypes
                0x0000000000000f71      0x12d e:/psdk3v2/psdk3v2-master/ps3dev/ppu/bin/../lib/gcc/powerpc64-ps3-elf/4.5.2/../../../../powerpc64-ps3-elf/lib\libc.a(lib_a-fwalk.o)
 .debug_pubtypes
                0x000000000000109e      0x14e e:/psdk3v2/psdk3v2-master/ps3dev/ppu/bin/../lib/gcc/powerpc64-ps3-elf/4.5.2/../../../../powerpc64-ps3-elf/lib\libc.a(lib_a-fwrite.o)
 .debug_pubtypes
                0x00000000000011ec      0x124 e:/psdk3v2/psdk3v2-master/ps3dev/ppu/bin/../lib/gcc/powerpc64-ps3-elf/4.5.2/../../../../powerpc64-ps3-elf/lib\libc.a(lib_a-getreent.o)
 .debug_pubtypes
                0x0000000000001310      0x124 e:/psdk3v2/psdk3v2-master/ps3dev/ppu/bin/../lib/gcc/powerpc64-ps3-elf/4.5.2/../../../../powerpc64-ps3-elf/lib\libc.a(lib_a-impure.o)
 .debug_pubtypes
                0x0000000000001434       0x7c e:/psdk3v2/psdk3v2-master/ps3dev/ppu/bin/../lib/gcc/powerpc64-ps3-elf/4.5.2/../../../../powerpc64-ps3-elf/lib\libc.a(lib_a-lock_recursive.o)
 .debug_pubtypes
                0x00000000000014b0      0x1c4 e:/psdk3v2/psdk3v2-master/ps3dev/ppu/bin/../lib/gcc/powerpc64-ps3-elf/4.5.2/../../../../powerpc64-ps3-elf/lib\libc.a(lib_a-makebuf.o)
 .debug_pubtypes
                0x0000000000001674       0x1d e:/psdk3v2/psdk3v2-master/ps3dev/ppu/bin/../lib/gcc/powerpc64-ps3-elf/4.5.2/../../../../powerpc64-ps3-elf/lib\libc.a(lib_a-malloc.o)
 .debug_pubtypes
                0x0000000000001691      0x167 e:/psdk3v2/psdk3v2-master/ps3dev/ppu/bin/../lib/gcc/powerpc64-ps3-elf/4.5.2/../../../../powerpc64-ps3-elf/lib\libc.a(lib_a-mallocr.o)
 .debug_pubtypes
                0x00000000000017f8       0x1d e:/psdk3v2/psdk3v2-master/ps3dev/ppu/bin/../lib/gcc/powerpc64-ps3-elf/4.5.2/../../../../powerpc64-ps3-elf/lib\libc.a(lib_a-memchr.o)
 .debug_pubtypes
                0x0000000000001815       0x1d e:/psdk3v2/psdk3v2-master/ps3dev/ppu/bin/../lib/gcc/powerpc64-ps3-elf/4.5.2/../../../../powerpc64-ps3-elf/lib\libc.a(lib_a-memcpy.o)
 .debug_pubtypes
                0x0000000000001832       0x1d e:/psdk3v2/psdk3v2-master/ps3dev/ppu/bin/../lib/gcc/powerpc64-ps3-elf/4.5.2/../../../../powerpc64-ps3-elf/lib\libc.a(lib_a-memset.o)
 .debug_pubtypes
                0x000000000000184f      0x124 e:/psdk3v2/psdk3v2-master/ps3dev/ppu/bin/../lib/gcc/powerpc64-ps3-elf/4.5.2/../../../../powerpc64-ps3-elf/lib\libc.a(lib_a-mlock.o)
 .debug_pubtypes
                0x0000000000001973      0x143 e:/psdk3v2/psdk3v2-master/ps3dev/ppu/bin/../lib/gcc/powerpc64-ps3-elf/4.5.2/../../../../powerpc64-ps3-elf/lib\libc.a(lib_a-printf.o)
 .debug_pubtypes
                0x0000000000001ab6      0x124 e:/psdk3v2/psdk3v2-master/ps3dev/ppu/bin/../lib/gcc/powerpc64-ps3-elf/4.5.2/../../../../powerpc64-ps3-elf/lib\libc.a(lib_a-putchar.o)
 .debug_pubtypes
                0x0000000000001bda      0x145 e:/psdk3v2/psdk3v2-master/ps3dev/ppu/bin/../lib/gcc/powerpc64-ps3-elf/4.5.2/../../../../powerpc64-ps3-elf/lib\libc.a(lib_a-puts.o)
 .debug_pubtypes
                0x0000000000001d1f       0x12 e:/psdk3v2/psdk3v2-master/ps3dev/ppu/bin/../lib/gcc/powerpc64-ps3-elf/4.5.2/../../../../powerpc64-ps3-elf/lib\libc.a(lib_a-rand.o)
 .debug_pubtypes
                0x0000000000001d31      0x12d e:/psdk3v2/psdk3v2-master/ps3dev/ppu/bin/../lib/gcc/powerpc64-ps3-elf/4.5.2/../../../../powerpc64-ps3-elf/lib\libc.a(lib_a-refill.o)
 .debug_pubtypes
                0x0000000000001e5e      0x14c e:/psdk3v2/psdk3v2-master/ps3dev/ppu/bin/../lib/gcc/powerpc64-ps3-elf/4.5.2/../../../../powerpc64-ps3-elf/lib\libc.a(lib_a-sprintf.o)
 .debug_pubtypes
                0x0000000000001faa      0x138 e:/psdk3v2/psdk3v2-master/ps3dev/ppu/bin/../lib/gcc/powerpc64-ps3-elf/4.5.2/../../../../powerpc64-ps3-elf/lib\libc.a(lib_a-stdio.o)
 .debug_pubtypes
                0x00000000000020e2       0x1d e:/psdk3v2/psdk3v2-master/ps3dev/ppu/bin/../lib/gcc/powerpc64-ps3-elf/4.5.2/../../../../powerpc64-ps3-elf/lib\libc.a(lib_a-strlen.o)
 .debug_pubtypes
                0x00000000000020ff      0x1b2 e:/psdk3v2/psdk3v2-master/ps3dev/ppu/bin/../lib/gcc/powerpc64-ps3-elf/4.5.2/../../../../powerpc64-ps3-elf/lib\libc.a(lib_a-svfprintf.o)
 .debug_pubtypes
                0x00000000000022b1       0x39 e:/psdk3v2/psdk3v2-master/ps3dev/ppu/bin/../lib/gcc/powerpc64-ps3-elf/4.5.2/../../../../powerpc64-ps3-elf/lib\libc.a(lib_a-time.o)
 .debug_pubtypes
                0x00000000000022ea      0x1b2 e:/psdk3v2/psdk3v2-master/ps3dev/ppu/bin/../lib/gcc/powerpc64-ps3-elf/4.5.2/../../../../powerpc64-ps3-elf/lib\libc.a(lib_a-vfprintf.o)
 .debug_pubtypes
                0x000000000000249c      0x12d e:/psdk3v2/psdk3v2-master/ps3dev/ppu/bin/../lib/gcc/powerpc64-ps3-elf/4.5.2/../../../../powerpc64-ps3-elf/lib\libc.a(lib_a-wsetup.o)
 .debug_pubtypes
                0x00000000000025c9      0x124 e:/psdk3v2/psdk3v2-master/ps3dev/ppu/bin/../lib/gcc/powerpc64-ps3-elf/4.5.2/../../../../powerpc64-ps3-elf/lib\libc.a(lib_a-__call_atexit.o)
 .debug_pubtypes
                0x00000000000026ed      0x150 e:/psdk3v2/psdk3v2-master/ps3dev/ppu/bin/../lib/gcc/powerpc64-ps3-elf/4.5.2/../../../../powerpc64-ps3-elf/lib\libc.a(lib_a-dtoa.o)
 .debug_pubtypes
                0x000000000000283d      0x124 e:/psdk3v2/psdk3v2-master/ps3dev/ppu/bin/../lib/gcc/powerpc64-ps3-elf/4.5.2/../../../../powerpc64-ps3-elf/lib\libc.a(lib_a-flags.o)
 .debug_pubtypes
                0x0000000000002961      0x14e e:/psdk3v2/psdk3v2-master/ps3dev/ppu/bin/../lib/gcc/powerpc64-ps3-elf/4.5.2/../../../../powerpc64-ps3-elf/lib\libc.a(lib_a-fvwrite.o)
 .debug_pubtypes
                0x0000000000002aaf      0x12e e:/psdk3v2/psdk3v2-master/ps3dev/ppu/bin/../lib/gcc/powerpc64-ps3-elf/4.5.2/../../../../powerpc64-ps3-elf/lib\libc.a(lib_a-locale.o)
 .debug_pubtypes
                0x0000000000002bdd       0x7c e:/psdk3v2/psdk3v2-master/ps3dev/ppu/bin/../lib/gcc/powerpc64-ps3-elf/4.5.2/../../../../powerpc64-ps3-elf/lib\libc.a(lib_a-lock_internal.o)
 .debug_pubtypes
                0x0000000000002c59       0x1d e:/psdk3v2/psdk3v2-master/ps3dev/ppu/bin/../lib/gcc/powerpc64-ps3-elf/4.5.2/../../../../powerpc64-ps3-elf/lib\libc.a(lib_a-memmove.o)
 .debug_pubtypes
                0x0000000000002c76      0x150 e:/psdk3v2/psdk3v2-master/ps3dev/ppu/bin/../lib/gcc/powerpc64-ps3-elf/4.5.2/../../../../powerpc64-ps3-elf/lib\libc.a(lib_a-mprec.o)
 .debug_pubtypes
                0x0000000000002dc6      0x12d e:/psdk3v2/psdk3v2-master/ps3dev/ppu/bin/../lib/gcc/powerpc64-ps3-elf/4.5.2/../../../../powerpc64-ps3-elf/lib\libc.a(lib_a-putc.o)
 .debug_pubtypes
                0x0000000000002ef3      0x15a e:/psdk3v2/psdk3v2-master/ps3dev/ppu/bin/../lib/gcc/powerpc64-ps3-elf/4.5.2/../../../../powerpc64-ps3-elf/lib\libc.a(lib_a-reallocr.o)
 .debug_pubtypes
                0x000000000000304d       0x3c e:/psdk3v2/psdk3v2-master/ps3dev/ppu/bin/../lib/gcc/powerpc64-ps3-elf/4.5.2/../../../../powerpc64-ps3-elf/lib\libc.a(lib_a-s_fpclassify.o)
 .debug_pubtypes
                0x0000000000003089       0x12 e:/psdk3v2/psdk3v2-master/ps3dev/ppu/bin/../lib/gcc/powerpc64-ps3-elf/4.5.2/../../../../powerpc64-ps3-elf/lib\libc.a(lib_a-strcmp.o)
 .debug_pubtypes
                0x000000000000309b      0x192 e:/psdk3v2/psdk3v2-master/ps3dev/ppu/bin/../lib/gcc/powerpc64-ps3-elf/4.5.2/../../../../powerpc64-ps3-elf/lib\libc.a(lib_a-svfiprintf.o)
 .debug_pubtypes
                0x000000000000322d      0x19e e:/psdk3v2/psdk3v2-master/ps3dev/ppu/bin/../lib/gcc/powerpc64-ps3-elf/4.5.2/../../../../powerpc64-ps3-elf/lib\libc.a(lib_a-vfiprintf.o)
 .debug_pubtypes
                0x00000000000033cb      0x12d e:/psdk3v2/psdk3v2-master/ps3dev/ppu/bin/../lib/gcc/powerpc64-ps3-elf/4.5.2/../../../../powerpc64-ps3-elf/lib\libc.a(lib_a-wbuf.o)
 .debug_pubtypes
                0x00000000000034f8      0x137 e:/psdk3v2/psdk3v2-master/ps3dev/ppu/bin/../lib/gcc/powerpc64-ps3-elf/4.5.2/../../../../powerpc64-ps3-elf/lib\libc.a(lib_a-__atexit.o)
 .debug_pubtypes
                0x000000000000362f       0x12 e:/psdk3v2/psdk3v2-master/ps3dev/ppu/bin/../lib/gcc/powerpc64-ps3-elf/4.5.2/../../../../powerpc64-ps3-elf/lib\libc.a(lib_a-abort.o)
 .debug_pubtypes
                0x0000000000003641      0x14e e:/psdk3v2/psdk3v2-master/ps3dev/ppu/bin/../lib/gcc/powerpc64-ps3-elf/4.5.2/../../../../powerpc64-ps3-elf/lib\libc.a(lib_a-callocr.o)
 .debug_pubtypes
                0x000000000000378f      0x144 e:/psdk3v2/psdk3v2-master/ps3dev/ppu/bin/../lib/gcc/powerpc64-ps3-elf/4.5.2/../../../../powerpc64-ps3-elf/lib\libc.a(lib_a-fputwc.o)
 .debug_pubtypes
                0x00000000000038d3      0x136 e:/psdk3v2/psdk3v2-master/ps3dev/ppu/bin/../lib/gcc/powerpc64-ps3-elf/4.5.2/../../../../powerpc64-ps3-elf/lib\libc.a(lib_a-signal.o)
 .debug_pubtypes
                0x0000000000003a09      0x149 e:/psdk3v2/psdk3v2-master/ps3dev/ppu/bin/../lib/gcc/powerpc64-ps3-elf/4.5.2/../../../../powerpc64-ps3-elf/lib\libc.a(lib_a-wcrtomb.o)
 .debug_pubtypes
                0x0000000000003b52      0x149 e:/psdk3v2/psdk3v2-master/ps3dev/ppu/bin/../lib/gcc/powerpc64-ps3-elf/4.5.2/../../../../powerpc64-ps3-elf/lib\libc.a(lib_a-wctomb_r.o)
 .debug_pubtypes
                0x0000000000003c9b      0x2d1 e:/psdk3v2/psdk3v2-master/ps3dev/ppu/bin/../lib/gcc/powerpc64-ps3-elf/4.5.2/../../../../powerpc64-ps3-elf/lib\libsysbase.a(close.o)
 .debug_pubtypes
                0x0000000000003f6c      0x2d1 e:/psdk3v2/psdk3v2-master/ps3dev/ppu/bin/../lib/gcc/powerpc64-ps3-elf/4.5.2/../../../../powerpc64-ps3-elf/lib\libsysbase.a(sbrk.o)
 .debug_pubtypes
                0x000000000000423d      0x2d1 e:/psdk3v2/psdk3v2-master/ps3dev/ppu/bin/../lib/gcc/powerpc64-ps3-elf/4.5.2/../../../../powerpc64-ps3-elf/lib\libsysbase.a(_exit.o)
 .debug_pubtypes
                0x000000000000450e      0x2d1 e:/psdk3v2/psdk3v2-master/ps3dev/ppu/bin/../lib/gcc/powerpc64-ps3-elf/4.5.2/../../../../powerpc64-ps3-elf/lib\libsysbase.a(fstat.o)
 .debug_pubtypes
                0x00000000000047df      0x2d1 e:/psdk3v2/psdk3v2-master/ps3dev/ppu/bin/../lib/gcc/powerpc64-ps3-elf/4.5.2/../../../../powerpc64-ps3-elf/lib\libsysbase.a(isatty.o)
 .debug_pubtypes
                0x0000000000004ab0      0x2d1 e:/psdk3v2/psdk3v2-master/ps3dev/ppu/bin/../lib/gcc/powerpc64-ps3-elf/4.5.2/../../../../powerpc64-ps3-elf/lib\libsysbase.a(lseek.o)
 .debug_pubtypes
                0x0000000000004d81      0x2d1 e:/psdk3v2/psdk3v2-master/ps3dev/ppu/bin/../lib/gcc/powerpc64-ps3-elf/4.5.2/../../../../powerpc64-ps3-elf/lib\libsysbase.a(open.o)
 .debug_pubtypes
                0x0000000000005052      0x2d1 e:/psdk3v2/psdk3v2-master/ps3dev/ppu/bin/../lib/gcc/powerpc64-ps3-elf/4.5.2/../../../../powerpc64-ps3-elf/lib\libsysbase.a(read.o)
 .debug_pubtypes
                0x0000000000005323      0x2d1 e:/psdk3v2/psdk3v2-master/ps3dev/ppu/bin/../lib/gcc/powerpc64-ps3-elf/4.5.2/../../../../powerpc64-ps3-elf/lib\libsysbase.a(write.o)
 .debug_pubtypes
                0x00000000000055f4      0x2d1 e:/psdk3v2/psdk3v2-master/ps3dev/ppu/bin/../lib/gcc/powerpc64-ps3-elf/4.5.2/../../../../powerpc64-ps3-elf/lib\libsysbase.a(lock.o)
 .debug_pubtypes
                0x00000000000058c5      0x2d1 e:/psdk3v2/psdk3v2-master/ps3dev/ppu/bin/../lib/gcc/powerpc64-ps3-elf/4.5.2/../../../../powerpc64-ps3-elf/lib\libsysbase.a(getpid.o)
 .debug_pubtypes
                0x0000000000005b96      0x124 e:/psdk3v2/psdk3v2-master/ps3dev/ppu/bin/../lib/gcc/powerpc64-ps3-elf/4.5.2/../../../../powerpc64-ps3-elf/lib\libsysbase.a(kill.o)
 .debug_pubtypes
                0x0000000000005cba      0x2d1 e:/psdk3v2/psdk3v2-master/ps3dev/ppu/bin/../lib/gcc/powerpc64-ps3-elf/4.5.2/../../../../powerpc64-ps3-elf/lib\libsysbase.a(gettod.o)
 .debug_pubtypes
                0x0000000000005f8b       0x12 e:/psdk3v2/psdk3v2-master/ps3dev/ppu/bin/../lib/gcc/powerpc64-ps3-elf/4.5.2/../../../../powerpc64-ps3-elf/lib\libc.a(lib_a-errno.o)
 .debug_pubtypes
                0x0000000000005f9d      0x14c e:/psdk3v2/psdk3v2-master/ps3dev/ppu/bin/../lib/gcc/powerpc64-ps3-elf/4.5.2/../../../../powerpc64-ps3-elf/lib\libc.a(lib_a-sscanf.o)
 .debug_pubtypes
                0x00000000000060e9       0x1d e:/psdk3v2/psdk3v2-master/ps3dev/ppu/bin/../lib/gcc/powerpc64-ps3-elf/4.5.2/../../../../powerpc64-ps3-elf/lib\libc.a(lib_a-strncpy.o)
 .debug_pubtypes
                0x0000000000006106      0x18f e:/psdk3v2/psdk3v2-master/ps3dev/ppu/bin/../lib/gcc/powerpc64-ps3-elf/4.5.2/../../../../powerpc64-ps3-elf/lib\libc.a(lib_a-svfscanf.o)
 .debug_pubtypes
                0x0000000000006295       0x1d e:/psdk3v2/psdk3v2-master/ps3dev/ppu/bin/../lib/gcc/powerpc64-ps3-elf/4.5.2/../../../../powerpc64-ps3-elf/lib\libc.a(lib_a-iswspace.o)
 .debug_pubtypes
                0x00000000000062b2      0x149 e:/psdk3v2/psdk3v2-master/ps3dev/ppu/bin/../lib/gcc/powerpc64-ps3-elf/4.5.2/../../../../powerpc64-ps3-elf/lib\libc.a(lib_a-mbrtowc.o)
 .debug_pubtypes
                0x00000000000063fb      0x149 e:/psdk3v2/psdk3v2-master/ps3dev/ppu/bin/../lib/gcc/powerpc64-ps3-elf/4.5.2/../../../../powerpc64-ps3-elf/lib\libc.a(lib_a-mbtowc_r.o)
 .debug_pubtypes
                0x0000000000006544       0x1d e:/psdk3v2/psdk3v2-master/ps3dev/ppu/bin/../lib/gcc/powerpc64-ps3-elf/4.5.2/../../../../powerpc64-ps3-elf/lib\libc.a(lib_a-sccl.o)
 .debug_pubtypes
                0x0000000000006561       0x12 e:/psdk3v2/psdk3v2-master/ps3dev/ppu/bin/../lib/gcc/powerpc64-ps3-elf/4.5.2/../../../../powerpc64-ps3-elf/lib\libc.a(lib_a-sf_nan.o)
 .debug_pubtypes
                0x0000000000006573      0x16c e:/psdk3v2/psdk3v2-master/ps3dev/ppu/bin/../lib/gcc/powerpc64-ps3-elf/4.5.2/../../../../powerpc64-ps3-elf/lib\libc.a(lib_a-strtod.o)
 .debug_pubtypes
                0x00000000000066df      0x124 e:/psdk3v2/psdk3v2-master/ps3dev/ppu/bin/../lib/gcc/powerpc64-ps3-elf/4.5.2/../../../../powerpc64-ps3-elf/lib\libc.a(lib_a-strtol.o)
 .debug_pubtypes
                0x0000000000006803      0x124 e:/psdk3v2/psdk3v2-master/ps3dev/ppu/bin/../lib/gcc/powerpc64-ps3-elf/4.5.2/../../../../powerpc64-ps3-elf/lib\libc.a(lib_a-strtoll_r.o)
 .debug_pubtypes
                0x0000000000006927      0x124 e:/psdk3v2/psdk3v2-master/ps3dev/ppu/bin/../lib/gcc/powerpc64-ps3-elf/4.5.2/../../../../powerpc64-ps3-elf/lib\libc.a(lib_a-strtoul.o)
 .debug_pubtypes
                0x0000000000006a4b      0x124 e:/psdk3v2/psdk3v2-master/ps3dev/ppu/bin/../lib/gcc/powerpc64-ps3-elf/4.5.2/../../../../powerpc64-ps3-elf/lib\libc.a(lib_a-strtoull_r.o)
 .debug_pubtypes
                0x0000000000006b6f      0x18f e:/psdk3v2/psdk3v2-master/ps3dev/ppu/bin/../lib/gcc/powerpc64-ps3-elf/4.5.2/../../../../powerpc64-ps3-elf/lib\libc.a(lib_a-svfiscanf.o)
 .debug_pubtypes
                0x0000000000006cfe      0x138 e:/psdk3v2/psdk3v2-master/ps3dev/ppu/bin/../lib/gcc/powerpc64-ps3-elf/4.5.2/../../../../powerpc64-ps3-elf/lib\libc.a(lib_a-ungetc.o)
 .debug_pubtypes
                0x0000000000006e36      0x162 e:/psdk3v2/psdk3v2-master/ps3dev/ppu/bin/../lib/gcc/powerpc64-ps3-elf/4.5.2/../../../../powerpc64-ps3-elf/lib\libc.a(lib_a-gdtoa-gethex.o)
 .debug_pubtypes
                0x0000000000006f98       0x2e e:/psdk3v2/psdk3v2-master/ps3dev/ppu/bin/../lib/gcc/powerpc64-ps3-elf/4.5.2/../../../../powerpc64-ps3-elf/lib\libc.a(lib_a-gdtoa-hexnan.o)
 .debug_pubtypes
                0x0000000000006fc6       0x1d e:/psdk3v2/psdk3v2-master/ps3dev/ppu/bin/../lib/gcc/powerpc64-ps3-elf/4.5.2/../../../../powerpc64-ps3-elf/lib\libc.a(lib_a-strncmp.o)

.debug_ranges   0x0000000000000000     0x28b0
 *(.debug_ranges)
 .debug_ranges  0x0000000000000000       0x20 e:/psdk3v2/psdk3v2-master/ps3dev/ppu/bin/../lib/gcc/powerpc64-ps3-elf/4.5.2/../../../../powerpc64-ps3-elf/lib\libc.a(lib_a-exit.o)
 .debug_ranges  0x0000000000000020       0x30 e:/psdk3v2/psdk3v2-master/ps3dev/ppu/bin/../lib/gcc/powerpc64-ps3-elf/4.5.2/../../../../powerpc64-ps3-elf/lib\libc.a(lib_a-fclose.o)
 .debug_ranges  0x0000000000000050       0xa0 e:/psdk3v2/psdk3v2-master/ps3dev/ppu/bin/../lib/gcc/powerpc64-ps3-elf/4.5.2/../../../../powerpc64-ps3-elf/lib\libc.a(lib_a-fflush.o)
 .debug_ranges  0x00000000000000f0       0x30 e:/psdk3v2/psdk3v2-master/ps3dev/ppu/bin/../lib/gcc/powerpc64-ps3-elf/4.5.2/../../../../powerpc64-ps3-elf/lib\libc.a(lib_a-fgets.o)
 .debug_ranges  0x0000000000000120      0x130 e:/psdk3v2/psdk3v2-master/ps3dev/ppu/bin/../lib/gcc/powerpc64-ps3-elf/4.5.2/../../../../powerpc64-ps3-elf/lib\libc.a(lib_a-findfp.o)
 .debug_ranges  0x0000000000000250       0x30 e:/psdk3v2/psdk3v2-master/ps3dev/ppu/bin/../lib/gcc/powerpc64-ps3-elf/4.5.2/../../../../powerpc64-ps3-elf/lib\libc.a(lib_a-fopen.o)
 .debug_ranges  0x0000000000000280       0xc0 e:/psdk3v2/psdk3v2-master/ps3dev/ppu/bin/../lib/gcc/powerpc64-ps3-elf/4.5.2/../../../../powerpc64-ps3-elf/lib\libc.a(lib_a-fread.o)
 .debug_ranges  0x0000000000000340       0x30 e:/psdk3v2/psdk3v2-master/ps3dev/ppu/bin/../lib/gcc/powerpc64-ps3-elf/4.5.2/../../../../powerpc64-ps3-elf/lib\libc.a(lib_a-freer.o)
 .debug_ranges  0x0000000000000370       0x30 e:/psdk3v2/psdk3v2-master/ps3dev/ppu/bin/../lib/gcc/powerpc64-ps3-elf/4.5.2/../../../../powerpc64-ps3-elf/lib\libc.a(lib_a-fseek.o)
 .debug_ranges  0x00000000000003a0       0x30 e:/psdk3v2/psdk3v2-master/ps3dev/ppu/bin/../lib/gcc/powerpc64-ps3-elf/4.5.2/../../../../powerpc64-ps3-elf/lib\libc.a(lib_a-ftell.o)
 .debug_ranges  0x00000000000003d0       0xf0 e:/psdk3v2/psdk3v2-master/ps3dev/ppu/bin/../lib/gcc/powerpc64-ps3-elf/4.5.2/../../../../powerpc64-ps3-elf/lib\libc.a(lib_a-fwalk.o)
 .debug_ranges  0x00000000000004c0       0x30 e:/psdk3v2/psdk3v2-master/ps3dev/ppu/bin/../lib/gcc/powerpc64-ps3-elf/4.5.2/../../../../powerpc64-ps3-elf/lib\libc.a(lib_a-fwrite.o)
 .debug_ranges  0x00000000000004f0       0x70 e:/psdk3v2/psdk3v2-master/ps3dev/ppu/bin/../lib/gcc/powerpc64-ps3-elf/4.5.2/../../../../powerpc64-ps3-elf/lib\libc.a(lib_a-getreent.o)
 .debug_ranges  0x0000000000000560       0x60 e:/psdk3v2/psdk3v2-master/ps3dev/ppu/bin/../lib/gcc/powerpc64-ps3-elf/4.5.2/../../../../powerpc64-ps3-elf/lib\libc.a(lib_a-lock_recursive.o)
 .debug_ranges  0x00000000000005c0       0x20 e:/psdk3v2/psdk3v2-master/ps3dev/ppu/bin/../lib/gcc/powerpc64-ps3-elf/4.5.2/../../../../powerpc64-ps3-elf/lib\libc.a(lib_a-makebuf.o)
 .debug_ranges  0x00000000000005e0       0x30 e:/psdk3v2/psdk3v2-master/ps3dev/ppu/bin/../lib/gcc/powerpc64-ps3-elf/4.5.2/../../../../powerpc64-ps3-elf/lib\libc.a(lib_a-malloc.o)
 .debug_ranges  0x0000000000000610       0xc0 e:/psdk3v2/psdk3v2-master/ps3dev/ppu/bin/../lib/gcc/powerpc64-ps3-elf/4.5.2/../../../../powerpc64-ps3-elf/lib\libc.a(lib_a-mallocr.o)
 .debug_ranges  0x00000000000006d0       0x20 e:/psdk3v2/psdk3v2-master/ps3dev/ppu/bin/../lib/gcc/powerpc64-ps3-elf/4.5.2/../../../../powerpc64-ps3-elf/lib\libc.a(lib_a-memchr.o)
 .debug_ranges  0x00000000000006f0       0x20 e:/psdk3v2/psdk3v2-master/ps3dev/ppu/bin/../lib/gcc/powerpc64-ps3-elf/4.5.2/../../../../powerpc64-ps3-elf/lib\libc.a(lib_a-memcpy.o)
 .debug_ranges  0x0000000000000710       0x20 e:/psdk3v2/psdk3v2-master/ps3dev/ppu/bin/../lib/gcc/powerpc64-ps3-elf/4.5.2/../../../../powerpc64-ps3-elf/lib\libc.a(lib_a-memset.o)
 .debug_ranges  0x0000000000000730       0x30 e:/psdk3v2/psdk3v2-master/ps3dev/ppu/bin/../lib/gcc/powerpc64-ps3-elf/4.5.2/../../../../powerpc64-ps3-elf/lib\libc.a(lib_a-mlock.o)
 .debug_ranges  0x0000000000000760       0x30 e:/psdk3v2/psdk3v2-master/ps3dev/ppu/bin/../lib/gcc/powerpc64-ps3-elf/4.5.2/../../../../powerpc64-ps3-elf/lib\libc.a(lib_a-printf.o)
 .debug_ranges  0x0000000000000790       0x30 e:/psdk3v2/psdk3v2-master/ps3dev/ppu/bin/../lib/gcc/powerpc64-ps3-elf/4.5.2/../../../../powerpc64-ps3-elf/lib\libc.a(lib_a-putchar.o)
 .debug_ranges  0x00000000000007c0       0x30 e:/psdk3v2/psdk3v2-master/ps3dev/ppu/bin/../lib/gcc/powerpc64-ps3-elf/4.5.2/../../../../powerpc64-ps3-elf/lib\libc.a(lib_a-puts.o)
 .debug_ranges  0x00000000000007f0       0x30 e:/psdk3v2/psdk3v2-master/ps3dev/ppu/bin/../lib/gcc/powerpc64-ps3-elf/4.5.2/../../../../powerpc64-ps3-elf/lib\libc.a(lib_a-rand.o)
 .debug_ranges  0x0000000000000820       0x30 e:/psdk3v2/psdk3v2-master/ps3dev/ppu/bin/../lib/gcc/powerpc64-ps3-elf/4.5.2/../../../../powerpc64-ps3-elf/lib\libc.a(lib_a-refill.o)
 .debug_ranges  0x0000000000000850       0x30 e:/psdk3v2/psdk3v2-master/ps3dev/ppu/bin/../lib/gcc/powerpc64-ps3-elf/4.5.2/../../../../powerpc64-ps3-elf/lib\libc.a(lib_a-sprintf.o)
 .debug_ranges  0x0000000000000880       0x60 e:/psdk3v2/psdk3v2-master/ps3dev/ppu/bin/../lib/gcc/powerpc64-ps3-elf/4.5.2/../../../../powerpc64-ps3-elf/lib\libc.a(lib_a-stdio.o)
 .debug_ranges  0x00000000000008e0       0x20 e:/psdk3v2/psdk3v2-master/ps3dev/ppu/bin/../lib/gcc/powerpc64-ps3-elf/4.5.2/../../../../powerpc64-ps3-elf/lib\libc.a(lib_a-strlen.o)
 .debug_ranges  0x0000000000000900      0x450 e:/psdk3v2/psdk3v2-master/ps3dev/ppu/bin/../lib/gcc/powerpc64-ps3-elf/4.5.2/../../../../powerpc64-ps3-elf/lib\libc.a(lib_a-svfprintf.o)
 .debug_ranges  0x0000000000000d50       0x20 e:/psdk3v2/psdk3v2-master/ps3dev/ppu/bin/../lib/gcc/powerpc64-ps3-elf/4.5.2/../../../../powerpc64-ps3-elf/lib\libc.a(lib_a-time.o)
 .debug_ranges  0x0000000000000d70      0x4f0 e:/psdk3v2/psdk3v2-master/ps3dev/ppu/bin/../lib/gcc/powerpc64-ps3-elf/4.5.2/../../../../powerpc64-ps3-elf/lib\libc.a(lib_a-vfprintf.o)
 .debug_ranges  0x0000000000001260       0x20 e:/psdk3v2/psdk3v2-master/ps3dev/ppu/bin/../lib/gcc/powerpc64-ps3-elf/4.5.2/../../../../powerpc64-ps3-elf/lib\libc.a(lib_a-wsetup.o)
 .debug_ranges  0x0000000000001280       0x70 e:/psdk3v2/psdk3v2-master/ps3dev/ppu/bin/../lib/gcc/powerpc64-ps3-elf/4.5.2/../../../../powerpc64-ps3-elf/lib\libc.a(lib_a-__call_atexit.o)
 .debug_ranges  0x00000000000012f0       0x30 e:/psdk3v2/psdk3v2-master/ps3dev/ppu/bin/../lib/gcc/powerpc64-ps3-elf/4.5.2/../../../../powerpc64-ps3-elf/lib\libc.a(lib_a-dtoa.o)
 .debug_ranges  0x0000000000001320       0x20 e:/psdk3v2/psdk3v2-master/ps3dev/ppu/bin/../lib/gcc/powerpc64-ps3-elf/4.5.2/../../../../powerpc64-ps3-elf/lib\libc.a(lib_a-flags.o)
 .debug_ranges  0x0000000000001340       0x60 e:/psdk3v2/psdk3v2-master/ps3dev/ppu/bin/../lib/gcc/powerpc64-ps3-elf/4.5.2/../../../../powerpc64-ps3-elf/lib\libc.a(lib_a-fvwrite.o)
 .debug_ranges  0x00000000000013a0       0x90 e:/psdk3v2/psdk3v2-master/ps3dev/ppu/bin/../lib/gcc/powerpc64-ps3-elf/4.5.2/../../../../powerpc64-ps3-elf/lib\libc.a(lib_a-locale.o)
 .debug_ranges  0x0000000000001430       0x30 e:/psdk3v2/psdk3v2-master/ps3dev/ppu/bin/../lib/gcc/powerpc64-ps3-elf/4.5.2/../../../../powerpc64-ps3-elf/lib\libc.a(lib_a-lock_internal.o)
 .debug_ranges  0x0000000000001460       0x20 e:/psdk3v2/psdk3v2-master/ps3dev/ppu/bin/../lib/gcc/powerpc64-ps3-elf/4.5.2/../../../../powerpc64-ps3-elf/lib\libc.a(lib_a-memmove.o)
 .debug_ranges  0x0000000000001480      0x1f0 e:/psdk3v2/psdk3v2-master/ps3dev/ppu/bin/../lib/gcc/powerpc64-ps3-elf/4.5.2/../../../../powerpc64-ps3-elf/lib\libc.a(lib_a-mprec.o)
 .debug_ranges  0x0000000000001670       0x30 e:/psdk3v2/psdk3v2-master/ps3dev/ppu/bin/../lib/gcc/powerpc64-ps3-elf/4.5.2/../../../../powerpc64-ps3-elf/lib\libc.a(lib_a-putc.o)
 .debug_ranges  0x00000000000016a0      0x1d0 e:/psdk3v2/psdk3v2-master/ps3dev/ppu/bin/../lib/gcc/powerpc64-ps3-elf/4.5.2/../../../../powerpc64-ps3-elf/lib\libc.a(lib_a-reallocr.o)
 .debug_ranges  0x0000000000001870       0x50 e:/psdk3v2/psdk3v2-master/ps3dev/ppu/bin/../lib/gcc/powerpc64-ps3-elf/4.5.2/../../../../powerpc64-ps3-elf/lib\libc.a(lib_a-s_fpclassify.o)
 .debug_ranges  0x00000000000018c0       0x20 e:/psdk3v2/psdk3v2-master/ps3dev/ppu/bin/../lib/gcc/powerpc64-ps3-elf/4.5.2/../../../../powerpc64-ps3-elf/lib\libc.a(lib_a-strcmp.o)
 .debug_ranges  0x00000000000018e0       0xc0 e:/psdk3v2/psdk3v2-master/ps3dev/ppu/bin/../lib/gcc/powerpc64-ps3-elf/4.5.2/../../../../powerpc64-ps3-elf/lib\libc.a(lib_a-svfiprintf.o)
 .debug_ranges  0x00000000000019a0      0x120 e:/psdk3v2/psdk3v2-master/ps3dev/ppu/bin/../lib/gcc/powerpc64-ps3-elf/4.5.2/../../../../powerpc64-ps3-elf/lib\libc.a(lib_a-vfiprintf.o)
 .debug_ranges  0x0000000000001ac0       0x30 e:/psdk3v2/psdk3v2-master/ps3dev/ppu/bin/../lib/gcc/powerpc64-ps3-elf/4.5.2/../../../../powerpc64-ps3-elf/lib\libc.a(lib_a-wbuf.o)
 .debug_ranges  0x0000000000001af0       0x20 e:/psdk3v2/psdk3v2-master/ps3dev/ppu/bin/../lib/gcc/powerpc64-ps3-elf/4.5.2/../../../../powerpc64-ps3-elf/lib\libc.a(lib_a-__atexit.o)
 .debug_ranges  0x0000000000001b10       0x20 e:/psdk3v2/psdk3v2-master/ps3dev/ppu/bin/../lib/gcc/powerpc64-ps3-elf/4.5.2/../../../../powerpc64-ps3-elf/lib\libc.a(lib_a-abort.o)
 .debug_ranges  0x0000000000001b30       0x50 e:/psdk3v2/psdk3v2-master/ps3dev/ppu/bin/../lib/gcc/powerpc64-ps3-elf/4.5.2/../../../../powerpc64-ps3-elf/lib\libc.a(lib_a-callocr.o)
 .debug_ranges  0x0000000000001b80       0xb0 e:/psdk3v2/psdk3v2-master/ps3dev/ppu/bin/../lib/gcc/powerpc64-ps3-elf/4.5.2/../../../../powerpc64-ps3-elf/lib\libc.a(lib_a-fputwc.o)
 .debug_ranges  0x0000000000001c30       0x90 e:/psdk3v2/psdk3v2-master/ps3dev/ppu/bin/../lib/gcc/powerpc64-ps3-elf/4.5.2/../../../../powerpc64-ps3-elf/lib\libc.a(lib_a-signal.o)
 .debug_ranges  0x0000000000001cc0       0x30 e:/psdk3v2/psdk3v2-master/ps3dev/ppu/bin/../lib/gcc/powerpc64-ps3-elf/4.5.2/../../../../powerpc64-ps3-elf/lib\libc.a(lib_a-wcrtomb.o)
 .debug_ranges  0x0000000000001cf0       0x30 e:/psdk3v2/psdk3v2-master/ps3dev/ppu/bin/../lib/gcc/powerpc64-ps3-elf/4.5.2/../../../../powerpc64-ps3-elf/lib\libc.a(lib_a-wctomb_r.o)
 .debug_ranges  0x0000000000001d20       0x20 e:/psdk3v2/psdk3v2-master/ps3dev/ppu/bin/../lib/gcc/powerpc64-ps3-elf/4.5.2/../../../../powerpc64-ps3-elf/lib\libsysbase.a(close.o)
 .debug_ranges  0x0000000000001d40       0x20 e:/psdk3v2/psdk3v2-master/ps3dev/ppu/bin/../lib/gcc/powerpc64-ps3-elf/4.5.2/../../../../powerpc64-ps3-elf/lib\libsysbase.a(sbrk.o)
 .debug_ranges  0x0000000000001d60       0x20 e:/psdk3v2/psdk3v2-master/ps3dev/ppu/bin/../lib/gcc/powerpc64-ps3-elf/4.5.2/../../../../powerpc64-ps3-elf/lib\libsysbase.a(_exit.o)
 .debug_ranges  0x0000000000001d80       0x20 e:/psdk3v2/psdk3v2-master/ps3dev/ppu/bin/../lib/gcc/powerpc64-ps3-elf/4.5.2/../../../../powerpc64-ps3-elf/lib\libsysbase.a(fstat.o)
 .debug_ranges  0x0000000000001da0       0x20 e:/psdk3v2/psdk3v2-master/ps3dev/ppu/bin/../lib/gcc/powerpc64-ps3-elf/4.5.2/../../../../powerpc64-ps3-elf/lib\libsysbase.a(isatty.o)
 .debug_ranges  0x0000000000001dc0       0x20 e:/psdk3v2/psdk3v2-master/ps3dev/ppu/bin/../lib/gcc/powerpc64-ps3-elf/4.5.2/../../../../powerpc64-ps3-elf/lib\libsysbase.a(lseek.o)
 .debug_ranges  0x0000000000001de0       0x20 e:/psdk3v2/psdk3v2-master/ps3dev/ppu/bin/../lib/gcc/powerpc64-ps3-elf/4.5.2/../../../../powerpc64-ps3-elf/lib\libsysbase.a(open.o)
 .debug_ranges  0x0000000000001e00       0x20 e:/psdk3v2/psdk3v2-master/ps3dev/ppu/bin/../lib/gcc/powerpc64-ps3-elf/4.5.2/../../../../powerpc64-ps3-elf/lib\libsysbase.a(read.o)
 .debug_ranges  0x0000000000001e20       0x20 e:/psdk3v2/psdk3v2-master/ps3dev/ppu/bin/../lib/gcc/powerpc64-ps3-elf/4.5.2/../../../../powerpc64-ps3-elf/lib\libsysbase.a(write.o)
 .debug_ranges  0x0000000000001e40       0x60 e:/psdk3v2/psdk3v2-master/ps3dev/ppu/bin/../lib/gcc/powerpc64-ps3-elf/4.5.2/../../../../powerpc64-ps3-elf/lib\libsysbase.a(lock.o)
 .debug_ranges  0x0000000000001ea0       0x20 e:/psdk3v2/psdk3v2-master/ps3dev/ppu/bin/../lib/gcc/powerpc64-ps3-elf/4.5.2/../../../../powerpc64-ps3-elf/lib\libsysbase.a(getpid.o)
 .debug_ranges  0x0000000000001ec0       0x20 e:/psdk3v2/psdk3v2-master/ps3dev/ppu/bin/../lib/gcc/powerpc64-ps3-elf/4.5.2/../../../../powerpc64-ps3-elf/lib\libsysbase.a(kill.o)
 .debug_ranges  0x0000000000001ee0       0x20 e:/psdk3v2/psdk3v2-master/ps3dev/ppu/bin/../lib/gcc/powerpc64-ps3-elf/4.5.2/../../../../powerpc64-ps3-elf/lib\libsysbase.a(gettod.o)
 .debug_ranges  0x0000000000001f00       0x20 e:/psdk3v2/psdk3v2-master/ps3dev/ppu/bin/../lib/gcc/powerpc64-ps3-elf/4.5.2/../../../../powerpc64-ps3-elf/lib\libc.a(lib_a-errno.o)
 .debug_ranges  0x0000000000001f20       0x30 e:/psdk3v2/psdk3v2-master/ps3dev/ppu/bin/../lib/gcc/powerpc64-ps3-elf/4.5.2/../../../../powerpc64-ps3-elf/lib\libc.a(lib_a-sscanf.o)
 .debug_ranges  0x0000000000001f50       0x20 e:/psdk3v2/psdk3v2-master/ps3dev/ppu/bin/../lib/gcc/powerpc64-ps3-elf/4.5.2/../../../../powerpc64-ps3-elf/lib\libc.a(lib_a-strncpy.o)
 .debug_ranges  0x0000000000001f70      0x2e0 e:/psdk3v2/psdk3v2-master/ps3dev/ppu/bin/../lib/gcc/powerpc64-ps3-elf/4.5.2/../../../../powerpc64-ps3-elf/lib\libc.a(lib_a-svfscanf.o)
 .debug_ranges  0x0000000000002250       0x20 e:/psdk3v2/psdk3v2-master/ps3dev/ppu/bin/../lib/gcc/powerpc64-ps3-elf/4.5.2/../../../../powerpc64-ps3-elf/lib\libc.a(lib_a-iswspace.o)
 .debug_ranges  0x0000000000002270       0x30 e:/psdk3v2/psdk3v2-master/ps3dev/ppu/bin/../lib/gcc/powerpc64-ps3-elf/4.5.2/../../../../powerpc64-ps3-elf/lib\libc.a(lib_a-mbrtowc.o)
 .debug_ranges  0x00000000000022a0       0x30 e:/psdk3v2/psdk3v2-master/ps3dev/ppu/bin/../lib/gcc/powerpc64-ps3-elf/4.5.2/../../../../powerpc64-ps3-elf/lib\libc.a(lib_a-mbtowc_r.o)
 .debug_ranges  0x00000000000022d0       0x20 e:/psdk3v2/psdk3v2-master/ps3dev/ppu/bin/../lib/gcc/powerpc64-ps3-elf/4.5.2/../../../../powerpc64-ps3-elf/lib\libc.a(lib_a-sccl.o)
 .debug_ranges  0x00000000000022f0       0x20 e:/psdk3v2/psdk3v2-master/ps3dev/ppu/bin/../lib/gcc/powerpc64-ps3-elf/4.5.2/../../../../powerpc64-ps3-elf/lib\libc.a(lib_a-sf_nan.o)
 .debug_ranges  0x0000000000002310      0x110 e:/psdk3v2/psdk3v2-master/ps3dev/ppu/bin/../lib/gcc/powerpc64-ps3-elf/4.5.2/../../../../powerpc64-ps3-elf/lib\libc.a(lib_a-strtod.o)
 .debug_ranges  0x0000000000002420       0x30 e:/psdk3v2/psdk3v2-master/ps3dev/ppu/bin/../lib/gcc/powerpc64-ps3-elf/4.5.2/../../../../powerpc64-ps3-elf/lib\libc.a(lib_a-strtol.o)
 .debug_ranges  0x0000000000002450       0x20 e:/psdk3v2/psdk3v2-master/ps3dev/ppu/bin/../lib/gcc/powerpc64-ps3-elf/4.5.2/../../../../powerpc64-ps3-elf/lib\libc.a(lib_a-strtoll_r.o)
 .debug_ranges  0x0000000000002470       0x30 e:/psdk3v2/psdk3v2-master/ps3dev/ppu/bin/../lib/gcc/powerpc64-ps3-elf/4.5.2/../../../../powerpc64-ps3-elf/lib\libc.a(lib_a-strtoul.o)
 .debug_ranges  0x00000000000024a0       0x20 e:/psdk3v2/psdk3v2-master/ps3dev/ppu/bin/../lib/gcc/powerpc64-ps3-elf/4.5.2/../../../../powerpc64-ps3-elf/lib\libc.a(lib_a-strtoull_r.o)
 .debug_ranges  0x00000000000024c0      0x250 e:/psdk3v2/psdk3v2-master/ps3dev/ppu/bin/../lib/gcc/powerpc64-ps3-elf/4.5.2/../../../../powerpc64-ps3-elf/lib\libc.a(lib_a-svfiscanf.o)
 .debug_ranges  0x0000000000002710       0x40 e:/psdk3v2/psdk3v2-master/ps3dev/ppu/bin/../lib/gcc/powerpc64-ps3-elf/4.5.2/../../../../powerpc64-ps3-elf/lib\libc.a(lib_a-ungetc.o)
 .debug_ranges  0x0000000000002750      0x120 e:/psdk3v2/psdk3v2-master/ps3dev/ppu/bin/../lib/gcc/powerpc64-ps3-elf/4.5.2/../../../../powerpc64-ps3-elf/lib\libc.a(lib_a-gdtoa-gethex.o)
 .debug_ranges  0x0000000000002870       0x20 e:/psdk3v2/psdk3v2-master/ps3dev/ppu/bin/../lib/gcc/powerpc64-ps3-elf/4.5.2/../../../../powerpc64-ps3-elf/lib\libc.a(lib_a-gdtoa-hexnan.o)
 .debug_ranges  0x0000000000002890       0x20 e:/psdk3v2/psdk3v2-master/ps3dev/ppu/bin/../lib/gcc/powerpc64-ps3-elf/4.5.2/../../../../powerpc64-ps3-elf/lib\libc.a(lib_a-strncmp.o)

.gnu.attributes
 *(.gnu.attributes)

/DISCARD/
 *(.note.GNU-stack)
 *(.gnu_debuglink)
LOAD e:/psdk3v2/psdk3v2-master/ps3dev/ppu/bin/../lib/gcc/powerpc64-ps3-elf/4.5.2/../../../../powerpc64-ps3-elf/lib/lv2-crti.o
LOAD e:/psdk3v2/psdk3v2-master/ps3dev/ppu/bin/../lib/gcc/powerpc64-ps3-elf/4.5.2/crtbegin.o
LOAD e:/psdk3v2/psdk3v2-master/ps3dev/ppu/bin/../lib/gcc/powerpc64-ps3-elf/4.5.2/../../../../powerpc64-ps3-elf/lib/lv2-crt0.o
LOAD e:/psdk3v2/psdk3v2-master/ps3dev/ppu/bin/../lib/gcc/powerpc64-ps3-elf/4.5.2/../../../../powerpc64-ps3-elf/lib/lv2-sprx.o
LOAD main.o
LOAD ../liblv2.a
LOAD e:/psdk3v2/psdk3v2-master/ps3dev/ppu/bin/../lib/gcc/powerpc64-ps3-elf/4.5.2/../../../../powerpc64-ps3-elf/lib\libm.a
LOAD e:/psdk3v2/psdk3v2-master/ps3dev/ppu/bin/../lib/gcc/powerpc64-ps3-elf/4.5.2\libgcc.a
START GROUP
LOAD e:/psdk3v2/psdk3v2-master/ps3dev/ppu/bin/../lib/gcc/powerpc64-ps3-elf/4.5.2/../../../../powerpc64-ps3-elf/lib\libsysbase.a
LOAD e:/psdk3v2/psdk3v2-master/ps3dev/ppu/bin/../lib/gcc/powerpc64-ps3-elf/4.5.2/../../../../powerpc64-ps3-elf/lib\libc.a
LOAD e:/PSDK3v2/PSDK3v2-master/psl1ght/ppu/lib\librt.a
LOAD e:/PSDK3v2/PSDK3v2-master/psl1ght/ppu/lib\liblv2.a
END GROUP
LOAD e:/psdk3v2/psdk3v2-master/ps3dev/ppu/bin/../lib/gcc/powerpc64-ps3-elf/4.5.2\libgcc.a
LOAD e:/psdk3v2/psdk3v2-master/ps3dev/ppu/bin/../lib/gcc/powerpc64-ps3-elf/4.5.2/crtend.o
LOAD e:/psdk3v2/psdk3v2-master/ps3dev/ppu/bin/../lib/gcc/powerpc64-ps3-elf/4.5.2/../../../../powerpc64-ps3-elf/lib/lv2-crtn.o
OUTPUT(e:/PSDK3v2/sys_init_osd/sys_init_osd.elf elf64-powerpc)
